
test2.elf:     file format elf32-littleriscv
test2.elf
architecture: riscv:rv32, flags 0x00000112:
EXEC_P, HAS_SYMS, D_PAGED
start address 0x00000000

Program Header:
    LOAD off    0x00001000 vaddr 0x00000000 paddr 0x00000000 align 2**12
         filesz 0x00009b5c memsz 0x00009b5c flags r-x
    LOAD off    0x0000b000 vaddr 0x20000000 paddr 0x00009b5c align 2**12
         filesz 0x00000158 memsz 0x00001d1c flags rw-
    LOAD off    0x0000b800 vaddr 0x2000f800 paddr 0x2000f800 align 2**12
         filesz 0x00000000 memsz 0x00000800 flags rw-

Sections:
Idx Name          Size      VMA       LMA       File off  Algn
  0 .init         00000038  00000000  00000000  00001000  2**1
                  CONTENTS, ALLOC, LOAD, READONLY, CODE
  1 .vector       000001c8  00000038  00000038  00001038  2**1
                  CONTENTS, ALLOC, LOAD, READONLY, CODE
  2 .text         0000995c  00000200  00000200  00001200  2**3
                  CONTENTS, ALLOC, LOAD, READONLY, CODE
  3 .fini         00000000  00009b5c  00009b5c  0000b158  2**0
                  CONTENTS, ALLOC, LOAD, CODE
  4 .dalign       00000000  20000000  20000000  0000b158  2**0
                  CONTENTS
  5 .dlalign      00000000  00009b5c  00009b5c  0000b158  2**0
                  CONTENTS
  6 .data         00000158  20000000  00009b5c  0000b000  2**2
                  CONTENTS, ALLOC, LOAD, DATA
  7 .bss          00001bc4  20000158  00009cb4  0000b158  2**2
                  ALLOC
  8 .stack        00000800  2000f800  2000f800  0000b800  2**0
                  ALLOC
  9 .debug_info   00028b9a  00000000  00000000  0000b158  2**0
                  CONTENTS, READONLY, DEBUGGING
 10 .debug_abbrev 00007457  00000000  00000000  00033cf2  2**0
                  CONTENTS, READONLY, DEBUGGING
 11 .debug_loc    0000c45c  00000000  00000000  0003b149  2**0
                  CONTENTS, READONLY, DEBUGGING
 12 .debug_aranges 00001488  00000000  00000000  000475a8  2**3
                  CONTENTS, READONLY, DEBUGGING
 13 .debug_ranges 00001bd8  00000000  00000000  00048a30  2**3
                  CONTENTS, READONLY, DEBUGGING
 14 .debug_line   0001d73a  00000000  00000000  0004a608  2**0
                  CONTENTS, READONLY, DEBUGGING
 15 .debug_str    00006219  00000000  00000000  00067d42  2**0
                  CONTENTS, READONLY, DEBUGGING
 16 .comment      00000033  00000000  00000000  0006df5b  2**0
                  CONTENTS, READONLY
 17 .debug_frame  00003de0  00000000  00000000  0006df90  2**2
                  CONTENTS, READONLY, DEBUGGING
 18 .stabstr      00000117  00000000  00000000  00071d70  2**0
                  CONTENTS, READONLY, DEBUGGING
SYMBOL TABLE:
00000000 l    d  .init	00000000 .init
00000038 l    d  .vector	00000000 .vector
00000200 l    d  .text	00000000 .text
00009b5c l    d  .fini	00000000 .fini
20000000 l    d  .dalign	00000000 .dalign
00009b5c l    d  .dlalign	00000000 .dlalign
20000000 l    d  .data	00000000 .data
20000158 l    d  .bss	00000000 .bss
2000f800 l    d  .stack	00000000 .stack
00000000 l    d  .debug_info	00000000 .debug_info
00000000 l    d  .debug_abbrev	00000000 .debug_abbrev
00000000 l    d  .debug_loc	00000000 .debug_loc
00000000 l    d  .debug_aranges	00000000 .debug_aranges
00000000 l    d  .debug_ranges	00000000 .debug_ranges
00000000 l    d  .debug_line	00000000 .debug_line
00000000 l    d  .debug_str	00000000 .debug_str
00000000 l    d  .comment	00000000 .comment
00000000 l    d  .debug_frame	00000000 .debug_frame
00000000 l    d  .stabstr	00000000 .stabstr
00000000 l    df *ABS*	00000000 ./Startup/startup_ch32v30x.o
00000038 l       .vector	00000000 _vector_base
00000000 l    df *ABS*	00000000 clock.c
20000158 l     O .bss	00000004 rt_tick
00000000 l    df *ABS*	00000000 components.c
000005f0 l     F .text	00000004 rti_start
000005f4 l     F .text	00000004 rti_end
000005f8 l     F .text	00000004 rti_board_start
000005fc l     F .text	00000004 rti_board_end
00000000 l    df *ABS*	00000000 device.c
00000000 l    df *ABS*	00000000 idle.c
00000882 l     F .text	0000001c rt_thread_idle_entry
20000210 l     O .bss	00000080 idle
20000290 l     O .bss	00000010 idle_hook_list
200002a0 l     O .bss	00000200 rt_thread_stack
00000000 l    df *ABS*	00000000 ipc.c
000008d4 l     F .text	0000005a rt_ipc_list_suspend
00000000 l    df *ABS*	00000000 irq.c
2000015c l     O .bss	00000004 rt_interrupt_enter_hook
20000160 l     O .bss	00000004 rt_interrupt_leave_hook
00000000 l    df *ABS*	00000000 kservice.c
00000a74 l     F .text	0000017e print_number
200004a0 l     O .bss	00000080 rt_log_buf.2695
00008024 l     O .text	00000011 large_digits.2585
000080c8 l     O .text	00000011 small_digits.2584
20000168 l     O .bss	00000004 __rt_errno
2000016c l     O .bss	00000004 _console_device
00000000 l    df *ABS*	00000000 mem.c
000011c2 l     F .text	00000058 plug_holes
20000520 l     O .bss	00000020 heap_sem
20000170 l     O .bss	00000004 heap_end
20000174 l     O .bss	00000004 heap_ptr
20000178 l     O .bss	00000004 lfree
2000017c l     O .bss	00000004 max_mem
20000180 l     O .bss	00000004 mem_size_aligned
20000184 l     O .bss	00000004 rt_free_hook
20000188 l     O .bss	00000004 rt_malloc_hook
2000018c l     O .bss	00000004 used_mem
00000000 l    df *ABS*	00000000 object.c
20000000 l     O .data	00000080 rt_object_container
20000190 l     O .bss	00000004 rt_object_attach_hook
20000194 l     O .bss	00000004 rt_object_detach_hook
00000000 l    df *ABS*	00000000 scheduler.c
200001ac l     O .bss	00000004 rt_scheduler_hook
200001b0 l     O .bss	00000002 rt_scheduler_lock_nest
00000000 l    df *ABS*	00000000 thread.c
000017ea l     F .text	0000008e _rt_thread_init.isra.0
200001c0 l     O .bss	00000004 rt_thread_inited_hook
200001c4 l     O .bss	00000004 rt_thread_resume_hook
200001c8 l     O .bss	00000004 rt_thread_suspend_hook
00000000 l    df *ABS*	00000000 timer.c
00001a74 l     F .text	00000012 _rt_timer_remove.part.1
200001cc l     O .bss	00000004 random_nr.2485
200001d0 l     O .bss	00000004 rt_timer_enter_hook
200001d4 l     O .bss	00000004 rt_timer_exit_hook
200001d8 l     O .bss	00000008 rt_timer_list
00000000 l    df *ABS*	00000000 cpuport.c
00000000 l    df *ABS*	00000000 cmd.c
00001cd2 l     F .text	00000012 rt_list_len
00001d0c l     F .text	00000020 object_split
00001d2c l     F .text	00000036 show_wait_queue
00001d62 l     F .text	0000003e object_name_maxlen
00000000 l    df *ABS*	00000000 msh.c
00000000 l    df *ABS*	00000000 msh_cmd.c
00000000 l    df *ABS*	00000000 shell.c
00002616 l     F .text	00000012 finsh_rx_ind
000026fc l     F .text	0000002e shell_handle_history
200005c0 l     O .bss	00000081 finsh_prompt.4317
00000000 l    df *ABS*	00000000 serial.c
00002bb8 l     F .text	00000020 rt_serial_init
00002bd8 l     F .text	00000042 rt_serial_write
00002c1a l     F .text	0000009e rt_serial_open
00002cb8 l     F .text	0000006e rt_serial_control
00002d26 l     F .text	0000009e rt_serial_read
00002dc4 l     F .text	00000040 rt_serial_close
00000000 l    df *ABS*	00000000 pin.c
00002f08 l     F .text	0000001c _pin_control
00002f70 l     F .text	0000002e _pin_read
00002f9e l     F .text	0000002c _pin_write
20000644 l     O .bss	00000048 _hw_pin
00000000 l    df *ABS*	00000000 board.c
2000068c l     O .bss	00001000 rt_heap
00000000 l    df *ABS*	00000000 drv_gpio.c
000030a8 l     F .text	0000001c bit2bitno
000030c4 l     F .text	00000012 GPIOD_CLK_ENABLE
000030d6 l     F .text	00000010 GPIOB_CLK_ENABLE
000030e6 l     F .text	00000010 GPIOA_CLK_ENABLE
000030f6 l     F .text	00000010 GPIOC_CLK_ENABLE
00003106 l     F .text	00000012 GPIOE_CLK_ENABLE
00008c50 l     O .text	00000018 _ch32_pin_ops
00008c68 l     O .text	00000080 pin_irq_map
00008ce8 l     O .text	00000650 pins
00000000 l    df *ABS*	00000000 drv_usart.c
0000388e l     F .text	000000ce ch32_configure
00003a20 l     F .text	00000022 ch32_getc
00003a42 l     F .text	00000022 ch32_putc
00003a64 l     F .text	0000005c ch32_control
0000933c l     O .text	00000014 ch32_uart_ops
00000000 l    df *ABS*	00000000 ch32v30x_it.c
00000000 l    df *ABS*	00000000 main.c
00003c42 l     F .text	00000114 update_dac_buffer
00000000 l    df *ABS*	00000000 system_ch32v30x.c
00000000 l    df *ABS*	00000000 ch32v30x_adc.c
00000000 l    df *ABS*	00000000 ch32v30x_dac.c
00000000 l    df *ABS*	00000000 ch32v30x_dma.c
00000000 l    df *ABS*	00000000 ch32v30x_exti.c
00000000 l    df *ABS*	00000000 ch32v30x_gpio.c
00000000 l    df *ABS*	00000000 ch32v30x_misc.c
00000000 l    df *ABS*	00000000 ch32v30x_rcc.c
20000140 l     O .data	00000010 APBAHBPrescTable
20000154 l     O .data	00000004 ADCPrescTable
00000000 l    df *ABS*	00000000 ch32v30x_tim.c
00000000 l    df *ABS*	00000000 ch32v30x_usart.c
00000000 l    df *ABS*	00000000 systick.c
00000000 l    df *ABS*	00000000 sf_sin.c
00000000 l    df *ABS*	00000000 ef_rem_pio2.c
0000943c l     O .text	00000080 npio2_hw
000094bc l     O .text	00000318 two_over_pi
00000000 l    df *ABS*	00000000 kf_cos.c
00000000 l    df *ABS*	00000000 kf_rem_pio2.c
000097f8 l     O .text	0000002c PIo2
00009834 l     O .text	0000000c init_jk
00000000 l    df *ABS*	00000000 kf_sin.c
00000000 l    df *ABS*	00000000 sf_fabs.c
00000000 l    df *ABS*	00000000 sf_floor.c
00000000 l    df *ABS*	00000000 sf_scalbn.c
00000000 l    df *ABS*	00000000 sf_copysign.c
00000000 l    df *ABS*	00000000 divdf3.c
00000000 l    df *ABS*	00000000 gedf2.c
00000000 l    df *ABS*	00000000 ledf2.c
00000000 l    df *ABS*	00000000 muldf3.c
00000000 l    df *ABS*	00000000 subdf3.c
00000000 l    df *ABS*	00000000 extendsfdf2.c
00000000 l    df *ABS*	00000000 truncdfsf2.c
00000000 l    df *ABS*	00000000 libgcc2.c
00000000 l    df *ABS*	00000000 memcmp.c
00000000 l    df *ABS*	00000000 memcpy.c
00000000 l    df *ABS*	00000000 strcat.c
00000000 l    df *ABS*	00000000 strcpy.c
00000000 l    df *ABS*	00000000 strlen.c
00000000 l    df *ABS*	00000000 strncmp.c
00000000 l    df *ABS*	00000000 libgcc2.c
00000000 l    df *ABS*	00000000 symbol.c
00000000 l    df *ABS*	00000000 close.c
00004ea8 g     F .text	00000016 TIM_TimeBaseStructInit
00003576 g     F .text	0000007c EXTI2_IRQHandler
00004524  w      .text	00000000 TIM8_TRG_COM_IRQHandler
0000402a g     F .text	000000de ADCs_Init
000013f4 g     F .text	00000024 rt_calloc
00004526  w      .text	00000000 TIM8_CC_IRQHandler
00009abc g     O .text	0000000c __fsym_list_thread
00000698 g     F .text	0000000a entry
00007e40 g     F .text	00000010 strcpy
00001da0 g     F .text	000000e2 list_thread
000027a8 g     F .text	00000410 finsh_thread_entry
00001600 g     F .text	00000008 rt_object_is_systemobject
00000cde g     F .text	0000002c rt_strncpy
00001c4a g     F .text	00000036 rt_hw_stack_init
000049ca g     F .text	00000014 DMA_Cmd
0000455c  w      .text	00000000 UART8_IRQHandler
000023ae g     F .text	000001aa msh_exec
00008790 g     O .text	0000000d __fsym_list_mailbox_name
00001578 g     F .text	00000056 rt_object_allocate
00009b1c g     O .text	0000000c __fsym_pinRead
00007f24 g     O .text	00000100 __lowest_bit_bitmap
20000950 g       .data	00000000 __global_pointer$
00001636 g     F .text	0000002c rt_system_scheduler_start
000004c2 g     F .text	00000028 .hidden __riscv_save_8
00004a4e g     F .text	0000000c DMA_GetITStatus
00004500  w      .text	00000000 TIM1_CC_IRQHandler
200001e4 g     O .bss	00000004 rt_interrupt_to_thread
00003bce g     F .text	00000074 HardFault_Handler
00004672 g     F .text	00000012 ADC_DMACmd
00008888 g     O .text	00000009 __fsym_list_sem_name
0000050e g     F .text	0000000c .hidden __riscv_restore_3
00004536  w      .text	00000000 TIM6_IRQHandler
00000808 g     F .text	00000006 rt_device_set_rx_indicate
00005050 g     F .text	00000074 SysTick_Handler
000019f2 g     F .text	0000000a rt_thread_delay
00001418 g     F .text	000000aa rt_free
200001e0 g     O .bss	00000004 rt_interrupt_from_thread
00004bf8 g     F .text	000000a6 NVIC_Init
0000124c g     F .text	0000007c rt_system_heap_init
000044cc  w      .text	00000000 PVD_IRQHandler
0000063c g     F .text	0000000c main_thread_entry
0000452c  w      .text	00000000 SDIO_IRQHandler
0000455e  w      .text	00000000 TIM9_BRK_IRQHandler
00008940 g     O .text	00000007 __fsym_reboot_name
00001bc6 g     F .text	00000078 rt_timer_check
000004fa g     F .text	00000020 .hidden __riscv_restore_10
000016cc g     F .text	00000048 rt_schedule_insert_thread
00001e82 g     F .text	000000b6 list_sem
0000071e g     F .text	0000007a rt_device_open
00004572  w      .text	00000000 DMA2_Channel8_IRQHandler
00003b5a g     F .text	00000074 NMI_Handler
0000454c  w      .text	00000000 CAN2_RX1_IRQHandler
000035f2 g     F .text	0000007c EXTI3_IRQHandler
000004c2 g     F .text	00000028 .hidden __riscv_save_11
00002308 g     F .text	0000004a list
0000668a g     F .text	000000b6 .hidden __gtdf2
00008144 g     O .text	00000009 __fsym_list_mem_name
200001f8 g     O .bss	00000004 _sysvar_table_begin
000087b8 g     O .text	00000011 __fsym___cmd_list_mutex_name
00009b5c g       .text	00000000 __rtmsymtab_start
0000513c g     F .text	000002b4 __ieee754_rem_pio2f
00004554  w      .text	00000000 USBHS_IRQHandler
00000354 g       .text	00000000 SW_handler
00004ff6 g     F .text	0000000a USART_GetFlagStatus
00004574  w      .text	00000000 DMA2_Channel9_IRQHandler
0000080e g     F .text	00000074 rt_thread_idle_excute
00001968 g     F .text	0000004a rt_thread_suspend
000010ce g     F .text	00000068 rt_kprintf
0000456c  w      .text	00000000 TIM10_CC_IRQHandler
00000a6e g     F .text	00000006 rt_interrupt_get_nest
20000158 g       .bss	00000000 _sbss
00000800 g       *ABS*	00000000 __stack_size
0000473c g     F .text	00000018 ADC_ExternalTrigConvCmd
00004964 g     F .text	00000038 DMA_Init
00001878 g     F .text	00000020 rt_thread_timeout
000088e0 g     O .text	0000000c __fsym___cmd_clear_name
00002608 g     F .text	0000000e cmd_free
20000200 g     O .bss	00000004 adc_count
0000881c g     O .text	00000015 __fsym_list_event_desc
00009a44 g     O .text	0000000c __fsym_list_msgqueue
00009b40 g       .text	00000000 __rt_init_start
00002066 g     F .text	000000be list_mailbox
0000050e g     F .text	0000000c .hidden __riscv_restore_2
00008c28 g     O .text	00000016 __fsym_pinMode_desc
00009b40 g       .text	00000000 __fsymtab_end
00002f3e g     F .text	0000001a rt_pin_write
000088cc g     O .text	00000014 __fsym___cmd_clear_desc
000007d0 g     F .text	0000001c rt_device_read
200001ec g     O .bss	00000004 shell
00007d70 g     F .text	000000b2 memcpy
00004662 g     F .text	00000010 ADC_Cmd
00002628 g     F .text	00000098 finsh_system_init
00006740 g     F .text	000000b6 .hidden __ltdf2
0000061e g     F .text	0000001e rt_components_init
0000347e g     F .text	0000007c EXTI0_IRQHandler
0000450c  w      .text	00000000 I2C2_EV_IRQHandler
0000456a  w      .text	00000000 TIM10_TRG_COM_IRQHandler
00004ebe g     F .text	00000018 TIM_Cmd
00001a86 g     F .text	0000003a rt_timer_init
00009b5c g       .text	00000000 __rt_init_end
0000089e g     F .text	00000036 rt_thread_idle_init
20000150 g     O .data	00000004 SystemCoreClock
00009a74 g     O .text	0000000c __fsym_list_mutex
200001f4 g     O .bss	00000004 _syscall_table_end
200016e4 g     O .bss	00000018 uart1
00001608 g     F .text	0000002e rt_system_scheduler_init
000006a2 g     F .text	00000048 rt_device_find
00000200 g       .text	00000000 rt_hw_context_switch_to
00009b48 g     O .text	00000004 __rt_init_rt_hw_pin_init
00000038 g       .init	00000000 _einit
200001e8 g     O .bss	00000004 rt_thread_switch_interrupt_flag
20000208 g     O .bss	00000004 half_count
00004dc2 g     F .text	0000001e RCC_APB2PeriphClockCmd
000004ba g     F .text	00000030 .hidden __riscv_save_12
0000454e  w      .text	00000000 CAN2_SCE_IRQHandler
000044ee  w      .text	00000000 ADC1_2_IRQHandler
00009b58 g     O .text	00000004 __rt_init_rti_end
00004af8 g     F .text	000000c0 GPIO_Init
0000885c g     O .text	0000000f __fsym___cmd_list_sem_name
000044c4  w      .text	00000000 Break_Point_Handler
00009a38 g     O .text	0000000c __fsym___cmd_list_msgqueue
00008624 g     O .text	0000001a __fsym_list_desc
000004fa g     F .text	00000020 .hidden __riscv_restore_11
2000020c g     O .bss	00000004 NVIC_Priority_Group
00004510  w      .text	00000000 SPI1_IRQHandler
00002e04 g     F .text	0000005a rt_hw_serial_register
00004faa g     F .text	00000016 USART_Cmd
00008640 g     O .text	00000005 __fsym_list_name
00001cb0 g     F .text	00000022 rt_hw_context_switch_interrupt
0000891c g     O .text	0000000d __fsym___cmd_reboot_name
000044ce  w      .text	00000000 TAMPER_IRQHandler
000004ea g     F .text	0000000c .hidden __riscv_save_1
0000050e g     F .text	0000000c .hidden __riscv_restore_0
00008894 g     O .text	0000000c __fsym___cmd_list_thread_desc
00005cc4 g     F .text	0000000e fabsf
00008900 g     O .text	00000006 __fsym_clear_name
000018d0 g     F .text	00000046 rt_thread_create
000004d0 g     F .text	0000001a .hidden __riscv_save_7
00009b5c g       .text	00000000 __rtmsymtab_end
000086dc g     O .text	0000000b __fsym_list_timer_name
0000503c g     F .text	00000014 USART_ClearITPendingBit
0000454a  w      .text	00000000 CAN2_RX0_IRQHandler
00004a5a g     F .text	0000000c DMA_ClearITPendingBit
00001916 g     F .text	00000052 rt_thread_yield
000078d8 g     F .text	000000e8 .hidden __extendsfdf2
00004522  w      .text	00000000 TIM8_UP_IRQHandler
00000648 g     F .text	00000028 rt_application_init
00004de0 g     F .text	0000001e RCC_APB1PeriphClockCmd
000044c0  w      .text	00000000 Ecall_M_Mode_Handler
000012c8 g     F .text	0000012c rt_malloc
2000f800 g       .stack	00000000 _heap_end
000009d6 g     F .text	00000040 rt_sem_release
00009aa4 g     O .text	0000000c __fsym_list_sem
00000504 g     F .text	00000016 .hidden __riscv_restore_5
00005c22 g     F .text	000000a2 __kernel_sinf
0000301e  w    F .text	0000000a rt_heap_begin_get
0000453c  w      .text	00000000 DMA2_Channel2_IRQHandler
000099fc g     O .text	0000000c __fsym_list
00004da4 g     F .text	0000001e RCC_AHBPeriphClockCmd
000044e6  w      .text	00000000 DMA1_Channel4_IRQHandler
00004684 g     F .text	000000b8 ADC_RegularChannelConfig
00001c80 g     F .text	00000010 sw_setpend
00003ec8 g     F .text	0000002a DMA_Interrupt_Init
20000080 g     O .data	000000c0 pin_irq_hdr_tab
000088a0 g     O .text	00000012 __fsym___cmd_list_thread_name
00008c40 g     O .text	00000008 __fsym_pinMode_name
00009ae0 g     O .text	0000000c __fsym___cmd_reboot
0000499c g     F .text	0000002e DMA_StructInit
00008778 g     O .text	00000018 __fsym_list_mailbox_desc
00001ac0 g     F .text	0000001e rt_timer_detach
00004560  w      .text	00000000 TIM9_UP_IRQHandler
000049f0 g     F .text	00000032 DMA_GetFlagStatus
000023aa g     F .text	00000004 msh_is_used
00000504 g     F .text	00000016 .hidden __riscv_restore_6
00004518  w      .text	00000000 USART3_IRQHandler
00004aee g     F .text	0000000a EXTI_ClearITPendingBit
00000600 g     F .text	0000001e rt_components_board_init
000044d0  w      .text	00000000 RTC_IRQHandler
0000892c g     O .text	00000011 __fsym_reboot_desc
00001136 g     F .text	0000003e rt_show_version
20001d1c g       .bss	00000000 _ebss
00005000 g     F .text	0000003c USART_GetITStatus
00009b40 g     O .text	00000004 __rt_init_rti_start
000044ec  w      .text	00000000 DMA1_Channel7_IRQHandler
00003032 g     F .text	00000076 rt_hw_board_init
00002fca g     F .text	00000054 rt_device_pin_register
00009ac8 g     O .text	0000000c __fsym___cmd_clear
20001cfc g     O .bss	00000020 osc
000044f4  w      .text	00000000 CAN1_RX1_IRQHandler
000019fc g     F .text	0000004c rt_thread_resume
00000670 g     F .text	00000028 rtthread_startup
000032a4 g     F .text	0000005a ch32_pin_dettach_irq
00004556  w      .text	00000000 DVP_IRQHandler
00004534  w      .text	00000000 UART5_IRQHandler
000053f0 g     F .text	00000140 __kernel_cosf
0000873c g     O .text	0000000e __fsym_list_msgqueue_name
00001b8e g     F .text	00000038 rt_timer_control
000014c2 g     F .text	0000002a rt_object_get_information
20000540 g     O .bss	00000080 rt_thread_priority_table
2000168c g     O .bss	00000058 serial1
00004506  w      .text	00000000 TIM4_IRQHandler
00008bd8 g     O .text	0000001e __fsym_pinRead_desc
00001cf6 g     F .text	00000016 clear
00006740 g     F .text	000000b6 .hidden __ledf2
20000198 g     O .bss	00000004 rt_object_put_hook
000004c2 g     F .text	00000028 .hidden __riscv_save_9
00004bc2 g     F .text	0000000a GPIO_WriteBit
00007e22 g     F .text	0000001e strcat
0000179a g     F .text	00000050 rt_thread_exit
0000453a  w      .text	00000000 DMA2_Channel1_IRQHandler
000087f0 g     O .text	00000015 __fsym___cmd_list_event_desc
000006ea g     F .text	00000034 rt_device_register
00000c96 g     F .text	00000048 rt_memmove
000004d0 g     F .text	0000001a .hidden __riscv_save_4
0000345a g     F .text	00000024 HAL_GPIO_EXTI_Callback
00001ce4 g     F .text	00000012 reboot
00004508  w      .text	00000000 I2C1_EV_IRQHandler
00009a50 g     O .text	0000000c __fsym___cmd_list_mailbox
00004c9e g     F .text	00000106 RCC_GetClocksFreq
00008c1c g     O .text	00000009 __fsym_pinWrite_name
000044ea  w      .text	00000000 DMA1_Channel6_IRQHandler
00007cde g     F .text	0000006e .hidden __clzsi2
00002124 g     F .text	000000b6 list_msgqueue
00004532  w      .text	00000000 UART4_IRQHandler
00004540  w      .text	00000000 DMA2_Channel4_IRQHandler
00004eee g     F .text	000000bc USART_Init
00004178 g     F .text	00000080 Timer_Init
00004504  w      .text	00000000 TIM3_IRQHandler
000044d4  w      .text	00000000 RCC_IRQHandler
00000d34 g     F .text	00000012 rt_strlen
000004ea g     F .text	0000000c .hidden __riscv_save_3
000044fe  w      .text	00000000 TIM1_TRG_COM_IRQHandler
00009aec g     O .text	0000000c __fsym_reboot
00009af8 g     O .text	0000000c __fsym___cmd_help
00003e28 g     F .text	000000a0 DMA1_Channel1_IRQHandler
200001a4 g     O .bss	00000001 rt_current_priority
00003194 g     F .text	0000007e ch32_pin_mode
00009a20 g     O .text	0000000c __fsym___cmd_list_timer
00000000 g       .init	00000000 _start
0000874c g     O .text	00000018 __fsym___cmd_list_mailbox_desc
00004570  w      .text	00000000 DMA2_Channel7_IRQHandler
00003ef2 g     F .text	000000a2 DACs_Init
00001f38 g     F .text	000000ac list_event
000037b6 g     F .text	000000d4 EXTI15_10_IRQHandler
00007e62 g     F .text	00000028 strncmp
00002f24 g     F .text	0000001a rt_pin_mode
00004fc0 g     F .text	00000036 USART_ITConfig
00009b34 g     O .text	0000000c __fsym_pinMode
00008648 g     O .text	00000016 __fsym___cmd_list_device_desc
000047dc g     F .text	0000001c DAC_SetDualChannelData
00004a66 g     F .text	0000006a EXTI_Init
00009a14 g     O .text	0000000c __fsym_list_device
00009a68 g     O .text	0000000c __fsym___cmd_list_mutex
00002f58 g     F .text	00000018 rt_pin_read
00008af4 g     O .text	0000000b __fsym___cmd_help_name
000005c8 g     F .text	00000028 rt_tick_increase
0000121a g     F .text	00000032 list_mem
00008b30 g     O .text	0000001b __fsym___cmd_ps_desc
00004ed6 g     F .text	00000018 TIM_SelectOutputTrigger
00004538  w      .text	00000000 TIM7_IRQHandler
000087cc g     O .text	00000015 __fsym_list_mutex_desc
00001b5e g     F .text	00000030 rt_timer_stop
00004548  w      .text	00000000 CAN2_TX_IRQHandler
00008b00 g     O .text	00000024 __fsym___cmd_free_desc
20000000 g       .dalign	00000000 _data_vma
00000d46 g     F .text	00000352 rt_vsnprintf
00009ab0 g     O .text	0000000c __fsym___cmd_list_thread
0000452e  w      .text	00000000 TIM5_IRQHandler
00007d4c g     F .text	00000024 memcmp
00003f94 g     F .text	00000096 DAC_DMA_Init
00003154 g     F .text	00000022 ch32_pin_write
000036ea g     F .text	000000cc EXTI9_5_IRQHandler
000088ec g     O .text	00000014 __fsym_clear_desc
00005ea0 g     F .text	000007ea .hidden __divdf3
00001c90 g     F .text	0000000e sw_clearpend
200001f0 g     O .bss	00000004 _syscall_table_begin
00003028  w    F .text	0000000a rt_heap_end_get
200019fc g     O .bss	00000300 dac_buffer
00004bcc g     F .text	0000002c GPIO_EXTILineConfig
000067f6 g     F .text	00000656 .hidden __muldf3
000004c2 g     F .text	00000028 .hidden __riscv_save_10
0000388a g     F .text	00000004 ch32dma_transmit
000026c0 g     F .text	0000003c finsh_get_prompt
00004546  w      .text	00000000 ETH_WKUP_IRQHandler
00000504 g     F .text	00000016 .hidden __riscv_restore_4
000004fa g     F .text	00000020 .hidden __riscv_restore_8
00005d84 g     F .text	00000100 scalbnf
00001174 g     F .text	0000004e __rt_ffs
000004d0 g     F .text	0000001a .hidden __riscv_save_6
00004ad0 g     F .text	0000001e EXTI_GetITStatus
00004512  w      .text	00000000 SPI2_IRQHandler
00002558 g     F .text	000000a2 msh_auto_complete
200001fc g     O .bss	00000004 _sysvar_table_end
00001756 g     F .text	00000016 rt_enter_critical
000019b2 g     F .text	00000040 rt_thread_sleep
0000051a g     F .text	000000a8 memset
200016fc g     O .bss	00000300 adc_buffer
000004fa g     F .text	00000020 .hidden __riscv_restore_9
00000504 g     F .text	00000016 .hidden __riscv_restore_7
00004230 g     F .text	00000194 main
00008adc g     O .text	00000015 __fsym___cmd_help_desc
00004566  w      .text	00000000 TIM10_BRK_IRQHandler
00000a42 g     F .text	0000002c rt_interrupt_leave
00004564  w      .text	00000000 TIM9_CC_IRQHandler
000086b0 g     O .text	00000011 __fsym___cmd_list_timer_name
00004542  w      .text	00000000 DMA2_Channel5_IRQHandler
00001c48 g     F .text	00000002 rt_system_timer_thread_init
000079c0 g     F .text	0000031e .hidden __truncdfsf2
00001898 g     F .text	00000032 rt_thread_init
00008698 g     O .text	00000015 __fsym___cmd_list_timer_desc
00009b40 g       .text	00000000 __vsymtab_start
000044e8  w      .text	00000000 DMA1_Channel5_IRQHandler
0000366e g     F .text	0000007c EXTI4_IRQHandler
00008840 g     O .text	00000019 __fsym___cmd_list_sem_desc
20000164 g     O .bss	00000001 rt_interrupt_nest
000044f2  w      .text	00000000 USB_LP_CAN1_RX0_IRQHandler
00008908 g     O .text	00000011 __fsym___cmd_reboot_desc
000087a0 g     O .text	00000015 __fsym___cmd_list_mutex_desc
000010cc  w    F .text	00000002 rt_hw_console_output
2000019c g     O .bss	00000004 rt_object_take_hook
0000226e g     F .text	0000009a list_timer
000086e8 g     O .text	0000001d __fsym___cmd_list_msgqueue_desc
000043c4 g     F .text	000000f8 SystemInit
00004528  w      .text	00000000 RNG_IRQHandler
00008b24 g     O .text	0000000b __fsym___cmd_free_name
00001c9e g     F .text	0000000c rt_hw_interrupt_disable
00001a48 g     F .text	0000002c rt_thread_startup
200001a8 g     O .bss	00000004 rt_current_thread
00001098 g     F .text	00000006 rt_console_get_device
00005e84 g     F .text	0000001c copysignf
000044f0  w      .text	00000000 USB_HP_CAN1_TX_IRQHandler
000098f0 g     O .text	00000100 .hidden __clz_tab
00000000 g       .init	00000000 _sinit
000087e4 g     O .text	0000000b __fsym_list_mutex_name
000044e4  w      .text	00000000 DMA1_Channel3_IRQHandler
200001bc g     O .bss	00000004 rt_thread_ready_priority_group
0000452a  w      .text	00000000 FSMC_IRQHandler
00004544  w      .text	00000000 ETH_IRQHandler
00009b04 g     O .text	0000000c __fsym___cmd_free
000044fc  w      .text	00000000 TIM1_UP_IRQHandler
00008764 g     O .text	00000013 __fsym___cmd_list_mailbox_name
00008660 g     O .text	00000012 __fsym___cmd_list_device_name
200001b4 g     O .bss	00000008 rt_thread_defunct
00009b50 g     O .text	00000004 __rt_init_rti_board_end
000044ca  w      .text	00000000 WWDG_IRQHandler
00009b28 g     O .text	0000000c __fsym_pinWrite
0000092e g     F .text	00000028 rt_sem_init
000002b8 g       .text	00000000 rt_hw_context_switch_exit
00004108 g     F .text	00000070 ADC_DMA_Init
00004552  w      .text	00000000 USBHSWakeup_IRQHandler
00000c0e g     F .text	00000088 rt_memset
00004578  w      .text	00000000 DMA2_Channel11_IRQHandler
000021da g     F .text	00000094 list_device
000044c2  w      .text	00000000 Ecall_U_Mode_Handler
00009a5c g     O .text	0000000c __fsym_list_mailbox
00000d0a g     F .text	0000002a rt_strncmp
00009a80 g     O .text	0000000c __fsym___cmd_list_event
000049de g     F .text	00000012 DMA_ITConfig
0000456e  w      .text	00000000 DMA2_Channel6_IRQHandler
00009b40 g       .text	00000000 __vsymtab_end
00008bf8 g     O .text	00000008 __fsym_pinRead_name
00008b4c g     O .text	00000009 __fsym___cmd_ps_name
00009a2c g     O .text	0000000c __fsym_list_timer
00004502  w      .text	00000000 TIM2_IRQHandler
20010000 g       .stack	00000000 _eusrstack
000050c4 g     F .text	00000078 sinf
0000154a g     F .text	0000002e rt_object_detach
000004ea g     F .text	0000000c .hidden __riscv_save_2
00009b4c g     O .text	00000004 __rt_init_rt_hw_usart_init
00000bf2 g     F .text	0000001c rt_set_errno
00001c3e g     F .text	0000000a rt_system_timer_init
000044fa  w      .text	00000000 TIM1_BRK_IRQHandler
00001714 g     F .text	00000042 rt_schedule_remove_thread
0000460c g     F .text	00000056 ADC_Init
00000a16 g     F .text	0000002c rt_interrupt_enter
00004576  w      .text	00000000 DMA2_Channel10_IRQHandler
000034fa g     F .text	0000007c EXTI1_IRQHandler
000047b0 g     F .text	0000002c DAC_DMACmd
00001caa g     F .text	00000006 rt_hw_interrupt_enable
000004d0 g     F .text	0000001a .hidden __riscv_save_5
000099f0 g     O .text	0000000c __fsym_list_mem
20000158 g       .data	00000000 _edata
00009a08 g     O .text	0000000c __fsym___cmd_list_device
20001d1c g       .bss	00000000 _end
00008708 g     O .text	00000014 __fsym___cmd_list_msgqueue_name
00004784 g     F .text	0000002c DAC_Cmd
0000176c g     F .text	0000002e rt_exit_critical
00004dfe g     F .text	000000aa TIM_TimeBaseInit
0000451c  w      .text	00000000 RTCAlarm_IRQHandler
00001fe4 g     F .text	00000082 list_mutex
000025fa g     F .text	0000000e cmd_ps
00009b5c g       .dlalign	00000000 _data_lma
0000272a g     F .text	0000007e finsh_set_device
00004568  w      .text	00000000 TIM10_UP_IRQHandler
00004562  w      .text	00000000 TIM9_TRG_COM_IRQHandler
0000455a  w      .text	00000000 UART7_IRQHandler
00004754 g     F .text	00000030 DAC_Init
00003134 g     F .text	00000020 get_pin
00004516  w      .text	00000000 USART2_IRQHandler
00004558  w      .text	00000000 UART6_IRQHandler
00000798 g     F .text	00000038 rt_device_close
000018ca g     F .text	00000006 rt_thread_self
00009b54 g     O .text	00000004 __rt_init_finsh_system_init
00008674 g     O .text	00000016 __fsym_list_device_desc
000088b4 g     O .text	0000000c __fsym_list_thread_desc
0000450e  w      .text	00000000 I2C2_ER_IRQHandler
000044e2  w      .text	00000000 DMA1_Channel2_IRQHandler
000015ce g     F .text	00000032 rt_object_delete
0000395c g     F .text	000000c4 rt_hw_usart_init
000005c2 g     F .text	00000006 rt_tick_get
000004f6 g     F .text	00000024 .hidden __riscv_restore_12
00004520  w      .text	00000000 TIM8_BRK_IRQHandler
00004a22 g     F .text	0000002c DMA_ClearFlag
00008834 g     O .text	0000000b __fsym_list_event_name
0000457a  w      .text	00000000 handle_reset
000044f6  w      .text	00000000 CAN1_SCE_IRQHandler
00009a8c g     O .text	0000000c __fsym_list_event
200001a0 g     O .bss	00000004 rt_object_trytake_hook
000044d2  w      .text	00000000 FLASH_IRQHandler
000004ea g     F .text	0000000c .hidden __riscv_save_0
00008808 g     O .text	00000011 __fsym___cmd_list_event_name
00005530 g     F .text	000006f2 __kernel_rem_pio2f
00008124 g     O .text	0000001e __fsym_list_mem_desc
00000956 g     F .text	00000080 rt_sem_take
00003ac0 g     F .text	0000009a USART1_IRQHandler
00009a98 g     O .text	0000000c __fsym___cmd_list_sem
00007e50 g     F .text	00000012 strlen
00004550  w      .text	00000000 OTG_FS_IRQHandler
00004530  w      .text	00000000 SPI3_IRQHandler
000086c4 g     O .text	00000015 __fsym_list_timer_desc
0000668a g     F .text	000000b6 .hidden __gedf2
0000109e g     F .text	0000002e rt_console_set_device
00003212 g     F .text	00000092 ch32_pin_attach_irq
0000450a  w      .text	00000000 I2C1_ER_IRQHandler
20000204 g     O .bss	00000004 full_count
00005cd2 g     F .text	000000b2 floorf
000047f8 g     F .text	0000016c DMA_DeInit
000041f8 g     F .text	00000038 set_freq
00009b44 g     O .text	00000004 __rt_init_rti_board_start
000007ec g     F .text	0000001c rt_device_write
000088c0 g     O .text	0000000c __fsym_list_thread_name
000099f0 g       .text	00000000 __fsymtab_start
0000050e g     F .text	0000000c .hidden __riscv_restore_1
00003118 g     F .text	0000001c rt_hw_pin_init
00006e4c g     F .text	00000a8c .hidden __subdf3
00009ad4 g     O .text	0000000c __fsym_clear
00001662 g     F .text	0000006a rt_schedule
000014ec g     F .text	0000005e rt_object_init
00003176 g     F .text	0000001e ch32_pin_read
00009b10 g     O .text	0000000c __fsym___cmd_ps
00004bb8 g     F .text	0000000a GPIO_ReadInputDataBit
00008c00 g     O .text	0000001c __fsym_pinWrite_desc
00001ade g     F .text	00000080 rt_timer_start
00002352 g     F .text	00000058 msh_help
00002e5e g     F .text	000000aa rt_hw_serial_isr
0000451e  w      .text	00000000 USBWakeUp_IRQHandler
0000021c g       .text	00000000 rt_hw_context_switch
00003d56 g     F .text	000000d2 DMA2_Channel3_IRQHandler
000032fe g     F .text	0000015c ch32_pin_irq_enable
0000868c g     O .text	0000000c __fsym_list_device_name
0000871c g     O .text	0000001d __fsym_list_msgqueue_desc
0000886c g     O .text	00000019 __fsym_list_sem_desc



Disassembly of section .init:

00000000 <_sinit>:
   0:	57a0406f          	j	457a <handle_reset>
   4:	00000013          	nop
   8:	00000013          	nop
   c:	00000013          	nop
  10:	00000013          	nop
  14:	00000013          	nop
  18:	00000013          	nop
  1c:	00000013          	nop
  20:	00000013          	nop
  24:	00000013          	nop
  28:	00000013          	nop
  2c:	00000013          	nop
  30:	00000013          	nop
  34:	00100073          	ebreak

Disassembly of section .vector:

00000038 <_vector_base>:
	...
  40:	3b5a                	lhu	a4,52(a4)
  42:	0000                	unimp
  44:	3bce                	lhu	a1,52(a5)
  46:	0000                	unimp
  48:	0000                	unimp
  4a:	0000                	unimp
  4c:	44c0                	lw	s0,12(s1)
	...
  56:	0000                	unimp
  58:	44c2                	lw	s1,16(sp)
  5a:	0000                	unimp
  5c:	44c4                	lw	s1,12(s1)
	...
  66:	0000                	unimp
  68:	5050                	lw	a2,36(s0)
  6a:	0000                	unimp
  6c:	0000                	unimp
  6e:	0000                	unimp
  70:	0354                	addi	a3,sp,388
  72:	0000                	unimp
  74:	0000                	unimp
  76:	0000                	unimp
  78:	44ca                	lw	s1,144(sp)
  7a:	0000                	unimp
  7c:	44cc                	lw	a1,12(s1)
  7e:	0000                	unimp
  80:	44ce                	lw	s1,208(sp)
  82:	0000                	unimp
  84:	44d0                	lw	a2,12(s1)
  86:	0000                	unimp
  88:	44d2                	lw	s1,20(sp)
  8a:	0000                	unimp
  8c:	44d4                	lw	a3,12(s1)
  8e:	0000                	unimp
  90:	347e                	lhu	a5,46(s0)
  92:	0000                	unimp
  94:	34fa                	lhu	a4,46(s1)
  96:	0000                	unimp
  98:	3576                	lhu	a3,46(a0)
  9a:	0000                	unimp
  9c:	35f2                	lhu	a2,46(a1)
  9e:	0000                	unimp
  a0:	366e                	lhu	a1,46(a2)
  a2:	0000                	unimp
  a4:	3e28                	lbu	a0,27(a2)
  a6:	0000                	unimp
  a8:	44e2                	lw	s1,24(sp)
  aa:	0000                	unimp
  ac:	44e4                	lw	s1,76(s1)
  ae:	0000                	unimp
  b0:	44e6                	lw	s1,88(sp)
  b2:	0000                	unimp
  b4:	44e8                	lw	a0,76(s1)
  b6:	0000                	unimp
  b8:	44ea                	lw	s1,152(sp)
  ba:	0000                	unimp
  bc:	44ec                	lw	a1,76(s1)
  be:	0000                	unimp
  c0:	44ee                	lw	s1,216(sp)
  c2:	0000                	unimp
  c4:	44f0                	lw	a2,76(s1)
  c6:	0000                	unimp
  c8:	44f2                	lw	s1,28(sp)
  ca:	0000                	unimp
  cc:	44f4                	lw	a3,76(s1)
  ce:	0000                	unimp
  d0:	44f6                	lw	s1,92(sp)
  d2:	0000                	unimp
  d4:	36ea                	lhu	a0,46(a3)
  d6:	0000                	unimp
  d8:	44fa                	lw	s1,156(sp)
  da:	0000                	unimp
  dc:	44fc                	lw	a5,76(s1)
  de:	0000                	unimp
  e0:	44fe                	lw	s1,220(sp)
  e2:	0000                	unimp
  e4:	4500                	lw	s0,8(a0)
  e6:	0000                	unimp
  e8:	4502                	lw	a0,0(sp)
  ea:	0000                	unimp
  ec:	4504                	lw	s1,8(a0)
  ee:	0000                	unimp
  f0:	4506                	lw	a0,64(sp)
  f2:	0000                	unimp
  f4:	4508                	lw	a0,8(a0)
  f6:	0000                	unimp
  f8:	450a                	lw	a0,128(sp)
  fa:	0000                	unimp
  fc:	450c                	lw	a1,8(a0)
  fe:	0000                	unimp
 100:	450e                	lw	a0,192(sp)
 102:	0000                	unimp
 104:	4510                	lw	a2,8(a0)
 106:	0000                	unimp
 108:	4512                	lw	a0,4(sp)
 10a:	0000                	unimp
 10c:	3ac0                	lbu	s0,21(a3)
 10e:	0000                	unimp
 110:	4516                	lw	a0,68(sp)
 112:	0000                	unimp
 114:	4518                	lw	a4,8(a0)
 116:	0000                	unimp
 118:	37b6                	lhu	a3,42(a5)
 11a:	0000                	unimp
 11c:	451c                	lw	a5,8(a0)
 11e:	0000                	unimp
 120:	451e                	lw	a0,196(sp)
 122:	0000                	unimp
 124:	4520                	lw	s0,72(a0)
 126:	0000                	unimp
 128:	4522                	lw	a0,8(sp)
 12a:	0000                	unimp
 12c:	4524                	lw	s1,72(a0)
 12e:	0000                	unimp
 130:	4526                	lw	a0,72(sp)
 132:	0000                	unimp
 134:	4528                	lw	a0,72(a0)
 136:	0000                	unimp
 138:	452a                	lw	a0,136(sp)
 13a:	0000                	unimp
 13c:	452c                	lw	a1,72(a0)
 13e:	0000                	unimp
 140:	452e                	lw	a0,200(sp)
 142:	0000                	unimp
 144:	4530                	lw	a2,72(a0)
 146:	0000                	unimp
 148:	4532                	lw	a0,12(sp)
 14a:	0000                	unimp
 14c:	4534                	lw	a3,72(a0)
 14e:	0000                	unimp
 150:	4536                	lw	a0,76(sp)
 152:	0000                	unimp
 154:	4538                	lw	a4,72(a0)
 156:	0000                	unimp
 158:	453a                	lw	a0,140(sp)
 15a:	0000                	unimp
 15c:	453c                	lw	a5,72(a0)
 15e:	0000                	unimp
 160:	3d56                	lhu	a3,60(a0)
 162:	0000                	unimp
 164:	4540                	lw	s0,12(a0)
 166:	0000                	unimp
 168:	4542                	lw	a0,16(sp)
 16a:	0000                	unimp
 16c:	4544                	lw	s1,12(a0)
 16e:	0000                	unimp
 170:	4546                	lw	a0,80(sp)
 172:	0000                	unimp
 174:	4548                	lw	a0,12(a0)
 176:	0000                	unimp
 178:	454a                	lw	a0,144(sp)
 17a:	0000                	unimp
 17c:	454c                	lw	a1,12(a0)
 17e:	0000                	unimp
 180:	454e                	lw	a0,208(sp)
 182:	0000                	unimp
 184:	4550                	lw	a2,12(a0)
 186:	0000                	unimp
 188:	4552                	lw	a0,20(sp)
 18a:	0000                	unimp
 18c:	4554                	lw	a3,12(a0)
 18e:	0000                	unimp
 190:	4556                	lw	a0,84(sp)
 192:	0000                	unimp
 194:	4558                	lw	a4,12(a0)
 196:	0000                	unimp
 198:	455a                	lw	a0,148(sp)
 19a:	0000                	unimp
 19c:	455c                	lw	a5,12(a0)
 19e:	0000                	unimp
 1a0:	455e                	lw	a0,212(sp)
 1a2:	0000                	unimp
 1a4:	4560                	lw	s0,76(a0)
 1a6:	0000                	unimp
 1a8:	4562                	lw	a0,24(sp)
 1aa:	0000                	unimp
 1ac:	4564                	lw	s1,76(a0)
 1ae:	0000                	unimp
 1b0:	4566                	lw	a0,88(sp)
 1b2:	0000                	unimp
 1b4:	4568                	lw	a0,76(a0)
 1b6:	0000                	unimp
 1b8:	456a                	lw	a0,152(sp)
 1ba:	0000                	unimp
 1bc:	456c                	lw	a1,76(a0)
 1be:	0000                	unimp
 1c0:	456e                	lw	a0,216(sp)
 1c2:	0000                	unimp
 1c4:	4570                	lw	a2,76(a0)
 1c6:	0000                	unimp
 1c8:	4572                	lw	a0,28(sp)
 1ca:	0000                	unimp
 1cc:	4574                	lw	a3,76(a0)
 1ce:	0000                	unimp
 1d0:	4576                	lw	a0,92(sp)
 1d2:	0000                	unimp
 1d4:	4578                	lw	a4,76(a0)
	...

Disassembly of section .text:

00000200 <rt_hw_context_switch_to>:
     200:	20010297          	auipc	t0,0x20010
     204:	e0028293          	addi	t0,t0,-512 # 20010000 <_eusrstack>
     208:	e0028293          	addi	t0,t0,-512
     20c:	34029073          	csrw	mscratch,t0
     210:	00052103          	lw	sp,0(a0)
     214:	4522                	lw	a0,8(sp)
     216:	30051073          	csrw	mstatus,a0
     21a:	a879                	j	2b8 <rt_hw_context_switch_exit>

0000021c <rt_hw_context_switch>:
     21c:	7119                	addi	sp,sp,-128
     21e:	e002                	fsw	ft0,0(sp)
     220:	e206                	fsw	ft1,4(sp)
     222:	e40a                	fsw	ft2,8(sp)
     224:	e60e                	fsw	ft3,12(sp)
     226:	e812                	fsw	ft4,16(sp)
     228:	ea16                	fsw	ft5,20(sp)
     22a:	ec1a                	fsw	ft6,24(sp)
     22c:	ee1e                	fsw	ft7,28(sp)
     22e:	f022                	fsw	fs0,32(sp)
     230:	f226                	fsw	fs1,36(sp)
     232:	f42a                	fsw	fa0,40(sp)
     234:	f62e                	fsw	fa1,44(sp)
     236:	f832                	fsw	fa2,48(sp)
     238:	fa36                	fsw	fa3,52(sp)
     23a:	fc3a                	fsw	fa4,56(sp)
     23c:	fe3e                	fsw	fa5,60(sp)
     23e:	e0c2                	fsw	fa6,64(sp)
     240:	e2c6                	fsw	fa7,68(sp)
     242:	e4ca                	fsw	fs2,72(sp)
     244:	e6ce                	fsw	fs3,76(sp)
     246:	e8d2                	fsw	fs4,80(sp)
     248:	ead6                	fsw	fs5,84(sp)
     24a:	ecda                	fsw	fs6,88(sp)
     24c:	eede                	fsw	fs7,92(sp)
     24e:	f0e2                	fsw	fs8,96(sp)
     250:	f2e6                	fsw	fs9,100(sp)
     252:	f4ea                	fsw	fs10,104(sp)
     254:	f6ee                	fsw	fs11,108(sp)
     256:	f8f2                	fsw	ft8,112(sp)
     258:	faf6                	fsw	ft9,116(sp)
     25a:	fcfa                	fsw	ft10,120(sp)
     25c:	fefe                	fsw	ft11,124(sp)
     25e:	7119                	addi	sp,sp,-128
     260:	00252023          	sw	sp,0(a0)
     264:	c006                	sw	ra,0(sp)
     266:	c206                	sw	ra,4(sp)
     268:	ca16                	sw	t0,20(sp)
     26a:	300022f3          	csrr	t0,mstatus
     26e:	0082f293          	andi	t0,t0,8
     272:	00028463          	beqz	t0,27a <rt_hw_context_switch+0x5e>
     276:	08000293          	li	t0,128
     27a:	c416                	sw	t0,8(sp)
     27c:	c812                	sw	tp,16(sp)
     27e:	cc1a                	sw	t1,24(sp)
     280:	ce1e                	sw	t2,28(sp)
     282:	d022                	sw	s0,32(sp)
     284:	d226                	sw	s1,36(sp)
     286:	d42a                	sw	a0,40(sp)
     288:	d62e                	sw	a1,44(sp)
     28a:	d832                	sw	a2,48(sp)
     28c:	da36                	sw	a3,52(sp)
     28e:	dc3a                	sw	a4,56(sp)
     290:	de3e                	sw	a5,60(sp)
     292:	c0c2                	sw	a6,64(sp)
     294:	c2c6                	sw	a7,68(sp)
     296:	c4ca                	sw	s2,72(sp)
     298:	c6ce                	sw	s3,76(sp)
     29a:	c8d2                	sw	s4,80(sp)
     29c:	cad6                	sw	s5,84(sp)
     29e:	ccda                	sw	s6,88(sp)
     2a0:	cede                	sw	s7,92(sp)
     2a2:	d0e2                	sw	s8,96(sp)
     2a4:	d2e6                	sw	s9,100(sp)
     2a6:	d4ea                	sw	s10,104(sp)
     2a8:	d6ee                	sw	s11,108(sp)
     2aa:	d8f2                	sw	t3,112(sp)
     2ac:	daf6                	sw	t4,116(sp)
     2ae:	dcfa                	sw	t5,120(sp)
     2b0:	defe                	sw	t6,124(sp)
     2b2:	0005a103          	lw	sp,0(a1)
     2b6:	a009                	j	2b8 <rt_hw_context_switch_exit>

000002b8 <rt_hw_context_switch_exit>:
     2b8:	4502                	lw	a0,0(sp)
     2ba:	34151073          	csrw	mepc,a0
     2be:	4092                	lw	ra,4(sp)
     2c0:	00008537          	lui	a0,0x8
     2c4:	80050513          	addi	a0,a0,-2048 # 7800 <__subdf3+0x9b4>
     2c8:	30052073          	csrs	mstatus,a0
     2cc:	4522                	lw	a0,8(sp)
     2ce:	30052073          	csrs	mstatus,a0
     2d2:	4242                	lw	tp,16(sp)
     2d4:	42d2                	lw	t0,20(sp)
     2d6:	4362                	lw	t1,24(sp)
     2d8:	43f2                	lw	t2,28(sp)
     2da:	5402                	lw	s0,32(sp)
     2dc:	5492                	lw	s1,36(sp)
     2de:	5522                	lw	a0,40(sp)
     2e0:	55b2                	lw	a1,44(sp)
     2e2:	5642                	lw	a2,48(sp)
     2e4:	56d2                	lw	a3,52(sp)
     2e6:	5762                	lw	a4,56(sp)
     2e8:	57f2                	lw	a5,60(sp)
     2ea:	4806                	lw	a6,64(sp)
     2ec:	4896                	lw	a7,68(sp)
     2ee:	4926                	lw	s2,72(sp)
     2f0:	49b6                	lw	s3,76(sp)
     2f2:	4a46                	lw	s4,80(sp)
     2f4:	4ad6                	lw	s5,84(sp)
     2f6:	4b66                	lw	s6,88(sp)
     2f8:	4bf6                	lw	s7,92(sp)
     2fa:	5c06                	lw	s8,96(sp)
     2fc:	5c96                	lw	s9,100(sp)
     2fe:	5d26                	lw	s10,104(sp)
     300:	5db6                	lw	s11,108(sp)
     302:	5e46                	lw	t3,112(sp)
     304:	5ed6                	lw	t4,116(sp)
     306:	5f66                	lw	t5,120(sp)
     308:	5ff6                	lw	t6,124(sp)
     30a:	6109                	addi	sp,sp,128
     30c:	6002                	flw	ft0,0(sp)
     30e:	6092                	flw	ft1,4(sp)
     310:	6122                	flw	ft2,8(sp)
     312:	61b2                	flw	ft3,12(sp)
     314:	6242                	flw	ft4,16(sp)
     316:	62d2                	flw	ft5,20(sp)
     318:	6362                	flw	ft6,24(sp)
     31a:	63f2                	flw	ft7,28(sp)
     31c:	7402                	flw	fs0,32(sp)
     31e:	7492                	flw	fs1,36(sp)
     320:	7522                	flw	fa0,40(sp)
     322:	75b2                	flw	fa1,44(sp)
     324:	7642                	flw	fa2,48(sp)
     326:	76d2                	flw	fa3,52(sp)
     328:	7762                	flw	fa4,56(sp)
     32a:	77f2                	flw	fa5,60(sp)
     32c:	6806                	flw	fa6,64(sp)
     32e:	6896                	flw	fa7,68(sp)
     330:	6926                	flw	fs2,72(sp)
     332:	69b6                	flw	fs3,76(sp)
     334:	6a46                	flw	fs4,80(sp)
     336:	6ad6                	flw	fs5,84(sp)
     338:	6b66                	flw	fs6,88(sp)
     33a:	6bf6                	flw	fs7,92(sp)
     33c:	7c06                	flw	fs8,96(sp)
     33e:	7c96                	flw	fs9,100(sp)
     340:	7d26                	flw	fs10,104(sp)
     342:	7db6                	flw	fs11,108(sp)
     344:	7e46                	flw	ft8,112(sp)
     346:	7ed6                	flw	ft9,116(sp)
     348:	7f66                	flw	ft10,120(sp)
     34a:	7ff6                	flw	ft11,124(sp)
     34c:	6109                	addi	sp,sp,128
     34e:	30200073          	mret
	...

00000354 <SW_handler>:
     354:	7119                	addi	sp,sp,-128
     356:	e002                	fsw	ft0,0(sp)
     358:	e206                	fsw	ft1,4(sp)
     35a:	e40a                	fsw	ft2,8(sp)
     35c:	e60e                	fsw	ft3,12(sp)
     35e:	e812                	fsw	ft4,16(sp)
     360:	ea16                	fsw	ft5,20(sp)
     362:	ec1a                	fsw	ft6,24(sp)
     364:	ee1e                	fsw	ft7,28(sp)
     366:	f022                	fsw	fs0,32(sp)
     368:	f226                	fsw	fs1,36(sp)
     36a:	f42a                	fsw	fa0,40(sp)
     36c:	f62e                	fsw	fa1,44(sp)
     36e:	f832                	fsw	fa2,48(sp)
     370:	fa36                	fsw	fa3,52(sp)
     372:	fc3a                	fsw	fa4,56(sp)
     374:	fe3e                	fsw	fa5,60(sp)
     376:	e0c2                	fsw	fa6,64(sp)
     378:	e2c6                	fsw	fa7,68(sp)
     37a:	e4ca                	fsw	fs2,72(sp)
     37c:	e6ce                	fsw	fs3,76(sp)
     37e:	e8d2                	fsw	fs4,80(sp)
     380:	ead6                	fsw	fs5,84(sp)
     382:	ecda                	fsw	fs6,88(sp)
     384:	eede                	fsw	fs7,92(sp)
     386:	f0e2                	fsw	fs8,96(sp)
     388:	f2e6                	fsw	fs9,100(sp)
     38a:	f4ea                	fsw	fs10,104(sp)
     38c:	f6ee                	fsw	fs11,108(sp)
     38e:	f8f2                	fsw	ft8,112(sp)
     390:	faf6                	fsw	ft9,116(sp)
     392:	fcfa                	fsw	ft10,120(sp)
     394:	fefe                	fsw	ft11,124(sp)
     396:	7119                	addi	sp,sp,-128
     398:	ca16                	sw	t0,20(sp)
     39a:	08000293          	li	t0,128
     39e:	c416                	sw	t0,8(sp)
     3a0:	02000293          	li	t0,32
     3a4:	8042a073          	csrs	0x804,t0
     3a8:	c206                	sw	ra,4(sp)
     3aa:	c812                	sw	tp,16(sp)
     3ac:	cc1a                	sw	t1,24(sp)
     3ae:	ce1e                	sw	t2,28(sp)
     3b0:	d022                	sw	s0,32(sp)
     3b2:	d226                	sw	s1,36(sp)
     3b4:	d42a                	sw	a0,40(sp)
     3b6:	d62e                	sw	a1,44(sp)
     3b8:	d832                	sw	a2,48(sp)
     3ba:	da36                	sw	a3,52(sp)
     3bc:	dc3a                	sw	a4,56(sp)
     3be:	de3e                	sw	a5,60(sp)
     3c0:	c0c2                	sw	a6,64(sp)
     3c2:	c2c6                	sw	a7,68(sp)
     3c4:	c4ca                	sw	s2,72(sp)
     3c6:	c6ce                	sw	s3,76(sp)
     3c8:	c8d2                	sw	s4,80(sp)
     3ca:	cad6                	sw	s5,84(sp)
     3cc:	ccda                	sw	s6,88(sp)
     3ce:	cede                	sw	s7,92(sp)
     3d0:	d0e2                	sw	s8,96(sp)
     3d2:	d2e6                	sw	s9,100(sp)
     3d4:	d4ea                	sw	s10,104(sp)
     3d6:	d6ee                	sw	s11,108(sp)
     3d8:	d8f2                	sw	t3,112(sp)
     3da:	daf6                	sw	t4,116(sp)
     3dc:	dcfa                	sw	t5,120(sp)
     3de:	defe                	sw	t6,124(sp)
     3e0:	34011173          	csrrw	sp,mscratch,sp
     3e4:	632000ef          	jal	ra,a16 <rt_interrupt_enter>
     3e8:	0a9010ef          	jal	ra,1c90 <sw_clearpend>
     3ec:	656000ef          	jal	ra,a42 <rt_interrupt_leave>
     3f0:	34011173          	csrrw	sp,mscratch,sp
     3f4:	89818413          	addi	s0,gp,-1896 # 200001e8 <rt_thread_switch_interrupt_flag>
     3f8:	00042903          	lw	s2,0(s0)
     3fc:	02090463          	beqz	s2,424 <SW_handler+0xd0>
     400:	00042023          	sw	zero,0(s0)
     404:	34102573          	csrr	a0,mepc
     408:	c02a                	sw	a0,0(sp)
     40a:	89018413          	addi	s0,gp,-1904 # 200001e0 <rt_interrupt_from_thread>
     40e:	4004                	lw	s1,0(s0)
     410:	0024a023          	sw	sp,0(s1)
     414:	89418413          	addi	s0,gp,-1900 # 200001e4 <rt_interrupt_to_thread>
     418:	4004                	lw	s1,0(s0)
     41a:	0004a103          	lw	sp,0(s1)
     41e:	4502                	lw	a0,0(sp)
     420:	34151073          	csrw	mepc,a0
     424:	4092                	lw	ra,4(sp)
     426:	000082b7          	lui	t0,0x8
     42a:	80028293          	addi	t0,t0,-2048 # 7800 <__subdf3+0x9b4>
     42e:	3002a073          	csrs	mstatus,t0
     432:	42a2                	lw	t0,8(sp)
     434:	3002a073          	csrs	mstatus,t0
     438:	4242                	lw	tp,16(sp)
     43a:	42d2                	lw	t0,20(sp)
     43c:	4362                	lw	t1,24(sp)
     43e:	43f2                	lw	t2,28(sp)
     440:	5402                	lw	s0,32(sp)
     442:	5492                	lw	s1,36(sp)
     444:	5522                	lw	a0,40(sp)
     446:	55b2                	lw	a1,44(sp)
     448:	5642                	lw	a2,48(sp)
     44a:	56d2                	lw	a3,52(sp)
     44c:	5762                	lw	a4,56(sp)
     44e:	57f2                	lw	a5,60(sp)
     450:	4806                	lw	a6,64(sp)
     452:	4896                	lw	a7,68(sp)
     454:	4926                	lw	s2,72(sp)
     456:	49b6                	lw	s3,76(sp)
     458:	4a46                	lw	s4,80(sp)
     45a:	4ad6                	lw	s5,84(sp)
     45c:	4b66                	lw	s6,88(sp)
     45e:	4bf6                	lw	s7,92(sp)
     460:	5c06                	lw	s8,96(sp)
     462:	5c96                	lw	s9,100(sp)
     464:	5d26                	lw	s10,104(sp)
     466:	5db6                	lw	s11,108(sp)
     468:	5e46                	lw	t3,112(sp)
     46a:	5ed6                	lw	t4,116(sp)
     46c:	5f66                	lw	t5,120(sp)
     46e:	5ff6                	lw	t6,124(sp)
     470:	6109                	addi	sp,sp,128
     472:	6002                	flw	ft0,0(sp)
     474:	6092                	flw	ft1,4(sp)
     476:	6122                	flw	ft2,8(sp)
     478:	61b2                	flw	ft3,12(sp)
     47a:	6242                	flw	ft4,16(sp)
     47c:	62d2                	flw	ft5,20(sp)
     47e:	6362                	flw	ft6,24(sp)
     480:	63f2                	flw	ft7,28(sp)
     482:	7402                	flw	fs0,32(sp)
     484:	7492                	flw	fs1,36(sp)
     486:	7522                	flw	fa0,40(sp)
     488:	75b2                	flw	fa1,44(sp)
     48a:	7642                	flw	fa2,48(sp)
     48c:	76d2                	flw	fa3,52(sp)
     48e:	7762                	flw	fa4,56(sp)
     490:	77f2                	flw	fa5,60(sp)
     492:	6806                	flw	fa6,64(sp)
     494:	6896                	flw	fa7,68(sp)
     496:	6926                	flw	fs2,72(sp)
     498:	69b6                	flw	fs3,76(sp)
     49a:	6a46                	flw	fs4,80(sp)
     49c:	6ad6                	flw	fs5,84(sp)
     49e:	6b66                	flw	fs6,88(sp)
     4a0:	6bf6                	flw	fs7,92(sp)
     4a2:	7c06                	flw	fs8,96(sp)
     4a4:	7c96                	flw	fs9,100(sp)
     4a6:	7d26                	flw	fs10,104(sp)
     4a8:	7db6                	flw	fs11,108(sp)
     4aa:	7e46                	flw	ft8,112(sp)
     4ac:	7ed6                	flw	ft9,116(sp)
     4ae:	7f66                	flw	ft10,120(sp)
     4b0:	7ff6                	flw	ft11,124(sp)
     4b2:	6109                	addi	sp,sp,128
     4b4:	30200073          	mret
	...

000004ba <__riscv_save_12>:
     4ba:	7139                	addi	sp,sp,-64
     4bc:	4301                	li	t1,0
     4be:	c66e                	sw	s11,12(sp)
     4c0:	a019                	j	4c6 <__riscv_save_10+0x4>

000004c2 <__riscv_save_10>:
     4c2:	7139                	addi	sp,sp,-64
     4c4:	5341                	li	t1,-16
     4c6:	c86a                	sw	s10,16(sp)
     4c8:	ca66                	sw	s9,20(sp)
     4ca:	cc62                	sw	s8,24(sp)
     4cc:	ce5e                	sw	s7,28(sp)
     4ce:	a019                	j	4d4 <__riscv_save_4+0x4>

000004d0 <__riscv_save_4>:
     4d0:	7139                	addi	sp,sp,-64
     4d2:	5301                	li	t1,-32
     4d4:	d05a                	sw	s6,32(sp)
     4d6:	d256                	sw	s5,36(sp)
     4d8:	d452                	sw	s4,40(sp)
     4da:	d64e                	sw	s3,44(sp)
     4dc:	d84a                	sw	s2,48(sp)
     4de:	da26                	sw	s1,52(sp)
     4e0:	dc22                	sw	s0,56(sp)
     4e2:	de06                	sw	ra,60(sp)
     4e4:	40610133          	sub	sp,sp,t1
     4e8:	8282                	jr	t0

000004ea <__riscv_save_0>:
     4ea:	1141                	addi	sp,sp,-16
     4ec:	c04a                	sw	s2,0(sp)
     4ee:	c226                	sw	s1,4(sp)
     4f0:	c422                	sw	s0,8(sp)
     4f2:	c606                	sw	ra,12(sp)
     4f4:	8282                	jr	t0

000004f6 <__riscv_restore_12>:
     4f6:	4db2                	lw	s11,12(sp)
     4f8:	0141                	addi	sp,sp,16

000004fa <__riscv_restore_10>:
     4fa:	4d02                	lw	s10,0(sp)
     4fc:	4c92                	lw	s9,4(sp)
     4fe:	4c22                	lw	s8,8(sp)
     500:	4bb2                	lw	s7,12(sp)
     502:	0141                	addi	sp,sp,16

00000504 <__riscv_restore_4>:
     504:	4b02                	lw	s6,0(sp)
     506:	4a92                	lw	s5,4(sp)
     508:	4a22                	lw	s4,8(sp)
     50a:	49b2                	lw	s3,12(sp)
     50c:	0141                	addi	sp,sp,16

0000050e <__riscv_restore_0>:
     50e:	4902                	lw	s2,0(sp)
     510:	4492                	lw	s1,4(sp)
     512:	4422                	lw	s0,8(sp)
     514:	40b2                	lw	ra,12(sp)
     516:	0141                	addi	sp,sp,16
     518:	8082                	ret

0000051a <memset>:
     51a:	433d                	li	t1,15
     51c:	872a                	mv	a4,a0
     51e:	02c37363          	bgeu	t1,a2,544 <memset+0x2a>
     522:	00f77793          	andi	a5,a4,15
     526:	efbd                	bnez	a5,5a4 <memset+0x8a>
     528:	e5ad                	bnez	a1,592 <memset+0x78>
     52a:	ff067693          	andi	a3,a2,-16
     52e:	8a3d                	andi	a2,a2,15
     530:	96ba                	add	a3,a3,a4
     532:	c30c                	sw	a1,0(a4)
     534:	c34c                	sw	a1,4(a4)
     536:	c70c                	sw	a1,8(a4)
     538:	c74c                	sw	a1,12(a4)
     53a:	0741                	addi	a4,a4,16
     53c:	fed76be3          	bltu	a4,a3,532 <memset+0x18>
     540:	e211                	bnez	a2,544 <memset+0x2a>
     542:	8082                	ret
     544:	40c306b3          	sub	a3,t1,a2
     548:	068a                	slli	a3,a3,0x2
     54a:	00000297          	auipc	t0,0x0
     54e:	9696                	add	a3,a3,t0
     550:	00a68067          	jr	10(a3)
     554:	00b70723          	sb	a1,14(a4)
     558:	00b706a3          	sb	a1,13(a4)
     55c:	00b70623          	sb	a1,12(a4)
     560:	00b705a3          	sb	a1,11(a4)
     564:	00b70523          	sb	a1,10(a4)
     568:	00b704a3          	sb	a1,9(a4)
     56c:	00b70423          	sb	a1,8(a4)
     570:	00b703a3          	sb	a1,7(a4)
     574:	00b70323          	sb	a1,6(a4)
     578:	00b702a3          	sb	a1,5(a4)
     57c:	00b70223          	sb	a1,4(a4)
     580:	00b701a3          	sb	a1,3(a4)
     584:	00b70123          	sb	a1,2(a4)
     588:	00b700a3          	sb	a1,1(a4)
     58c:	00b70023          	sb	a1,0(a4)
     590:	8082                	ret
     592:	0ff5f593          	andi	a1,a1,255
     596:	00859693          	slli	a3,a1,0x8
     59a:	8dd5                	or	a1,a1,a3
     59c:	01059693          	slli	a3,a1,0x10
     5a0:	8dd5                	or	a1,a1,a3
     5a2:	b761                	j	52a <memset+0x10>
     5a4:	00279693          	slli	a3,a5,0x2
     5a8:	00000297          	auipc	t0,0x0
     5ac:	9696                	add	a3,a3,t0
     5ae:	8286                	mv	t0,ra
     5b0:	fa8680e7          	jalr	-88(a3)
     5b4:	8096                	mv	ra,t0
     5b6:	17c1                	addi	a5,a5,-16
     5b8:	8f1d                	sub	a4,a4,a5
     5ba:	963e                	add	a2,a2,a5
     5bc:	f8c374e3          	bgeu	t1,a2,544 <memset+0x2a>
     5c0:	b7a5                	j	528 <memset+0xe>

000005c2 <rt_tick_get>:
     5c2:	8081a503          	lw	a0,-2040(gp) # 20000158 <_edata>
     5c6:	8082                	ret

000005c8 <rt_tick_increase>:
     5c8:	f23ff2ef          	jal	t0,4ea <__riscv_save_0>
     5cc:	80818793          	addi	a5,gp,-2040 # 20000158 <_edata>
     5d0:	4398                	lw	a4,0(a5)
     5d2:	0705                	addi	a4,a4,1
     5d4:	c398                	sw	a4,0(a5)
     5d6:	2f4010ef          	jal	ra,18ca <rt_thread_self>
     5da:	453c                	lw	a5,72(a0)
     5dc:	17fd                	addi	a5,a5,-1
     5de:	c53c                	sw	a5,72(a0)
     5e0:	e789                	bnez	a5,5ea <rt_tick_increase+0x22>
     5e2:	417c                	lw	a5,68(a0)
     5e4:	c53c                	sw	a5,72(a0)
     5e6:	330010ef          	jal	ra,1916 <rt_thread_yield>
     5ea:	5dc010ef          	jal	ra,1bc6 <rt_timer_check>
     5ee:	b705                	j	50e <__riscv_restore_0>

000005f0 <rti_start>:
     5f0:	4501                	li	a0,0
     5f2:	8082                	ret

000005f4 <rti_end>:
     5f4:	4501                	li	a0,0
     5f6:	8082                	ret

000005f8 <rti_board_start>:
     5f8:	4501                	li	a0,0
     5fa:	8082                	ret

000005fc <rti_board_end>:
     5fc:	4501                	li	a0,0
     5fe:	8082                	ret

00000600 <rt_components_board_init>:
     600:	eebff2ef          	jal	t0,4ea <__riscv_save_0>
     604:	6429                	lui	s0,0xa
     606:	64a9                	lui	s1,0xa
     608:	b4440413          	addi	s0,s0,-1212 # 9b44 <__rt_init_rti_board_start>
     60c:	b5048493          	addi	s1,s1,-1200 # 9b50 <__rt_init_rti_board_end>
     610:	00946363          	bltu	s0,s1,616 <rt_components_board_init+0x16>
     614:	bded                	j	50e <__riscv_restore_0>
     616:	401c                	lw	a5,0(s0)
     618:	0411                	addi	s0,s0,4
     61a:	9782                	jalr	a5
     61c:	bfd5                	j	610 <rt_components_board_init+0x10>

0000061e <rt_components_init>:
     61e:	ecdff2ef          	jal	t0,4ea <__riscv_save_0>
     622:	6429                	lui	s0,0xa
     624:	64a9                	lui	s1,0xa
     626:	b5040413          	addi	s0,s0,-1200 # 9b50 <__rt_init_rti_board_end>
     62a:	b5848493          	addi	s1,s1,-1192 # 9b58 <__rt_init_rti_end>
     62e:	00946363          	bltu	s0,s1,634 <rt_components_init+0x16>
     632:	bdf1                	j	50e <__riscv_restore_0>
     634:	401c                	lw	a5,0(s0)
     636:	0411                	addi	s0,s0,4
     638:	9782                	jalr	a5
     63a:	bfd5                	j	62e <rt_components_init+0x10>

0000063c <main_thread_entry>:
     63c:	eafff2ef          	jal	t0,4ea <__riscv_save_0>
     640:	3ff9                	jal	61e <rt_components_init>
     642:	3ef030ef          	jal	ra,4230 <main>
     646:	b5e1                	j	50e <__riscv_restore_0>

00000648 <rt_application_init>:
     648:	ea3ff2ef          	jal	t0,4ea <__riscv_save_0>
     64c:	000005b7          	lui	a1,0x0
     650:	00008537          	lui	a0,0x8
     654:	47d1                	li	a5,20
     656:	4715                	li	a4,5
     658:	20000693          	li	a3,512
     65c:	4601                	li	a2,0
     65e:	63c58593          	addi	a1,a1,1596 # 63c <main_thread_entry>
     662:	edc50513          	addi	a0,a0,-292 # 7edc <strncmp+0x7a>
     666:	26a010ef          	jal	ra,18d0 <rt_thread_create>
     66a:	3de010ef          	jal	ra,1a48 <rt_thread_startup>
     66e:	b545                	j	50e <__riscv_restore_0>

00000670 <rtthread_startup>:
     670:	e7bff2ef          	jal	t0,4ea <__riscv_save_0>
     674:	62a010ef          	jal	ra,1c9e <rt_hw_interrupt_disable>
     678:	1bb020ef          	jal	ra,3032 <rt_hw_board_init>
     67c:	2bb000ef          	jal	ra,1136 <rt_show_version>
     680:	5be010ef          	jal	ra,1c3e <rt_system_timer_init>
     684:	785000ef          	jal	ra,1608 <rt_system_scheduler_init>
     688:	37c1                	jal	648 <rt_application_init>
     68a:	5be010ef          	jal	ra,1c48 <rt_system_timer_thread_init>
     68e:	2c01                	jal	89e <rt_thread_idle_init>
     690:	7a7000ef          	jal	ra,1636 <rt_system_scheduler_start>
     694:	4501                	li	a0,0
     696:	bda5                	j	50e <__riscv_restore_0>

00000698 <entry>:
     698:	e53ff2ef          	jal	t0,4ea <__riscv_save_0>
     69c:	3fd1                	jal	670 <rtthread_startup>
     69e:	4501                	li	a0,0
     6a0:	b5bd                	j	50e <__riscv_restore_0>

000006a2 <rt_device_find>:
     6a2:	e2fff2ef          	jal	t0,4d0 <__riscv_save_4>
     6a6:	89aa                	mv	s3,a0
     6a8:	222010ef          	jal	ra,18ca <rt_thread_self>
     6ac:	c119                	beqz	a0,6b2 <rt_device_find+0x10>
     6ae:	0a8010ef          	jal	ra,1756 <rt_enter_critical>
     6b2:	4525                	li	a0,9
     6b4:	60f000ef          	jal	ra,14c2 <rt_object_get_information>
     6b8:	4144                	lw	s1,4(a0)
     6ba:	00450413          	addi	s0,a0,4
     6be:	00849663          	bne	s1,s0,6ca <rt_device_find+0x28>
     6c2:	208010ef          	jal	ra,18ca <rt_thread_self>
     6c6:	4901                	li	s2,0
     6c8:	a811                	j	6dc <rt_device_find+0x3a>
     6ca:	ff448913          	addi	s2,s1,-12
     6ce:	4621                	li	a2,8
     6d0:	85ce                	mv	a1,s3
     6d2:	854a                	mv	a0,s2
     6d4:	2d1d                	jal	d0a <rt_strncmp>
     6d6:	e901                	bnez	a0,6e6 <rt_device_find+0x44>
     6d8:	1f2010ef          	jal	ra,18ca <rt_thread_self>
     6dc:	c119                	beqz	a0,6e2 <rt_device_find+0x40>
     6de:	08e010ef          	jal	ra,176c <rt_exit_critical>
     6e2:	854a                	mv	a0,s2
     6e4:	b505                	j	504 <__riscv_restore_4>
     6e6:	4084                	lw	s1,0(s1)
     6e8:	bfd9                	j	6be <rt_device_find+0x1c>

000006ea <rt_device_register>:
     6ea:	e509                	bnez	a0,6f4 <rt_device_register+0xa>
     6ec:	557d                	li	a0,-1
     6ee:	8082                	ret
     6f0:	557d                	li	a0,-1
     6f2:	bd31                	j	50e <__riscv_restore_0>
     6f4:	df7ff2ef          	jal	t0,4ea <__riscv_save_0>
     6f8:	842a                	mv	s0,a0
     6fa:	852e                	mv	a0,a1
     6fc:	8932                	mv	s2,a2
     6fe:	84ae                	mv	s1,a1
     700:	374d                	jal	6a2 <rt_device_find>
     702:	f57d                	bnez	a0,6f0 <rt_device_register+0x6>
     704:	8522                	mv	a0,s0
     706:	8626                	mv	a2,s1
     708:	45a5                	li	a1,9
     70a:	5e3000ef          	jal	ra,14ec <rt_object_init>
     70e:	4501                	li	a0,0
     710:	01241c23          	sh	s2,24(s0)
     714:	00040e23          	sb	zero,28(s0)
     718:	00041d23          	sh	zero,26(s0)
     71c:	bfd9                	j	6f2 <rt_device_register+0x8>

0000071e <rt_device_open>:
     71e:	dcdff2ef          	jal	t0,4ea <__riscv_save_0>
     722:	2d1e                	lhu	a5,24(a0)
     724:	1141                	addi	sp,sp,-16
     726:	842a                	mv	s0,a0
     728:	8bc1                	andi	a5,a5,16
     72a:	e79d                	bnez	a5,758 <rt_device_open+0x3a>
     72c:	551c                	lw	a5,40(a0)
     72e:	c38d                	beqz	a5,750 <rt_device_open+0x32>
     730:	c62e                	sw	a1,12(sp)
     732:	9782                	jalr	a5
     734:	84aa                	mv	s1,a0
     736:	45b2                	lw	a1,12(sp)
     738:	cd01                	beqz	a0,750 <rt_device_open+0x32>
     73a:	862a                	mv	a2,a0
     73c:	00008537          	lui	a0,0x8
     740:	85a2                	mv	a1,s0
     742:	ee450513          	addi	a0,a0,-284 # 7ee4 <strncmp+0x82>
     746:	189000ef          	jal	ra,10ce <rt_kprintf>
     74a:	8526                	mv	a0,s1
     74c:	0141                	addi	sp,sp,16
     74e:	b3c1                	j	50e <__riscv_restore_0>
     750:	2c1e                	lhu	a5,24(s0)
     752:	0107e793          	ori	a5,a5,16
     756:	ac1e                	sh	a5,24(s0)
     758:	2c1e                	lhu	a5,24(s0)
     75a:	8ba1                	andi	a5,a5,8
     75c:	c789                	beqz	a5,766 <rt_device_open+0x48>
     75e:	2c3e                	lhu	a5,26(s0)
     760:	54e5                	li	s1,-7
     762:	8ba1                	andi	a5,a5,8
     764:	f3fd                	bnez	a5,74a <rt_device_open+0x2c>
     766:	545c                	lw	a5,44(s0)
     768:	cf89                	beqz	a5,782 <rt_device_open+0x64>
     76a:	8522                	mv	a0,s0
     76c:	9782                	jalr	a5
     76e:	84aa                	mv	s1,a0
     770:	e105                	bnez	a0,790 <rt_device_open+0x72>
     772:	2c3e                	lhu	a5,26(s0)
     774:	0087e793          	ori	a5,a5,8
     778:	ac3e                	sh	a5,26(s0)
     77a:	2c5c                	lbu	a5,28(s0)
     77c:	0785                	addi	a5,a5,1
     77e:	ac5c                	sb	a5,28(s0)
     780:	b7e9                	j	74a <rt_device_open+0x2c>
     782:	6785                	lui	a5,0x1
     784:	f0f78793          	addi	a5,a5,-241 # f0f <rt_vsnprintf+0x1c9>
     788:	8dfd                	and	a1,a1,a5
     78a:	ac2e                	sh	a1,26(s0)
     78c:	4481                	li	s1,0
     78e:	b7d5                	j	772 <rt_device_open+0x54>
     790:	57e9                	li	a5,-6
     792:	faf51ce3          	bne	a0,a5,74a <rt_device_open+0x2c>
     796:	bff1                	j	772 <rt_device_open+0x54>

00000798 <rt_device_close>:
     798:	2d5c                	lbu	a5,28(a0)
     79a:	cb85                	beqz	a5,7ca <rt_device_close+0x32>
     79c:	d4fff2ef          	jal	t0,4ea <__riscv_save_0>
     7a0:	17fd                	addi	a5,a5,-1
     7a2:	0ff7f793          	andi	a5,a5,255
     7a6:	ad5c                	sb	a5,28(a0)
     7a8:	842a                	mv	s0,a0
     7aa:	4701                	li	a4,0
     7ac:	ef89                	bnez	a5,7c6 <rt_device_close+0x2e>
     7ae:	591c                	lw	a5,48(a0)
     7b0:	e789                	bnez	a5,7ba <rt_device_close+0x22>
     7b2:	4701                	li	a4,0
     7b4:	00041d23          	sh	zero,26(s0)
     7b8:	a039                	j	7c6 <rt_device_close+0x2e>
     7ba:	9782                	jalr	a5
     7bc:	872a                	mv	a4,a0
     7be:	d975                	beqz	a0,7b2 <rt_device_close+0x1a>
     7c0:	57e9                	li	a5,-6
     7c2:	fef509e3          	beq	a0,a5,7b4 <rt_device_close+0x1c>
     7c6:	853a                	mv	a0,a4
     7c8:	b399                	j	50e <__riscv_restore_0>
     7ca:	577d                	li	a4,-1
     7cc:	853a                	mv	a0,a4
     7ce:	8082                	ret

000007d0 <rt_device_read>:
     7d0:	d1bff2ef          	jal	t0,4ea <__riscv_save_0>
     7d4:	2d58                	lbu	a4,28(a0)
     7d6:	e709                	bnez	a4,7e0 <rt_device_read+0x10>
     7d8:	557d                	li	a0,-1
     7da:	2921                	jal	bf2 <rt_set_errno>
     7dc:	4501                	li	a0,0
     7de:	a021                	j	7e6 <rt_device_read+0x16>
     7e0:	595c                	lw	a5,52(a0)
     7e2:	c399                	beqz	a5,7e8 <rt_device_read+0x18>
     7e4:	9782                	jalr	a5
     7e6:	b325                	j	50e <__riscv_restore_0>
     7e8:	5569                	li	a0,-6
     7ea:	bfc5                	j	7da <rt_device_read+0xa>

000007ec <rt_device_write>:
     7ec:	cffff2ef          	jal	t0,4ea <__riscv_save_0>
     7f0:	2d58                	lbu	a4,28(a0)
     7f2:	e709                	bnez	a4,7fc <rt_device_write+0x10>
     7f4:	557d                	li	a0,-1
     7f6:	2ef5                	jal	bf2 <rt_set_errno>
     7f8:	4501                	li	a0,0
     7fa:	a021                	j	802 <__stack_size+0x2>
     7fc:	5d1c                	lw	a5,56(a0)
     7fe:	c399                	beqz	a5,804 <__stack_size+0x4>
     800:	9782                	jalr	a5
     802:	b331                	j	50e <__riscv_restore_0>
     804:	5569                	li	a0,-6
     806:	bfc5                	j	7f6 <rt_device_write+0xa>

00000808 <rt_device_set_rx_indicate>:
     808:	d10c                	sw	a1,32(a0)
     80a:	4501                	li	a0,0
     80c:	8082                	ret

0000080e <rt_thread_idle_excute>:
     80e:	cc3ff2ef          	jal	t0,4d0 <__riscv_save_4>
     812:	86418993          	addi	s3,gp,-1948 # 200001b4 <rt_thread_defunct>
     816:	4a85                	li	s5,1
     818:	8641a783          	lw	a5,-1948(gp) # 200001b4 <rt_thread_defunct>
     81c:	05378663          	beq	a5,s3,868 <rt_thread_idle_excute+0x5a>
     820:	47e010ef          	jal	ra,1c9e <rt_hw_interrupt_disable>
     824:	8641a783          	lw	a5,-1948(gp) # 200001b4 <rt_thread_defunct>
     828:	8a2a                	mv	s4,a0
     82a:	03378d63          	beq	a5,s3,864 <rt_thread_idle_excute+0x56>
     82e:	8641a403          	lw	s0,-1948(gp) # 200001b4 <rt_thread_defunct>
     832:	405c                	lw	a5,4(s0)
     834:	4018                	lw	a4,0(s0)
     836:	fec40913          	addi	s2,s0,-20
     83a:	c35c                	sw	a5,4(a4)
     83c:	c398                	sw	a4,0(a5)
     83e:	c040                	sw	s0,4(s0)
     840:	c000                	sw	s0,0(s0)
     842:	715000ef          	jal	ra,1756 <rt_enter_critical>
     846:	507c                	lw	a5,100(s0)
     848:	c399                	beqz	a5,84e <rt_thread_idle_excute+0x40>
     84a:	854a                	mv	a0,s2
     84c:	9782                	jalr	a5
     84e:	854a                	mv	a0,s2
     850:	5b1000ef          	jal	ra,1600 <rt_object_is_systemobject>
     854:	01551b63          	bne	a0,s5,86a <rt_thread_idle_excute+0x5c>
     858:	854a                	mv	a0,s2
     85a:	4f1000ef          	jal	ra,154a <rt_object_detach>
     85e:	70f000ef          	jal	ra,176c <rt_exit_critical>
     862:	8552                	mv	a0,s4
     864:	446010ef          	jal	ra,1caa <rt_hw_interrupt_enable>
     868:	b971                	j	504 <__riscv_restore_4>
     86a:	703000ef          	jal	ra,176c <rt_exit_critical>
     86e:	8552                	mv	a0,s4
     870:	43a010ef          	jal	ra,1caa <rt_hw_interrupt_enable>
     874:	4848                	lw	a0,20(s0)
     876:	3a3000ef          	jal	ra,1418 <rt_free>
     87a:	854a                	mv	a0,s2
     87c:	553000ef          	jal	ra,15ce <rt_object_delete>
     880:	bf61                	j	818 <rt_thread_idle_excute+0xa>

00000882 <rt_thread_idle_entry>:
     882:	c69ff2ef          	jal	t0,4ea <__riscv_save_0>
     886:	94018413          	addi	s0,gp,-1728 # 20000290 <idle_hook_list>
     88a:	01040913          	addi	s2,s0,16
     88e:	401c                	lw	a5,0(s0)
     890:	c391                	beqz	a5,894 <rt_thread_idle_entry+0x12>
     892:	9782                	jalr	a5
     894:	0411                	addi	s0,s0,4
     896:	ff241ce3          	bne	s0,s2,88e <rt_thread_idle_entry+0xc>
     89a:	3f95                	jal	80e <rt_thread_idle_excute>
     89c:	b7ed                	j	886 <rt_thread_idle_entry+0x4>

0000089e <rt_thread_idle_init>:
     89e:	c4dff2ef          	jal	t0,4ea <__riscv_save_0>
     8a2:	00001637          	lui	a2,0x1
     8a6:	000085b7          	lui	a1,0x8
     8aa:	02000893          	li	a7,32
     8ae:	483d                	li	a6,15
     8b0:	20000793          	li	a5,512
     8b4:	95018713          	addi	a4,gp,-1712 # 200002a0 <rt_thread_stack>
     8b8:	4681                	li	a3,0
     8ba:	88260613          	addi	a2,a2,-1918 # 882 <rt_thread_idle_entry>
     8be:	f1c58593          	addi	a1,a1,-228 # 7f1c <strncmp+0xba>
     8c2:	8c018513          	addi	a0,gp,-1856 # 20000210 <idle>
     8c6:	7d3000ef          	jal	ra,1898 <rt_thread_init>
     8ca:	8c018513          	addi	a0,gp,-1856 # 20000210 <idle>
     8ce:	17a010ef          	jal	ra,1a48 <rt_thread_startup>
     8d2:	b935                	j	50e <__riscv_restore_0>

000008d4 <rt_ipc_list_suspend>:
     8d4:	c17ff2ef          	jal	t0,4ea <__riscv_save_0>
     8d8:	1141                	addi	sp,sp,-16
     8da:	842a                	mv	s0,a0
     8dc:	852e                	mv	a0,a1
     8de:	c632                	sw	a2,12(sp)
     8e0:	c42e                	sw	a1,8(sp)
     8e2:	086010ef          	jal	ra,1968 <rt_thread_suspend>
     8e6:	4632                	lw	a2,12(sp)
     8e8:	45a2                	lw	a1,8(sp)
     8ea:	c619                	beqz	a2,8f8 <rt_ipc_list_suspend+0x24>
     8ec:	4785                	li	a5,1
     8ee:	00f60d63          	beq	a2,a5,908 <rt_ipc_list_suspend+0x34>
     8f2:	4501                	li	a0,0
     8f4:	0141                	addi	sp,sp,16
     8f6:	b921                	j	50e <__riscv_restore_0>
     8f8:	4058                	lw	a4,4(s0)
     8fa:	01458793          	addi	a5,a1,20
     8fe:	c31c                	sw	a5,0(a4)
     900:	cd98                	sw	a4,24(a1)
     902:	c05c                	sw	a5,4(s0)
     904:	c9c0                	sw	s0,20(a1)
     906:	b7f5                	j	8f2 <rt_ipc_list_suspend+0x1e>
     908:	401c                	lw	a5,0(s0)
     90a:	00878863          	beq	a5,s0,91a <rt_ipc_list_suspend+0x46>
     90e:	0355c683          	lbu	a3,53(a1)
     912:	0217c703          	lbu	a4,33(a5)
     916:	00e6fa63          	bgeu	a3,a4,92a <rt_ipc_list_suspend+0x56>
     91a:	43d4                	lw	a3,4(a5)
     91c:	01458713          	addi	a4,a1,20
     920:	c298                	sw	a4,0(a3)
     922:	cd94                	sw	a3,24(a1)
     924:	c3d8                	sw	a4,4(a5)
     926:	c9dc                	sw	a5,20(a1)
     928:	b7e9                	j	8f2 <rt_ipc_list_suspend+0x1e>
     92a:	439c                	lw	a5,0(a5)
     92c:	bff9                	j	90a <rt_ipc_list_suspend+0x36>

0000092e <rt_sem_init>:
     92e:	bbdff2ef          	jal	t0,4ea <__riscv_save_0>
     932:	1141                	addi	sp,sp,-16
     934:	84b2                	mv	s1,a2
     936:	862e                	mv	a2,a1
     938:	4589                	li	a1,2
     93a:	842a                	mv	s0,a0
     93c:	c636                	sw	a3,12(sp)
     93e:	3af000ef          	jal	ra,14ec <rt_object_init>
     942:	46b2                	lw	a3,12(sp)
     944:	01440793          	addi	a5,s0,20
     948:	cc1c                	sw	a5,24(s0)
     94a:	c85c                	sw	a5,20(s0)
     94c:	ac46                	sh	s1,28(s0)
     94e:	b414                	sb	a3,9(s0)
     950:	4501                	li	a0,0
     952:	0141                	addi	sp,sp,16
     954:	be6d                	j	50e <__riscv_restore_0>

00000956 <rt_sem_take>:
     956:	b7bff2ef          	jal	t0,4d0 <__riscv_save_4>
     95a:	8501a783          	lw	a5,-1968(gp) # 200001a0 <rt_object_trytake_hook>
     95e:	1141                	addi	sp,sp,-16
     960:	c62e                	sw	a1,12(sp)
     962:	842a                	mv	s0,a0
     964:	c391                	beqz	a5,968 <rt_sem_take+0x12>
     966:	9782                	jalr	a5
     968:	336010ef          	jal	ra,1c9e <rt_hw_interrupt_disable>
     96c:	2c5e                	lhu	a5,28(s0)
     96e:	89aa                	mv	s3,a0
     970:	cf89                	beqz	a5,98a <rt_sem_take+0x34>
     972:	17fd                	addi	a5,a5,-1
     974:	ac5e                	sh	a5,28(s0)
     976:	334010ef          	jal	ra,1caa <rt_hw_interrupt_enable>
     97a:	84c1a783          	lw	a5,-1972(gp) # 2000019c <rt_object_take_hook>
     97e:	4501                	li	a0,0
     980:	cb91                	beqz	a5,994 <rt_sem_take+0x3e>
     982:	8522                	mv	a0,s0
     984:	9782                	jalr	a5
     986:	4501                	li	a0,0
     988:	a031                	j	994 <rt_sem_take+0x3e>
     98a:	47b2                	lw	a5,12(sp)
     98c:	e791                	bnez	a5,998 <rt_sem_take+0x42>
     98e:	31c010ef          	jal	ra,1caa <rt_hw_interrupt_enable>
     992:	5579                	li	a0,-2
     994:	0141                	addi	sp,sp,16
     996:	b6bd                	j	504 <__riscv_restore_4>
     998:	733000ef          	jal	ra,18ca <rt_thread_self>
     99c:	02052823          	sw	zero,48(a0)
     9a0:	3410                	lbu	a2,9(s0)
     9a2:	85aa                	mv	a1,a0
     9a4:	84aa                	mv	s1,a0
     9a6:	01440513          	addi	a0,s0,20
     9aa:	372d                	jal	8d4 <rt_ipc_list_suspend>
     9ac:	47b2                	lw	a5,12(sp)
     9ae:	00f05c63          	blez	a5,9c6 <rt_sem_take+0x70>
     9b2:	04c48913          	addi	s2,s1,76
     9b6:	0070                	addi	a2,sp,12
     9b8:	4581                	li	a1,0
     9ba:	854a                	mv	a0,s2
     9bc:	1d2010ef          	jal	ra,1b8e <rt_timer_control>
     9c0:	854a                	mv	a0,s2
     9c2:	11c010ef          	jal	ra,1ade <rt_timer_start>
     9c6:	854e                	mv	a0,s3
     9c8:	2e2010ef          	jal	ra,1caa <rt_hw_interrupt_enable>
     9cc:	497000ef          	jal	ra,1662 <rt_schedule>
     9d0:	5888                	lw	a0,48(s1)
     9d2:	d545                	beqz	a0,97a <rt_sem_take+0x24>
     9d4:	b7c1                	j	994 <rt_sem_take+0x3e>

000009d6 <rt_sem_release>:
     9d6:	b15ff2ef          	jal	t0,4ea <__riscv_save_0>
     9da:	8481a783          	lw	a5,-1976(gp) # 20000198 <rt_object_put_hook>
     9de:	842a                	mv	s0,a0
     9e0:	c391                	beqz	a5,9e4 <rt_sem_release+0xe>
     9e2:	9782                	jalr	a5
     9e4:	2ba010ef          	jal	ra,1c9e <rt_hw_interrupt_disable>
     9e8:	84aa                	mv	s1,a0
     9ea:	4848                	lw	a0,20(s0)
     9ec:	01440793          	addi	a5,s0,20
     9f0:	00f50e63          	beq	a0,a5,a0c <rt_sem_release+0x36>
     9f4:	1531                	addi	a0,a0,-20
     9f6:	006010ef          	jal	ra,19fc <rt_thread_resume>
     9fa:	4405                	li	s0,1
     9fc:	8526                	mv	a0,s1
     9fe:	2ac010ef          	jal	ra,1caa <rt_hw_interrupt_enable>
     a02:	c019                	beqz	s0,a08 <rt_sem_release+0x32>
     a04:	45f000ef          	jal	ra,1662 <rt_schedule>
     a08:	4501                	li	a0,0
     a0a:	b611                	j	50e <__riscv_restore_0>
     a0c:	2c5e                	lhu	a5,28(s0)
     a0e:	0785                	addi	a5,a5,1
     a10:	ac5e                	sh	a5,28(s0)
     a12:	4401                	li	s0,0
     a14:	b7e5                	j	9fc <rt_sem_release+0x26>

00000a16 <rt_interrupt_enter>:
     a16:	ad5ff2ef          	jal	t0,4ea <__riscv_save_0>
     a1a:	1141                	addi	sp,sp,-16
     a1c:	282010ef          	jal	ra,1c9e <rt_hw_interrupt_disable>
     a20:	81418713          	addi	a4,gp,-2028 # 20000164 <rt_interrupt_nest>
     a24:	231c                	lbu	a5,0(a4)
     a26:	0785                	addi	a5,a5,1
     a28:	0ff7f793          	andi	a5,a5,255
     a2c:	a31c                	sb	a5,0(a4)
     a2e:	80c1a783          	lw	a5,-2036(gp) # 2000015c <rt_interrupt_enter_hook>
     a32:	c781                	beqz	a5,a3a <rt_interrupt_enter+0x24>
     a34:	c62a                	sw	a0,12(sp)
     a36:	9782                	jalr	a5
     a38:	4532                	lw	a0,12(sp)
     a3a:	270010ef          	jal	ra,1caa <rt_hw_interrupt_enable>
     a3e:	0141                	addi	sp,sp,16
     a40:	b4f9                	j	50e <__riscv_restore_0>

00000a42 <rt_interrupt_leave>:
     a42:	aa9ff2ef          	jal	t0,4ea <__riscv_save_0>
     a46:	1141                	addi	sp,sp,-16
     a48:	256010ef          	jal	ra,1c9e <rt_hw_interrupt_disable>
     a4c:	81418713          	addi	a4,gp,-2028 # 20000164 <rt_interrupt_nest>
     a50:	231c                	lbu	a5,0(a4)
     a52:	17fd                	addi	a5,a5,-1
     a54:	0ff7f793          	andi	a5,a5,255
     a58:	a31c                	sb	a5,0(a4)
     a5a:	8101a783          	lw	a5,-2032(gp) # 20000160 <rt_interrupt_leave_hook>
     a5e:	c781                	beqz	a5,a66 <rt_interrupt_leave+0x24>
     a60:	c62a                	sw	a0,12(sp)
     a62:	9782                	jalr	a5
     a64:	4532                	lw	a0,12(sp)
     a66:	244010ef          	jal	ra,1caa <rt_hw_interrupt_enable>
     a6a:	0141                	addi	sp,sp,16
     a6c:	b44d                	j	50e <__riscv_restore_0>

00000a6e <rt_interrupt_get_nest>:
     a6e:	8141c503          	lbu	a0,-2028(gp) # 20000164 <rt_interrupt_nest>
     a72:	8082                	ret

00000a74 <print_number>:
     a74:	04087893          	andi	a7,a6,64
     a78:	1141                	addi	sp,sp,-16
     a7a:	00089e63          	bnez	a7,a96 <print_number+0x22>
     a7e:	68a1                	lui	a7,0x8
     a80:	0c888893          	addi	a7,a7,200 # 80c8 <small_digits.2584>
     a84:	01087393          	andi	t2,a6,16
     a88:	00038b63          	beqz	t2,a9e <print_number+0x2a>
     a8c:	ffe87813          	andi	a6,a6,-2
     a90:	02000e93          	li	t4,32
     a94:	a819                	j	aaa <print_number+0x36>
     a96:	68a1                	lui	a7,0x8
     a98:	02488893          	addi	a7,a7,36 # 8024 <large_digits.2585>
     a9c:	b7e5                	j	a84 <print_number+0x10>
     a9e:	00187313          	andi	t1,a6,1
     aa2:	03000e93          	li	t4,48
     aa6:	fe0305e3          	beqz	t1,a90 <print_number+0x1c>
     aaa:	00287313          	andi	t1,a6,2
     aae:	06030e63          	beqz	t1,b2a <print_number+0xb6>
     ab2:	02065863          	bgez	a2,ae2 <print_number+0x6e>
     ab6:	40c00633          	neg	a2,a2
     aba:	02d00293          	li	t0,45
     abe:	8e0a                	mv	t3,sp
     ac0:	4f81                	li	t6,0
     ac2:	4f29                	li	t5,10
     ac4:	07e69563          	bne	a3,t5,b2e <print_number+0xba>
     ac8:	02d67333          	remu	t1,a2,a3
     acc:	02d65633          	divu	a2,a2,a3
     ad0:	9346                	add	t1,t1,a7
     ad2:	00034303          	lbu	t1,0(t1)
     ad6:	0f85                	addi	t6,t6,1
     ad8:	0e05                	addi	t3,t3,1
     ada:	fe6e0fa3          	sb	t1,-1(t3)
     ade:	f27d                	bnez	a2,ac4 <print_number+0x50>
     ae0:	a00d                	j	b02 <print_number+0x8e>
     ae2:	00487313          	andi	t1,a6,4
     ae6:	02b00293          	li	t0,43
     aea:	00031763          	bnez	t1,af8 <print_number+0x84>
     aee:	00887293          	andi	t0,a6,8
     af2:	005032b3          	snez	t0,t0
     af6:	0296                	slli	t0,t0,0x5
     af8:	f279                	bnez	a2,abe <print_number+0x4a>
     afa:	03000693          	li	a3,48
     afe:	8054                	sb	a3,0(sp)
     b00:	4f85                	li	t6,1
     b02:	86fe                	mv	a3,t6
     b04:	00ffd363          	bge	t6,a5,b0a <print_number+0x96>
     b08:	86be                	mv	a3,a5
     b0a:	01187813          	andi	a6,a6,17
     b0e:	8f15                	sub	a4,a4,a3
     b10:	04081363          	bnez	a6,b56 <print_number+0xe2>
     b14:	00028563          	beqz	t0,b1e <print_number+0xaa>
     b18:	00e05363          	blez	a4,b1e <print_number+0xaa>
     b1c:	177d                	addi	a4,a4,-1
     b1e:	862a                	mv	a2,a0
     b20:	00e508b3          	add	a7,a0,a4
     b24:	02000313          	li	t1,32
     b28:	a821                	j	b40 <print_number+0xcc>
     b2a:	4281                	li	t0,0
     b2c:	b7f1                	j	af8 <print_number+0x84>
     b2e:	00f67313          	andi	t1,a2,15
     b32:	8211                	srli	a2,a2,0x4
     b34:	bf71                	j	ad0 <print_number+0x5c>
     b36:	00b67463          	bgeu	a2,a1,b3e <print_number+0xca>
     b3a:	00660023          	sb	t1,0(a2)
     b3e:	0605                	addi	a2,a2,1
     b40:	40c88833          	sub	a6,a7,a2
     b44:	ff0049e3          	bgtz	a6,b36 <print_number+0xc2>
     b48:	863a                	mv	a2,a4
     b4a:	00075363          	bgez	a4,b50 <print_number+0xdc>
     b4e:	4601                	li	a2,0
     b50:	177d                	addi	a4,a4,-1
     b52:	9532                	add	a0,a0,a2
     b54:	8f11                	sub	a4,a4,a2
     b56:	00028863          	beqz	t0,b66 <print_number+0xf2>
     b5a:	00b57463          	bgeu	a0,a1,b62 <print_number+0xee>
     b5e:	00550023          	sb	t0,0(a0)
     b62:	177d                	addi	a4,a4,-1
     b64:	0505                	addi	a0,a0,1
     b66:	02038763          	beqz	t2,b94 <print_number+0x120>
     b6a:	96aa                	add	a3,a3,a0
     b6c:	03000813          	li	a6,48
     b70:	a81d                	j	ba6 <print_number+0x132>
     b72:	00b67463          	bgeu	a2,a1,b7a <print_number+0x106>
     b76:	01d60023          	sb	t4,0(a2)
     b7a:	0605                	addi	a2,a2,1
     b7c:	40c88833          	sub	a6,a7,a2
     b80:	ff0049e3          	bgtz	a6,b72 <print_number+0xfe>
     b84:	863a                	mv	a2,a4
     b86:	00075363          	bgez	a4,b8c <print_number+0x118>
     b8a:	4601                	li	a2,0
     b8c:	177d                	addi	a4,a4,-1
     b8e:	9532                	add	a0,a0,a2
     b90:	8f11                	sub	a4,a4,a2
     b92:	bfe1                	j	b6a <print_number+0xf6>
     b94:	862a                	mv	a2,a0
     b96:	00e508b3          	add	a7,a0,a4
     b9a:	b7cd                	j	b7c <print_number+0x108>
     b9c:	00b57463          	bgeu	a0,a1,ba4 <print_number+0x130>
     ba0:	01050023          	sb	a6,0(a0)
     ba4:	0505                	addi	a0,a0,1
     ba6:	40a68633          	sub	a2,a3,a0
     baa:	fecfc9e3          	blt	t6,a2,b9c <print_number+0x128>
     bae:	56fd                	li	a3,-1
     bb0:	1ffd                	addi	t6,t6,-1
     bb2:	00df8363          	beq	t6,a3,bb8 <print_number+0x144>
     bb6:	e799                	bnez	a5,bc4 <print_number+0x150>
     bb8:	87aa                	mv	a5,a0
     bba:	00e50633          	add	a2,a0,a4
     bbe:	02000813          	li	a6,32
     bc2:	a831                	j	bde <print_number+0x16a>
     bc4:	00b57663          	bgeu	a0,a1,bd0 <print_number+0x15c>
     bc8:	01f10633          	add	a2,sp,t6
     bcc:	2210                	lbu	a2,0(a2)
     bce:	a110                	sb	a2,0(a0)
     bd0:	0505                	addi	a0,a0,1
     bd2:	bff9                	j	bb0 <print_number+0x13c>
     bd4:	00b7f463          	bgeu	a5,a1,bdc <print_number+0x168>
     bd8:	01078023          	sb	a6,0(a5)
     bdc:	0785                	addi	a5,a5,1
     bde:	40f606b3          	sub	a3,a2,a5
     be2:	fed049e3          	bgtz	a3,bd4 <print_number+0x160>
     be6:	00075363          	bgez	a4,bec <print_number+0x178>
     bea:	4701                	li	a4,0
     bec:	953a                	add	a0,a0,a4
     bee:	0141                	addi	sp,sp,16
     bf0:	8082                	ret

00000bf2 <rt_set_errno>:
     bf2:	8f9ff2ef          	jal	t0,4ea <__riscv_save_0>
     bf6:	842a                	mv	s0,a0
     bf8:	3d9d                	jal	a6e <rt_interrupt_get_nest>
     bfa:	c509                	beqz	a0,c04 <rt_set_errno+0x12>
     bfc:	8081ac23          	sw	s0,-2024(gp) # 20000168 <__rt_errno>
     c00:	90fff06f          	j	50e <__riscv_restore_0>
     c04:	4c7000ef          	jal	ra,18ca <rt_thread_self>
     c08:	d975                	beqz	a0,bfc <rt_set_errno+0xa>
     c0a:	d900                	sw	s0,48(a0)
     c0c:	bfd5                	j	c00 <rt_set_errno+0xe>

00000c0e <rt_memset>:
     c0e:	470d                	li	a4,3
     c10:	87aa                	mv	a5,a0
     c12:	00c77663          	bgeu	a4,a2,c1e <rt_memset+0x10>
     c16:	00357793          	andi	a5,a0,3
     c1a:	c791                	beqz	a5,c26 <rt_memset+0x18>
     c1c:	87aa                	mv	a5,a0
     c1e:	963e                	add	a2,a2,a5
     c20:	06c79763          	bne	a5,a2,c8e <rt_memset+0x80>
     c24:	8082                	ret
     c26:	0ff5f793          	andi	a5,a1,255
     c2a:	00879713          	slli	a4,a5,0x8
     c2e:	8fd9                	or	a5,a5,a4
     c30:	01079713          	slli	a4,a5,0x10
     c34:	8f5d                	or	a4,a4,a5
     c36:	00c508b3          	add	a7,a0,a2
     c3a:	87aa                	mv	a5,a0
     c3c:	46bd                	li	a3,15
     c3e:	40f88833          	sub	a6,a7,a5
     c42:	0306eb63          	bltu	a3,a6,c78 <rt_memset+0x6a>
     c46:	00465793          	srli	a5,a2,0x4
     c4a:	56c1                	li	a3,-16
     c4c:	02d786b3          	mul	a3,a5,a3
     c50:	0792                	slli	a5,a5,0x4
     c52:	97aa                	add	a5,a5,a0
     c54:	480d                	li	a6,3
     c56:	9636                	add	a2,a2,a3
     c58:	00c78333          	add	t1,a5,a2
     c5c:	86be                	mv	a3,a5
     c5e:	40d308b3          	sub	a7,t1,a3
     c62:	03186263          	bltu	a6,a7,c86 <rt_memset+0x78>
     c66:	00265713          	srli	a4,a2,0x2
     c6a:	56f1                	li	a3,-4
     c6c:	02d706b3          	mul	a3,a4,a3
     c70:	070a                	slli	a4,a4,0x2
     c72:	97ba                	add	a5,a5,a4
     c74:	9636                	add	a2,a2,a3
     c76:	b765                	j	c1e <rt_memset+0x10>
     c78:	c398                	sw	a4,0(a5)
     c7a:	c3d8                	sw	a4,4(a5)
     c7c:	c798                	sw	a4,8(a5)
     c7e:	07c1                	addi	a5,a5,16
     c80:	fee7ae23          	sw	a4,-4(a5)
     c84:	bf6d                	j	c3e <rt_memset+0x30>
     c86:	0691                	addi	a3,a3,4
     c88:	fee6ae23          	sw	a4,-4(a3)
     c8c:	bfc9                	j	c5e <rt_memset+0x50>
     c8e:	0785                	addi	a5,a5,1
     c90:	feb78fa3          	sb	a1,-1(a5)
     c94:	b771                	j	c20 <rt_memset+0x12>

00000c96 <rt_memmove>:
     c96:	04a5f263          	bgeu	a1,a0,cda <rt_memmove+0x44>
     c9a:	00c586b3          	add	a3,a1,a2
     c9e:	02d57e63          	bgeu	a0,a3,cda <rt_memmove+0x44>
     ca2:	fff64593          	not	a1,a2
     ca6:	4781                	li	a5,0
     ca8:	17fd                	addi	a5,a5,-1
     caa:	00f59363          	bne	a1,a5,cb0 <rt_memmove+0x1a>
     cae:	8082                	ret
     cb0:	00f68733          	add	a4,a3,a5
     cb4:	00070803          	lb	a6,0(a4)
     cb8:	00c78733          	add	a4,a5,a2
     cbc:	972a                	add	a4,a4,a0
     cbe:	01070023          	sb	a6,0(a4)
     cc2:	b7dd                	j	ca8 <rt_memmove+0x12>
     cc4:	00f58733          	add	a4,a1,a5
     cc8:	00070683          	lb	a3,0(a4)
     ccc:	00f50733          	add	a4,a0,a5
     cd0:	0785                	addi	a5,a5,1
     cd2:	a314                	sb	a3,0(a4)
     cd4:	fef618e3          	bne	a2,a5,cc4 <rt_memmove+0x2e>
     cd8:	8082                	ret
     cda:	4781                	li	a5,0
     cdc:	bfe5                	j	cd4 <rt_memmove+0x3e>

00000cde <rt_strncpy>:
     cde:	c60d                	beqz	a2,d08 <rt_strncpy+0x2a>
     ce0:	87aa                	mv	a5,a0
     ce2:	0585                	addi	a1,a1,1
     ce4:	fff58703          	lb	a4,-1(a1)
     ce8:	0785                	addi	a5,a5,1
     cea:	fff60693          	addi	a3,a2,-1
     cee:	fee78fa3          	sb	a4,-1(a5)
     cf2:	eb09                	bnez	a4,d04 <rt_strncpy+0x26>
     cf4:	963e                	add	a2,a2,a5
     cf6:	0785                	addi	a5,a5,1
     cf8:	00c79363          	bne	a5,a2,cfe <rt_strncpy+0x20>
     cfc:	8082                	ret
     cfe:	fe078fa3          	sb	zero,-1(a5)
     d02:	bfd5                	j	cf6 <rt_strncpy+0x18>
     d04:	8636                	mv	a2,a3
     d06:	fef1                	bnez	a3,ce2 <rt_strncpy+0x4>
     d08:	8082                	ret

00000d0a <rt_strncmp>:
     d0a:	4701                	li	a4,0
     d0c:	00e61463          	bne	a2,a4,d14 <rt_strncmp+0xa>
     d10:	4781                	li	a5,0
     d12:	a839                	j	d30 <rt_strncmp+0x26>
     d14:	00e507b3          	add	a5,a0,a4
     d18:	00078683          	lb	a3,0(a5)
     d1c:	00e587b3          	add	a5,a1,a4
     d20:	239c                	lbu	a5,0(a5)
     d22:	40f687b3          	sub	a5,a3,a5
     d26:	07e2                	slli	a5,a5,0x18
     d28:	87e1                	srai	a5,a5,0x18
     d2a:	e399                	bnez	a5,d30 <rt_strncmp+0x26>
     d2c:	0705                	addi	a4,a4,1
     d2e:	fef9                	bnez	a3,d0c <rt_strncmp+0x2>
     d30:	853e                	mv	a0,a5
     d32:	8082                	ret

00000d34 <rt_strlen>:
     d34:	87aa                	mv	a5,a0
     d36:	00078703          	lb	a4,0(a5)
     d3a:	e701                	bnez	a4,d42 <rt_strlen+0xe>
     d3c:	40a78533          	sub	a0,a5,a0
     d40:	8082                	ret
     d42:	0785                	addi	a5,a5,1
     d44:	bfcd                	j	d36 <rt_strlen+0x2>

00000d46 <rt_vsnprintf>:
     d46:	f7cff2ef          	jal	t0,4c2 <__riscv_save_10>
     d4a:	892e                	mv	s2,a1
     d4c:	01250bb3          	add	s7,a0,s2
     d50:	1141                	addi	sp,sp,-16
     d52:	8c2a                	mv	s8,a0
     d54:	85b6                	mv	a1,a3
     d56:	00abf563          	bgeu	s7,a0,d60 <rt_vsnprintf+0x1a>
     d5a:	fff54913          	not	s2,a0
     d5e:	5bfd                	li	s7,-1
     d60:	69c1                	lui	s3,0x10
     d62:	00008a37          	lui	s4,0x8
     d66:	8462                	mv	s0,s8
     d68:	02b00a93          	li	s5,43
     d6c:	02000b13          	li	s6,32
     d70:	19fd                	addi	s3,s3,-1
     d72:	0c0a0a13          	addi	s4,s4,192 # 80c0 <large_digits.2585+0x9c>
     d76:	a831                	j	d92 <rt_vsnprintf+0x4c>
     d78:	02500713          	li	a4,37
     d7c:	02e78963          	beq	a5,a4,dae <rt_vsnprintf+0x68>
     d80:	01747363          	bgeu	s0,s7,d86 <rt_vsnprintf+0x40>
     d84:	a01c                	sb	a5,0(s0)
     d86:	00140513          	addi	a0,s0,1
     d8a:	84b2                	mv	s1,a2
     d8c:	00148613          	addi	a2,s1,1
     d90:	842a                	mv	s0,a0
     d92:	00060783          	lb	a5,0(a2)
     d96:	f3ed                	bnez	a5,d78 <rt_vsnprintf+0x32>
     d98:	00090663          	beqz	s2,da4 <rt_vsnprintf+0x5e>
     d9c:	2f747b63          	bgeu	s0,s7,1092 <rt_vsnprintf+0x34c>
     da0:	00040023          	sb	zero,0(s0)
     da4:	41840533          	sub	a0,s0,s8
     da8:	0141                	addi	sp,sp,16
     daa:	f50ff06f          	j	4fa <__riscv_restore_10>
     dae:	4801                	li	a6,0
     db0:	02d00713          	li	a4,45
     db4:	02300693          	li	a3,35
     db8:	03000513          	li	a0,48
     dbc:	a031                	j	dc8 <rt_vsnprintf+0x82>
     dbe:	01579e63          	bne	a5,s5,dda <rt_vsnprintf+0x94>
     dc2:	00486813          	ori	a6,a6,4
     dc6:	8626                	mv	a2,s1
     dc8:	00160783          	lb	a5,1(a2)
     dcc:	00160493          	addi	s1,a2,1
     dd0:	fee797e3          	bne	a5,a4,dbe <rt_vsnprintf+0x78>
     dd4:	01086813          	ori	a6,a6,16
     dd8:	b7fd                	j	dc6 <rt_vsnprintf+0x80>
     dda:	01679563          	bne	a5,s6,de4 <rt_vsnprintf+0x9e>
     dde:	00886813          	ori	a6,a6,8
     de2:	b7d5                	j	dc6 <rt_vsnprintf+0x80>
     de4:	00d79563          	bne	a5,a3,dee <rt_vsnprintf+0xa8>
     de8:	02086813          	ori	a6,a6,32
     dec:	bfe9                	j	dc6 <rt_vsnprintf+0x80>
     dee:	00a79563          	bne	a5,a0,df8 <rt_vsnprintf+0xb2>
     df2:	00186813          	ori	a6,a6,1
     df6:	bfc1                	j	dc6 <rt_vsnprintf+0x80>
     df8:	fd078713          	addi	a4,a5,-48
     dfc:	46a5                	li	a3,9
     dfe:	04e6e663          	bltu	a3,a4,e4a <rt_vsnprintf+0x104>
     e02:	4701                	li	a4,0
     e04:	46a5                	li	a3,9
     e06:	4529                	li	a0,10
     e08:	a039                	j	e16 <rt_vsnprintf+0xd0>
     e0a:	02a70733          	mul	a4,a4,a0
     e0e:	0485                	addi	s1,s1,1
     e10:	973e                	add	a4,a4,a5
     e12:	fd070713          	addi	a4,a4,-48
     e16:	00048783          	lb	a5,0(s1)
     e1a:	fd078613          	addi	a2,a5,-48
     e1e:	fec6f6e3          	bgeu	a3,a2,e0a <rt_vsnprintf+0xc4>
     e22:	00048603          	lb	a2,0(s1)
     e26:	02e00693          	li	a3,46
     e2a:	57fd                	li	a5,-1
     e2c:	04d61f63          	bne	a2,a3,e8a <rt_vsnprintf+0x144>
     e30:	00148783          	lb	a5,1(s1)
     e34:	4625                	li	a2,9
     e36:	00148693          	addi	a3,s1,1
     e3a:	fd078513          	addi	a0,a5,-48
     e3e:	0aa66563          	bltu	a2,a0,ee8 <rt_vsnprintf+0x1a2>
     e42:	4781                	li	a5,0
     e44:	4525                	li	a0,9
     e46:	4329                	li	t1,10
     e48:	a03d                	j	e76 <rt_vsnprintf+0x130>
     e4a:	02a00693          	li	a3,42
     e4e:	577d                	li	a4,-1
     e50:	fcd799e3          	bne	a5,a3,e22 <rt_vsnprintf+0xdc>
     e54:	4198                	lw	a4,0(a1)
     e56:	00260493          	addi	s1,a2,2
     e5a:	0591                	addi	a1,a1,4
     e5c:	fc0753e3          	bgez	a4,e22 <rt_vsnprintf+0xdc>
     e60:	40e00733          	neg	a4,a4
     e64:	01086813          	ori	a6,a6,16
     e68:	bf6d                	j	e22 <rt_vsnprintf+0xdc>
     e6a:	026787b3          	mul	a5,a5,t1
     e6e:	0685                	addi	a3,a3,1
     e70:	97b2                	add	a5,a5,a2
     e72:	fd078793          	addi	a5,a5,-48
     e76:	00068603          	lb	a2,0(a3)
     e7a:	fd060893          	addi	a7,a2,-48
     e7e:	ff1576e3          	bgeu	a0,a7,e6a <rt_vsnprintf+0x124>
     e82:	0007d363          	bgez	a5,e88 <rt_vsnprintf+0x142>
     e86:	4781                	li	a5,0
     e88:	84b6                	mv	s1,a3
     e8a:	00048683          	lb	a3,0(s1)
     e8e:	06800613          	li	a2,104
     e92:	4501                	li	a0,0
     e94:	ffb6f893          	andi	a7,a3,-5
     e98:	00c89563          	bne	a7,a2,ea2 <rt_vsnprintf+0x15c>
     e9c:	0ff6f513          	andi	a0,a3,255
     ea0:	0485                	addi	s1,s1,1
     ea2:	00048603          	lb	a2,0(s1)
     ea6:	06900693          	li	a3,105
     eaa:	06d60363          	beq	a2,a3,f10 <rt_vsnprintf+0x1ca>
     eae:	06c6c563          	blt	a3,a2,f18 <rt_vsnprintf+0x1d2>
     eb2:	05800693          	li	a3,88
     eb6:	1cd60363          	beq	a2,a3,107c <rt_vsnprintf+0x336>
     eba:	04c6c363          	blt	a3,a2,f00 <rt_vsnprintf+0x1ba>
     ebe:	02500793          	li	a5,37
     ec2:	1af60763          	beq	a2,a5,1070 <rt_vsnprintf+0x32a>
     ec6:	01747563          	bgeu	s0,s7,ed0 <rt_vsnprintf+0x18a>
     eca:	02500793          	li	a5,37
     ece:	a01c                	sb	a5,0(s0)
     ed0:	00048783          	lb	a5,0(s1)
     ed4:	00140513          	addi	a0,s0,1
     ed8:	1a078663          	beqz	a5,1084 <rt_vsnprintf+0x33e>
     edc:	01757363          	bgeu	a0,s7,ee2 <rt_vsnprintf+0x19c>
     ee0:	b01c                	sb	a5,1(s0)
     ee2:	00240513          	addi	a0,s0,2
     ee6:	b55d                	j	d8c <rt_vsnprintf+0x46>
     ee8:	02a00613          	li	a2,42
     eec:	00c79763          	bne	a5,a2,efa <rt_vsnprintf+0x1b4>
     ef0:	419c                	lw	a5,0(a1)
     ef2:	00248693          	addi	a3,s1,2
     ef6:	0591                	addi	a1,a1,4
     ef8:	b769                	j	e82 <rt_vsnprintf+0x13c>
     efa:	84b6                	mv	s1,a3
     efc:	4781                	li	a5,0
     efe:	b771                	j	e8a <rt_vsnprintf+0x144>
     f00:	06300693          	li	a3,99
     f04:	08d60263          	beq	a2,a3,f88 <rt_vsnprintf+0x242>
     f08:	06400693          	li	a3,100
     f0c:	fad61de3          	bne	a2,a3,ec6 <rt_vsnprintf+0x180>
     f10:	00286813          	ori	a6,a6,2
     f14:	46a9                	li	a3,10
     f16:	a099                	j	f5c <rt_vsnprintf+0x216>
     f18:	07300693          	li	a3,115
     f1c:	0cd60363          	beq	a2,a3,fe2 <rt_vsnprintf+0x29c>
     f20:	02c6c563          	blt	a3,a2,f4a <rt_vsnprintf+0x204>
     f24:	06f00693          	li	a3,111
     f28:	16d60063          	beq	a2,a3,1088 <rt_vsnprintf+0x342>
     f2c:	07000693          	li	a3,112
     f30:	f8d61be3          	bne	a2,a3,ec6 <rt_vsnprintf+0x180>
     f34:	56fd                	li	a3,-1
     f36:	00d71563          	bne	a4,a3,f40 <rt_vsnprintf+0x1fa>
     f3a:	00186813          	ori	a6,a6,1
     f3e:	4721                	li	a4,8
     f40:	00458c93          	addi	s9,a1,4
     f44:	46c1                	li	a3,16
     f46:	4190                	lw	a2,0(a1)
     f48:	a81d                	j	f7e <rt_vsnprintf+0x238>
     f4a:	07500693          	li	a3,117
     f4e:	fcd603e3          	beq	a2,a3,f14 <rt_vsnprintf+0x1ce>
     f52:	07800893          	li	a7,120
     f56:	46c1                	li	a3,16
     f58:	f71617e3          	bne	a2,a7,ec6 <rt_vsnprintf+0x180>
     f5c:	06c00613          	li	a2,108
     f60:	00458c93          	addi	s9,a1,4
     f64:	fec501e3          	beq	a0,a2,f46 <rt_vsnprintf+0x200>
     f68:	06800613          	li	a2,104
     f6c:	fcc51de3          	bne	a0,a2,f46 <rt_vsnprintf+0x200>
     f70:	4190                	lw	a2,0(a1)
     f72:	00287593          	andi	a1,a6,2
     f76:	10059b63          	bnez	a1,108c <rt_vsnprintf+0x346>
     f7a:	01367633          	and	a2,a2,s3
     f7e:	85de                	mv	a1,s7
     f80:	8522                	mv	a0,s0
     f82:	3ccd                	jal	a74 <print_number>
     f84:	85e6                	mv	a1,s9
     f86:	b519                	j	d8c <rt_vsnprintf+0x46>
     f88:	01087813          	andi	a6,a6,16
     f8c:	02081563          	bnez	a6,fb6 <rt_vsnprintf+0x270>
     f90:	87ba                	mv	a5,a4
     f92:	02000693          	li	a3,32
     f96:	a029                	j	fa0 <rt_vsnprintf+0x25a>
     f98:	01747363          	bgeu	s0,s7,f9e <rt_vsnprintf+0x258>
     f9c:	a014                	sb	a3,0(s0)
     f9e:	0405                	addi	s0,s0,1
     fa0:	17fd                	addi	a5,a5,-1
     fa2:	fef04be3          	bgtz	a5,f98 <rt_vsnprintf+0x252>
     fa6:	fff70793          	addi	a5,a4,-1
     faa:	00e04363          	bgtz	a4,fb0 <rt_vsnprintf+0x26a>
     fae:	4705                	li	a4,1
     fb0:	40e78733          	sub	a4,a5,a4
     fb4:	0705                	addi	a4,a4,1
     fb6:	00458793          	addi	a5,a1,4
     fba:	01747463          	bgeu	s0,s7,fc2 <rt_vsnprintf+0x27c>
     fbe:	4194                	lw	a3,0(a1)
     fc0:	a014                	sb	a3,0(s0)
     fc2:	00140513          	addi	a0,s0,1
     fc6:	9722                	add	a4,a4,s0
     fc8:	02000613          	li	a2,32
     fcc:	40a706b3          	sub	a3,a4,a0
     fd0:	00d04463          	bgtz	a3,fd8 <rt_vsnprintf+0x292>
     fd4:	85be                	mv	a1,a5
     fd6:	bb5d                	j	d8c <rt_vsnprintf+0x46>
     fd8:	01757363          	bgeu	a0,s7,fde <rt_vsnprintf+0x298>
     fdc:	a110                	sb	a2,0(a0)
     fde:	0505                	addi	a0,a0,1
     fe0:	b7f5                	j	fcc <rt_vsnprintf+0x286>
     fe2:	0005ac83          	lw	s9,0(a1)
     fe6:	00458d13          	addi	s10,a1,4
     fea:	000c9363          	bnez	s9,ff0 <rt_vsnprintf+0x2aa>
     fee:	8cd2                	mv	s9,s4
     ff0:	8566                	mv	a0,s9
     ff2:	c63e                	sw	a5,12(sp)
     ff4:	c43a                	sw	a4,8(sp)
     ff6:	c242                	sw	a6,4(sp)
     ff8:	3b35                	jal	d34 <rt_strlen>
     ffa:	47b2                	lw	a5,12(sp)
     ffc:	86aa                	mv	a3,a0
     ffe:	4812                	lw	a6,4(sp)
    1000:	4722                	lw	a4,8(sp)
    1002:	00f05563          	blez	a5,100c <rt_vsnprintf+0x2c6>
    1006:	00a7d363          	bge	a5,a0,100c <rt_vsnprintf+0x2c6>
    100a:	86be                	mv	a3,a5
    100c:	01087813          	andi	a6,a6,16
    1010:	00081e63          	bnez	a6,102c <rt_vsnprintf+0x2e6>
    1014:	87ba                	mv	a5,a4
    1016:	02000613          	li	a2,32
    101a:	a031                	j	1026 <rt_vsnprintf+0x2e0>
    101c:	01747363          	bgeu	s0,s7,1022 <rt_vsnprintf+0x2dc>
    1020:	a010                	sb	a2,0(s0)
    1022:	0405                	addi	s0,s0,1
    1024:	87ba                	mv	a5,a4
    1026:	177d                	addi	a4,a4,-1
    1028:	fef6cae3          	blt	a3,a5,101c <rt_vsnprintf+0x2d6>
    102c:	4781                	li	a5,0
    102e:	02d7c163          	blt	a5,a3,1050 <rt_vsnprintf+0x30a>
    1032:	87b6                	mv	a5,a3
    1034:	0006d363          	bgez	a3,103a <rt_vsnprintf+0x2f4>
    1038:	4781                	li	a5,0
    103a:	00f40533          	add	a0,s0,a5
    103e:	972a                	add	a4,a4,a0
    1040:	02000613          	li	a2,32
    1044:	40a707b3          	sub	a5,a4,a0
    1048:	00f6cf63          	blt	a3,a5,1066 <rt_vsnprintf+0x320>
    104c:	85ea                	mv	a1,s10
    104e:	bb3d                	j	d8c <rt_vsnprintf+0x46>
    1050:	00f40633          	add	a2,s0,a5
    1054:	01767763          	bgeu	a2,s7,1062 <rt_vsnprintf+0x31c>
    1058:	00fc85b3          	add	a1,s9,a5
    105c:	00058583          	lb	a1,0(a1)
    1060:	a20c                	sb	a1,0(a2)
    1062:	0785                	addi	a5,a5,1
    1064:	b7e9                	j	102e <rt_vsnprintf+0x2e8>
    1066:	01757363          	bgeu	a0,s7,106c <rt_vsnprintf+0x326>
    106a:	a110                	sb	a2,0(a0)
    106c:	0505                	addi	a0,a0,1
    106e:	bfd9                	j	1044 <rt_vsnprintf+0x2fe>
    1070:	01747363          	bgeu	s0,s7,1076 <rt_vsnprintf+0x330>
    1074:	a010                	sb	a2,0(s0)
    1076:	00140513          	addi	a0,s0,1
    107a:	bb09                	j	d8c <rt_vsnprintf+0x46>
    107c:	04086813          	ori	a6,a6,64
    1080:	46c1                	li	a3,16
    1082:	bde9                	j	f5c <rt_vsnprintf+0x216>
    1084:	14fd                	addi	s1,s1,-1
    1086:	b319                	j	d8c <rt_vsnprintf+0x46>
    1088:	46a1                	li	a3,8
    108a:	bdc9                	j	f5c <rt_vsnprintf+0x216>
    108c:	0642                	slli	a2,a2,0x10
    108e:	8641                	srai	a2,a2,0x10
    1090:	b5fd                	j	f7e <rt_vsnprintf+0x238>
    1092:	fe0b8fa3          	sb	zero,-1(s7)
    1096:	b339                	j	da4 <rt_vsnprintf+0x5e>

00001098 <rt_console_get_device>:
    1098:	81c1a503          	lw	a0,-2020(gp) # 2000016c <_console_device>
    109c:	8082                	ret

0000109e <rt_console_set_device>:
    109e:	c4cff2ef          	jal	t0,4ea <__riscv_save_0>
    10a2:	81c1a903          	lw	s2,-2020(gp) # 2000016c <_console_device>
    10a6:	dfcff0ef          	jal	ra,6a2 <rt_device_find>
    10aa:	cd11                	beqz	a0,10c6 <rt_console_set_device+0x28>
    10ac:	81c18413          	addi	s0,gp,-2020 # 2000016c <_console_device>
    10b0:	84aa                	mv	s1,a0
    10b2:	4008                	lw	a0,0(s0)
    10b4:	c119                	beqz	a0,10ba <rt_console_set_device+0x1c>
    10b6:	ee2ff0ef          	jal	ra,798 <rt_device_close>
    10ba:	04300593          	li	a1,67
    10be:	8526                	mv	a0,s1
    10c0:	e5eff0ef          	jal	ra,71e <rt_device_open>
    10c4:	c004                	sw	s1,0(s0)
    10c6:	854a                	mv	a0,s2
    10c8:	c46ff06f          	j	50e <__riscv_restore_0>

000010cc <rt_hw_console_output>:
    10cc:	8082                	ret

000010ce <rt_kprintf>:
    10ce:	7139                	addi	sp,sp,-64
    10d0:	ca26                	sw	s1,20(sp)
    10d2:	d22e                	sw	a1,36(sp)
    10d4:	d432                	sw	a2,40(sp)
    10d6:	d636                	sw	a3,44(sp)
    10d8:	862a                	mv	a2,a0
    10da:	1054                	addi	a3,sp,36
    10dc:	07f00593          	li	a1,127
    10e0:	b5018513          	addi	a0,gp,-1200 # 200004a0 <rt_log_buf.2695>
    10e4:	da3e                	sw	a5,52(sp)
    10e6:	c636                	sw	a3,12(sp)
    10e8:	ce06                	sw	ra,28(sp)
    10ea:	cc22                	sw	s0,24(sp)
    10ec:	d83a                	sw	a4,48(sp)
    10ee:	dc42                	sw	a6,56(sp)
    10f0:	de46                	sw	a7,60(sp)
    10f2:	3991                	jal	d46 <rt_vsnprintf>
    10f4:	86aa                	mv	a3,a0
    10f6:	81c1a503          	lw	a0,-2020(gp) # 2000016c <_console_device>
    10fa:	e909                	bnez	a0,110c <rt_kprintf+0x3e>
    10fc:	b5018513          	addi	a0,gp,-1200 # 200004a0 <rt_log_buf.2695>
    1100:	37f1                	jal	10cc <rt_hw_console_output>
    1102:	40f2                	lw	ra,28(sp)
    1104:	4462                	lw	s0,24(sp)
    1106:	44d2                	lw	s1,20(sp)
    1108:	6121                	addi	sp,sp,64
    110a:	8082                	ret
    110c:	8626                	mv	a2,s1
    110e:	2d26                	lhu	s1,26(a0)
    1110:	81c18413          	addi	s0,gp,-2020 # 2000016c <_console_device>
    1114:	0404e793          	ori	a5,s1,64
    1118:	ad3e                	sh	a5,26(a0)
    111a:	07f00793          	li	a5,127
    111e:	00d7f463          	bgeu	a5,a3,1126 <rt_kprintf+0x58>
    1122:	07f00693          	li	a3,127
    1126:	b5018613          	addi	a2,gp,-1200 # 200004a0 <rt_log_buf.2695>
    112a:	4581                	li	a1,0
    112c:	ec0ff0ef          	jal	ra,7ec <rt_device_write>
    1130:	401c                	lw	a5,0(s0)
    1132:	afa6                	sh	s1,26(a5)
    1134:	b7f9                	j	1102 <rt_kprintf+0x34>

00001136 <rt_show_version>:
    1136:	bb4ff2ef          	jal	t0,4ea <__riscv_save_0>
    113a:	00008537          	lui	a0,0x8
    113e:	03850513          	addi	a0,a0,56 # 8038 <large_digits.2585+0x14>
    1142:	3771                	jal	10ce <rt_kprintf>
    1144:	00008537          	lui	a0,0x8
    1148:	04450513          	addi	a0,a0,68 # 8044 <large_digits.2585+0x20>
    114c:	3749                	jal	10ce <rt_kprintf>
    114e:	00008737          	lui	a4,0x8
    1152:	00008537          	lui	a0,0x8
    1156:	06870713          	addi	a4,a4,104 # 8068 <large_digits.2585+0x44>
    115a:	468d                	li	a3,3
    115c:	4605                	li	a2,1
    115e:	458d                	li	a1,3
    1160:	07450513          	addi	a0,a0,116 # 8074 <large_digits.2585+0x50>
    1164:	37ad                	jal	10ce <rt_kprintf>
    1166:	00008537          	lui	a0,0x8
    116a:	09450513          	addi	a0,a0,148 # 8094 <large_digits.2585+0x70>
    116e:	3785                	jal	10ce <rt_kprintf>
    1170:	b9eff06f          	j	50e <__riscv_restore_0>

00001174 <__rt_ffs>:
    1174:	c531                	beqz	a0,11c0 <__rt_ffs+0x4c>
    1176:	66a1                	lui	a3,0x8
    1178:	0ff57713          	andi	a4,a0,255
    117c:	f2468693          	addi	a3,a3,-220 # 7f24 <__lowest_bit_bitmap>
    1180:	c709                	beqz	a4,118a <__rt_ffs+0x16>
    1182:	96ba                	add	a3,a3,a4
    1184:	2288                	lbu	a0,0(a3)
    1186:	0505                	addi	a0,a0,1
    1188:	8082                	ret
    118a:	67c1                	lui	a5,0x10
    118c:	f0078793          	addi	a5,a5,-256 # ff00 <__rt_init_end+0x63a4>
    1190:	8fe9                	and	a5,a5,a0
    1192:	cb81                	beqz	a5,11a2 <__rt_ffs+0x2e>
    1194:	8521                	srai	a0,a0,0x8
    1196:	0ff57713          	andi	a4,a0,255
    119a:	9736                	add	a4,a4,a3
    119c:	2308                	lbu	a0,0(a4)
    119e:	0525                	addi	a0,a0,9
    11a0:	8082                	ret
    11a2:	00ff07b7          	lui	a5,0xff0
    11a6:	8fe9                	and	a5,a5,a0
    11a8:	cb81                	beqz	a5,11b8 <__rt_ffs+0x44>
    11aa:	8541                	srai	a0,a0,0x10
    11ac:	0ff57793          	andi	a5,a0,255
    11b0:	97b6                	add	a5,a5,a3
    11b2:	2388                	lbu	a0,0(a5)
    11b4:	0545                	addi	a0,a0,17
    11b6:	8082                	ret
    11b8:	8161                	srli	a0,a0,0x18
    11ba:	9536                	add	a0,a0,a3
    11bc:	2108                	lbu	a0,0(a0)
    11be:	0565                	addi	a0,a0,25
    11c0:	8082                	ret

000011c2 <plug_holes>:
    11c2:	8241a703          	lw	a4,-2012(gp) # 20000174 <heap_ptr>
    11c6:	415c                	lw	a5,4(a0)
    11c8:	97ba                	add	a5,a5,a4
    11ca:	02f50563          	beq	a0,a5,11f4 <plug_holes+0x32>
    11ce:	23b6                	lhu	a3,2(a5)
    11d0:	e295                	bnez	a3,11f4 <plug_holes+0x32>
    11d2:	8201a683          	lw	a3,-2016(gp) # 20000170 <heap_end>
    11d6:	00f68f63          	beq	a3,a5,11f4 <plug_holes+0x32>
    11da:	82818693          	addi	a3,gp,-2008 # 20000178 <lfree>
    11de:	4290                	lw	a2,0(a3)
    11e0:	00f61363          	bne	a2,a5,11e6 <plug_holes+0x24>
    11e4:	c288                	sw	a0,0(a3)
    11e6:	43d4                	lw	a3,4(a5)
    11e8:	c154                	sw	a3,4(a0)
    11ea:	43dc                	lw	a5,4(a5)
    11ec:	40e506b3          	sub	a3,a0,a4
    11f0:	97ba                	add	a5,a5,a4
    11f2:	c794                	sw	a3,8(a5)
    11f4:	4510                	lw	a2,8(a0)
    11f6:	00c707b3          	add	a5,a4,a2
    11fa:	00f50f63          	beq	a0,a5,1218 <plug_holes+0x56>
    11fe:	23b6                	lhu	a3,2(a5)
    1200:	ee81                	bnez	a3,1218 <plug_holes+0x56>
    1202:	82818693          	addi	a3,gp,-2008 # 20000178 <lfree>
    1206:	428c                	lw	a1,0(a3)
    1208:	00a59363          	bne	a1,a0,120e <plug_holes+0x4c>
    120c:	c29c                	sw	a5,0(a3)
    120e:	4154                	lw	a3,4(a0)
    1210:	c3d4                	sw	a3,4(a5)
    1212:	415c                	lw	a5,4(a0)
    1214:	973e                	add	a4,a4,a5
    1216:	c710                	sw	a2,8(a4)
    1218:	8082                	ret

0000121a <list_mem>:
    121a:	ad0ff2ef          	jal	t0,4ea <__riscv_save_0>
    121e:	8301a583          	lw	a1,-2000(gp) # 20000180 <mem_size_aligned>
    1222:	00008537          	lui	a0,0x8
    1226:	0dc50513          	addi	a0,a0,220 # 80dc <small_digits.2584+0x14>
    122a:	3555                	jal	10ce <rt_kprintf>
    122c:	83c1a583          	lw	a1,-1988(gp) # 2000018c <used_mem>
    1230:	00008537          	lui	a0,0x8
    1234:	0f050513          	addi	a0,a0,240 # 80f0 <small_digits.2584+0x28>
    1238:	3d59                	jal	10ce <rt_kprintf>
    123a:	82c1a583          	lw	a1,-2004(gp) # 2000017c <max_mem>
    123e:	00008537          	lui	a0,0x8
    1242:	10450513          	addi	a0,a0,260 # 8104 <small_digits.2584+0x3c>
    1246:	3561                	jal	10ce <rt_kprintf>
    1248:	ac6ff06f          	j	50e <__riscv_restore_0>

0000124c <rt_system_heap_init>:
    124c:	a9eff2ef          	jal	t0,4ea <__riscv_save_0>
    1250:	ffc5f713          	andi	a4,a1,-4
    1254:	46e1                	li	a3,24
    1256:	862e                	mv	a2,a1
    1258:	06e6f163          	bgeu	a3,a4,12ba <rt_system_heap_init+0x6e>
    125c:	00350793          	addi	a5,a0,3
    1260:	9bf1                	andi	a5,a5,-4
    1262:	fe870693          	addi	a3,a4,-24
    1266:	04f6ea63          	bltu	a3,a5,12ba <rt_system_heap_init+0x6e>
    126a:	8f1d                	sub	a4,a4,a5
    126c:	fe870613          	addi	a2,a4,-24
    1270:	82c1a823          	sw	a2,-2000(gp) # 20000180 <mem_size_aligned>
    1274:	6689                	lui	a3,0x2
    1276:	1751                	addi	a4,a4,-12
    1278:	82418413          	addi	s0,gp,-2012 # 20000174 <heap_ptr>
    127c:	ea068693          	addi	a3,a3,-352 # 1ea0 <list_sem+0x1e>
    1280:	c3d8                	sw	a4,4(a5)
    1282:	c394                	sw	a3,0(a5)
    1284:	0007a423          	sw	zero,8(a5) # ff0008 <__rt_init_end+0xfe64ac>
    1288:	c01c                	sw	a5,0(s0)
    128a:	97ba                	add	a5,a5,a4
    128c:	82f1a023          	sw	a5,-2016(gp) # 20000170 <heap_end>
    1290:	66c9                	lui	a3,0x12
    1292:	ea068693          	addi	a3,a3,-352 # 11ea0 <__rt_init_end+0x8344>
    1296:	000085b7          	lui	a1,0x8
    129a:	c394                	sw	a3,0(a5)
    129c:	c3d8                	sw	a4,4(a5)
    129e:	c798                	sw	a4,8(a5)
    12a0:	4681                	li	a3,0
    12a2:	4605                	li	a2,1
    12a4:	19c58593          	addi	a1,a1,412 # 819c <__fsym_list_mem_name+0x58>
    12a8:	bd018513          	addi	a0,gp,-1072 # 20000520 <heap_sem>
    12ac:	e82ff0ef          	jal	ra,92e <rt_sem_init>
    12b0:	4018                	lw	a4,0(s0)
    12b2:	82e1a423          	sw	a4,-2008(gp) # 20000178 <lfree>
    12b6:	a58ff06f          	j	50e <__riscv_restore_0>
    12ba:	85aa                	mv	a1,a0
    12bc:	00008537          	lui	a0,0x8
    12c0:	1a450513          	addi	a0,a0,420 # 81a4 <__fsym_list_mem_name+0x60>
    12c4:	3529                	jal	10ce <rt_kprintf>
    12c6:	bfc5                	j	12b6 <rt_system_heap_init+0x6a>

000012c8 <rt_malloc>:
    12c8:	a22ff2ef          	jal	t0,4ea <__riscv_save_0>
    12cc:	c539                	beqz	a0,131a <rt_malloc+0x52>
    12ce:	8301a703          	lw	a4,-2000(gp) # 20000180 <mem_size_aligned>
    12d2:	00350413          	addi	s0,a0,3
    12d6:	9871                	andi	s0,s0,-4
    12d8:	83018913          	addi	s2,gp,-2000 # 20000180 <mem_size_aligned>
    12dc:	4481                	li	s1,0
    12de:	0e876663          	bltu	a4,s0,13ca <rt_malloc+0x102>
    12e2:	47b1                	li	a5,12
    12e4:	00f47363          	bgeu	s0,a5,12ea <rt_malloc+0x22>
    12e8:	4431                	li	s0,12
    12ea:	55fd                	li	a1,-1
    12ec:	bd018513          	addi	a0,gp,-1072 # 20000520 <heap_sem>
    12f0:	e66ff0ef          	jal	ra,956 <rt_sem_take>
    12f4:	8281a783          	lw	a5,-2008(gp) # 20000178 <lfree>
    12f8:	8241a583          	lw	a1,-2012(gp) # 20000174 <heap_ptr>
    12fc:	00092883          	lw	a7,0(s2)
    1300:	8526                	mv	a0,s1
    1302:	40b78633          	sub	a2,a5,a1
    1306:	408886b3          	sub	a3,a7,s0
    130a:	82818813          	addi	a6,gp,-2008 # 20000178 <lfree>
    130e:	00d66863          	bltu	a2,a3,131e <rt_malloc+0x56>
    1312:	bd018513          	addi	a0,gp,-1072 # 20000520 <heap_sem>
    1316:	ec0ff0ef          	jal	ra,9d6 <rt_sem_release>
    131a:	4481                	li	s1,0
    131c:	a07d                	j	13ca <rt_malloc+0x102>
    131e:	00c584b3          	add	s1,a1,a2
    1322:	20ba                	lhu	a4,2(s1)
    1324:	0044ae03          	lw	t3,4(s1)
    1328:	e761                	bnez	a4,13f0 <rt_malloc+0x128>
    132a:	40ce0733          	sub	a4,t3,a2
    132e:	ff470f93          	addi	t6,a4,-12
    1332:	0a8fef63          	bltu	t6,s0,13f0 <rt_malloc+0x128>
    1336:	83c18f13          	addi	t5,gp,-1988 # 2000018c <used_mem>
    133a:	82c18e93          	addi	t4,gp,-2004 # 2000017c <max_mem>
    133e:	01840313          	addi	t1,s0,24
    1342:	000f2683          	lw	a3,0(t5)
    1346:	000ea383          	lw	t2,0(t4)
    134a:	83c18913          	addi	s2,gp,-1988 # 2000018c <used_mem>
    134e:	82c18293          	addi	t0,gp,-2004 # 2000017c <max_mem>
    1352:	066fef63          	bltu	t6,t1,13d0 <rt_malloc+0x108>
    1356:	00c40713          	addi	a4,s0,12
    135a:	9732                	add	a4,a4,a2
    135c:	6e89                	lui	t4,0x2
    135e:	00e58333          	add	t1,a1,a4
    1362:	ea0e8e93          	addi	t4,t4,-352 # 1ea0 <list_sem+0x1e>
    1366:	01c32223          	sw	t3,4(t1)
    136a:	00c32423          	sw	a2,8(t1)
    136e:	01d32023          	sw	t4,0(t1)
    1372:	4605                	li	a2,1
    1374:	c0d8                	sw	a4,4(s1)
    1376:	a0b2                	sh	a2,2(s1)
    1378:	00432603          	lw	a2,4(t1)
    137c:	08b1                	addi	a7,a7,12
    137e:	01160463          	beq	a2,a7,1386 <rt_malloc+0xbe>
    1382:	962e                	add	a2,a2,a1
    1384:	c618                	sw	a4,8(a2)
    1386:	00c68713          	addi	a4,a3,12
    138a:	9722                	add	a4,a4,s0
    138c:	00e92023          	sw	a4,0(s2)
    1390:	00e3f463          	bgeu	t2,a4,1398 <rt_malloc+0xd0>
    1394:	00e2a023          	sw	a4,0(t0) # 5a8 <memset+0x8e>
    1398:	6709                	lui	a4,0x2
    139a:	ea070713          	addi	a4,a4,-352 # 1ea0 <list_sem+0x1e>
    139e:	a09a                	sh	a4,0(s1)
    13a0:	00979a63          	bne	a5,s1,13b4 <rt_malloc+0xec>
    13a4:	8201a683          	lw	a3,-2016(gp) # 20000170 <heap_end>
    13a8:	4701                	li	a4,0
    13aa:	23b2                	lhu	a2,2(a5)
    13ac:	ee05                	bnez	a2,13e4 <rt_malloc+0x11c>
    13ae:	c319                	beqz	a4,13b4 <rt_malloc+0xec>
    13b0:	00f82023          	sw	a5,0(a6)
    13b4:	bd018513          	addi	a0,gp,-1072 # 20000520 <heap_sem>
    13b8:	e1eff0ef          	jal	ra,9d6 <rt_sem_release>
    13bc:	8381a783          	lw	a5,-1992(gp) # 20000188 <rt_malloc_hook>
    13c0:	04b1                	addi	s1,s1,12
    13c2:	c781                	beqz	a5,13ca <rt_malloc+0x102>
    13c4:	85a2                	mv	a1,s0
    13c6:	8526                	mv	a0,s1
    13c8:	9782                	jalr	a5
    13ca:	8526                	mv	a0,s1
    13cc:	942ff06f          	j	50e <__riscv_restore_0>
    13d0:	4605                	li	a2,1
    13d2:	9736                	add	a4,a4,a3
    13d4:	a0b2                	sh	a2,2(s1)
    13d6:	00ef2023          	sw	a4,0(t5)
    13da:	fae3ffe3          	bgeu	t2,a4,1398 <rt_malloc+0xd0>
    13de:	00eea023          	sw	a4,0(t4)
    13e2:	bf5d                	j	1398 <rt_malloc+0xd0>
    13e4:	fcd785e3          	beq	a5,a3,13ae <rt_malloc+0xe6>
    13e8:	43dc                	lw	a5,4(a5)
    13ea:	4705                	li	a4,1
    13ec:	97ae                	add	a5,a5,a1
    13ee:	bf75                	j	13aa <rt_malloc+0xe2>
    13f0:	8672                	mv	a2,t3
    13f2:	bf31                	j	130e <rt_malloc+0x46>

000013f4 <rt_calloc>:
    13f4:	8f6ff2ef          	jal	t0,4ea <__riscv_save_0>
    13f8:	02b50633          	mul	a2,a0,a1
    13fc:	1141                	addi	sp,sp,-16
    13fe:	8532                	mv	a0,a2
    1400:	c632                	sw	a2,12(sp)
    1402:	35d9                	jal	12c8 <rt_malloc>
    1404:	842a                	mv	s0,a0
    1406:	c509                	beqz	a0,1410 <rt_calloc+0x1c>
    1408:	4632                	lw	a2,12(sp)
    140a:	4581                	li	a1,0
    140c:	803ff0ef          	jal	ra,c0e <rt_memset>
    1410:	8522                	mv	a0,s0
    1412:	0141                	addi	sp,sp,16
    1414:	8faff06f          	j	50e <__riscv_restore_0>

00001418 <rt_free>:
    1418:	c545                	beqz	a0,14c0 <rt_free+0xa8>
    141a:	8b6ff2ef          	jal	t0,4d0 <__riscv_save_4>
    141e:	8341a783          	lw	a5,-1996(gp) # 20000184 <rt_free_hook>
    1422:	842a                	mv	s0,a0
    1424:	c391                	beqz	a5,1428 <rt_free+0x10>
    1426:	9782                	jalr	a5
    1428:	8241a783          	lw	a5,-2012(gp) # 20000174 <heap_ptr>
    142c:	82418913          	addi	s2,gp,-2012 # 20000174 <heap_ptr>
    1430:	08f46663          	bltu	s0,a5,14bc <rt_free+0xa4>
    1434:	8201a783          	lw	a5,-2016(gp) # 20000170 <heap_end>
    1438:	08f47263          	bgeu	s0,a5,14bc <rt_free+0xa4>
    143c:	55fd                	li	a1,-1
    143e:	bd018513          	addi	a0,gp,-1072 # 20000520 <heap_sem>
    1442:	d14ff0ef          	jal	ra,956 <rt_sem_take>
    1446:	ff645783          	lhu	a5,-10(s0)
    144a:	ff440993          	addi	s3,s0,-12
    144e:	cb81                	beqz	a5,145e <rt_free+0x46>
    1450:	ff445703          	lhu	a4,-12(s0)
    1454:	6789                	lui	a5,0x2
    1456:	ea078793          	addi	a5,a5,-352 # 1ea0 <list_sem+0x1e>
    145a:	02f70163          	beq	a4,a5,147c <rt_free+0x64>
    145e:	00008537          	lui	a0,0x8
    1462:	15050513          	addi	a0,a0,336 # 8150 <__fsym_list_mem_name+0xc>
    1466:	31a5                	jal	10ce <rt_kprintf>
    1468:	ff445683          	lhu	a3,-12(s0)
    146c:	ff645603          	lhu	a2,-10(s0)
    1470:	00008537          	lui	a0,0x8
    1474:	85ce                	mv	a1,s3
    1476:	16c50513          	addi	a0,a0,364 # 816c <__fsym_list_mem_name+0x28>
    147a:	3991                	jal	10ce <rt_kprintf>
    147c:	6789                	lui	a5,0x2
    147e:	ea078793          	addi	a5,a5,-352 # 1ea0 <list_sem+0x1e>
    1482:	fef41a23          	sh	a5,-12(s0)
    1486:	82818793          	addi	a5,gp,-2008 # 20000178 <lfree>
    148a:	4398                	lw	a4,0(a5)
    148c:	fe041b23          	sh	zero,-10(s0)
    1490:	00e9f463          	bgeu	s3,a4,1498 <rt_free+0x80>
    1494:	0137a023          	sw	s3,0(a5)
    1498:	83c18713          	addi	a4,gp,-1988 # 2000018c <used_mem>
    149c:	431c                	lw	a5,0(a4)
    149e:	ff842683          	lw	a3,-8(s0)
    14a2:	854e                	mv	a0,s3
    14a4:	8f95                	sub	a5,a5,a3
    14a6:	00092683          	lw	a3,0(s2)
    14aa:	40d986b3          	sub	a3,s3,a3
    14ae:	97b6                	add	a5,a5,a3
    14b0:	c31c                	sw	a5,0(a4)
    14b2:	3b01                	jal	11c2 <plug_holes>
    14b4:	bd018513          	addi	a0,gp,-1072 # 20000520 <heap_sem>
    14b8:	d1eff0ef          	jal	ra,9d6 <rt_sem_release>
    14bc:	848ff06f          	j	504 <__riscv_restore_4>
    14c0:	8082                	ret

000014c2 <rt_object_get_information>:
    14c2:	200007b7          	lui	a5,0x20000
    14c6:	00078693          	mv	a3,a5
    14ca:	4701                	li	a4,0
    14cc:	00078793          	mv	a5,a5
    14d0:	4621                	li	a2,8
    14d2:	428c                	lw	a1,0(a3)
    14d4:	00a59663          	bne	a1,a0,14e0 <rt_object_get_information+0x1e>
    14d8:	00471513          	slli	a0,a4,0x4
    14dc:	953e                	add	a0,a0,a5
    14de:	8082                	ret
    14e0:	0705                	addi	a4,a4,1
    14e2:	06c1                	addi	a3,a3,16
    14e4:	fec717e3          	bne	a4,a2,14d2 <rt_object_get_information+0x10>
    14e8:	4501                	li	a0,0
    14ea:	8082                	ret

000014ec <rt_object_init>:
    14ec:	fe5fe2ef          	jal	t0,4d0 <__riscv_save_4>
    14f0:	842a                	mv	s0,a0
    14f2:	852e                	mv	a0,a1
    14f4:	89ae                	mv	s3,a1
    14f6:	8a32                	mv	s4,a2
    14f8:	37e9                	jal	14c2 <rt_object_get_information>
    14fa:	892a                	mv	s2,a0
    14fc:	2ca9                	jal	1756 <rt_enter_critical>
    14fe:	00492483          	lw	s1,4(s2)
    1502:	00490793          	addi	a5,s2,4
    1506:	04f49063          	bne	s1,a5,1546 <rt_object_init+0x5a>
    150a:	248d                	jal	176c <rt_exit_critical>
    150c:	f809e993          	ori	s3,s3,-128
    1510:	01340423          	sb	s3,8(s0)
    1514:	4621                	li	a2,8
    1516:	85d2                	mv	a1,s4
    1518:	8522                	mv	a0,s0
    151a:	fc4ff0ef          	jal	ra,cde <rt_strncpy>
    151e:	8401a783          	lw	a5,-1984(gp) # 20000190 <rt_object_attach_hook>
    1522:	c399                	beqz	a5,1528 <rt_object_init+0x3c>
    1524:	8522                	mv	a0,s0
    1526:	9782                	jalr	a5
    1528:	776000ef          	jal	ra,1c9e <rt_hw_interrupt_disable>
    152c:	00492703          	lw	a4,4(s2)
    1530:	00c40793          	addi	a5,s0,12
    1534:	c35c                	sw	a5,4(a4)
    1536:	c458                	sw	a4,12(s0)
    1538:	00f92223          	sw	a5,4(s2)
    153c:	c804                	sw	s1,16(s0)
    153e:	76c000ef          	jal	ra,1caa <rt_hw_interrupt_enable>
    1542:	fc3fe06f          	j	504 <__riscv_restore_4>
    1546:	4084                	lw	s1,0(s1)
    1548:	bf7d                	j	1506 <rt_object_init+0x1a>

0000154a <rt_object_detach>:
    154a:	fa1fe2ef          	jal	t0,4ea <__riscv_save_0>
    154e:	8441a783          	lw	a5,-1980(gp) # 20000194 <rt_object_detach_hook>
    1552:	842a                	mv	s0,a0
    1554:	c391                	beqz	a5,1558 <rt_object_detach+0xe>
    1556:	9782                	jalr	a5
    1558:	00040423          	sb	zero,8(s0)
    155c:	742000ef          	jal	ra,1c9e <rt_hw_interrupt_disable>
    1560:	4454                	lw	a3,12(s0)
    1562:	4818                	lw	a4,16(s0)
    1564:	00c40793          	addi	a5,s0,12
    1568:	c2d8                	sw	a4,4(a3)
    156a:	c314                	sw	a3,0(a4)
    156c:	c81c                	sw	a5,16(s0)
    156e:	c45c                	sw	a5,12(s0)
    1570:	73a000ef          	jal	ra,1caa <rt_hw_interrupt_enable>
    1574:	f9bfe06f          	j	50e <__riscv_restore_0>

00001578 <rt_object_allocate>:
    1578:	f59fe2ef          	jal	t0,4d0 <__riscv_save_4>
    157c:	892e                	mv	s2,a1
    157e:	89aa                	mv	s3,a0
    1580:	3789                	jal	14c2 <rt_object_get_information>
    1582:	84aa                	mv	s1,a0
    1584:	4548                	lw	a0,12(a0)
    1586:	3389                	jal	12c8 <rt_malloc>
    1588:	842a                	mv	s0,a0
    158a:	cd1d                	beqz	a0,15c8 <rt_object_allocate+0x50>
    158c:	44d0                	lw	a2,12(s1)
    158e:	4581                	li	a1,0
    1590:	e7eff0ef          	jal	ra,c0e <rt_memset>
    1594:	4621                	li	a2,8
    1596:	01340423          	sb	s3,8(s0)
    159a:	000404a3          	sb	zero,9(s0)
    159e:	85ca                	mv	a1,s2
    15a0:	8522                	mv	a0,s0
    15a2:	f3cff0ef          	jal	ra,cde <rt_strncpy>
    15a6:	8401a783          	lw	a5,-1984(gp) # 20000190 <rt_object_attach_hook>
    15aa:	c399                	beqz	a5,15b0 <rt_object_allocate+0x38>
    15ac:	8522                	mv	a0,s0
    15ae:	9782                	jalr	a5
    15b0:	6ee000ef          	jal	ra,1c9e <rt_hw_interrupt_disable>
    15b4:	40d8                	lw	a4,4(s1)
    15b6:	00c40793          	addi	a5,s0,12
    15ba:	0491                	addi	s1,s1,4
    15bc:	c35c                	sw	a5,4(a4)
    15be:	c458                	sw	a4,12(s0)
    15c0:	c09c                	sw	a5,0(s1)
    15c2:	c804                	sw	s1,16(s0)
    15c4:	6e6000ef          	jal	ra,1caa <rt_hw_interrupt_enable>
    15c8:	8522                	mv	a0,s0
    15ca:	f3bfe06f          	j	504 <__riscv_restore_4>

000015ce <rt_object_delete>:
    15ce:	f1dfe2ef          	jal	t0,4ea <__riscv_save_0>
    15d2:	8441a783          	lw	a5,-1980(gp) # 20000194 <rt_object_detach_hook>
    15d6:	842a                	mv	s0,a0
    15d8:	c391                	beqz	a5,15dc <rt_object_delete+0xe>
    15da:	9782                	jalr	a5
    15dc:	00040423          	sb	zero,8(s0)
    15e0:	6be000ef          	jal	ra,1c9e <rt_hw_interrupt_disable>
    15e4:	4454                	lw	a3,12(s0)
    15e6:	4818                	lw	a4,16(s0)
    15e8:	00c40793          	addi	a5,s0,12
    15ec:	c2d8                	sw	a4,4(a3)
    15ee:	c314                	sw	a3,0(a4)
    15f0:	c81c                	sw	a5,16(s0)
    15f2:	c45c                	sw	a5,12(s0)
    15f4:	6b6000ef          	jal	ra,1caa <rt_hw_interrupt_enable>
    15f8:	8522                	mv	a0,s0
    15fa:	3d39                	jal	1418 <rt_free>
    15fc:	f13fe06f          	j	50e <__riscv_restore_0>

00001600 <rt_object_is_systemobject>:
    1600:	00850503          	lb	a0,8(a0)
    1604:	817d                	srli	a0,a0,0x1f
    1606:	8082                	ret

00001608 <rt_system_scheduler_init>:
    1608:	86019023          	sh	zero,-1952(gp) # 200001b0 <rt_scheduler_lock_nest>
    160c:	bf018793          	addi	a5,gp,-1040 # 20000540 <rt_thread_priority_table>
    1610:	08078713          	addi	a4,a5,128 # 20000080 <pin_irq_hdr_tab>
    1614:	c3dc                	sw	a5,4(a5)
    1616:	c39c                	sw	a5,0(a5)
    1618:	07a1                	addi	a5,a5,8
    161a:	fee79de3          	bne	a5,a4,1614 <rt_system_scheduler_init+0xc>
    161e:	473d                	li	a4,15
    1620:	84e18a23          	sb	a4,-1964(gp) # 200001a4 <rt_current_priority>
    1624:	8401ac23          	sw	zero,-1960(gp) # 200001a8 <rt_current_thread>
    1628:	8601a623          	sw	zero,-1940(gp) # 200001bc <rt_thread_ready_priority_group>
    162c:	86418793          	addi	a5,gp,-1948 # 200001b4 <rt_thread_defunct>
    1630:	c3dc                	sw	a5,4(a5)
    1632:	c39c                	sw	a5,0(a5)
    1634:	8082                	ret

00001636 <rt_system_scheduler_start>:
    1636:	eb5fe2ef          	jal	t0,4ea <__riscv_save_0>
    163a:	86c1a503          	lw	a0,-1940(gp) # 200001bc <rt_thread_ready_priority_group>
    163e:	b37ff0ef          	jal	ra,1174 <__rt_ffs>
    1642:	157d                	addi	a0,a0,-1
    1644:	00351793          	slli	a5,a0,0x3
    1648:	bf018513          	addi	a0,gp,-1040 # 20000540 <rt_thread_priority_table>
    164c:	953e                	add	a0,a0,a5
    164e:	4108                	lw	a0,0(a0)
    1650:	fec50713          	addi	a4,a0,-20
    1654:	0521                	addi	a0,a0,8
    1656:	84e1ac23          	sw	a4,-1960(gp) # 200001a8 <rt_current_thread>
    165a:	ba7fe0ef          	jal	ra,200 <rt_hw_context_switch_to>
    165e:	eb1fe06f          	j	50e <__riscv_restore_0>

00001662 <rt_schedule>:
    1662:	e89fe2ef          	jal	t0,4ea <__riscv_save_0>
    1666:	638000ef          	jal	ra,1c9e <rt_hw_interrupt_disable>
    166a:	86019783          	lh	a5,-1952(gp) # 200001b0 <rt_scheduler_lock_nest>
    166e:	892a                	mv	s2,a0
    1670:	e7b1                	bnez	a5,16bc <rt_schedule+0x5a>
    1672:	86c1a503          	lw	a0,-1940(gp) # 200001bc <rt_thread_ready_priority_group>
    1676:	affff0ef          	jal	ra,1174 <__rt_ffs>
    167a:	157d                	addi	a0,a0,-1
    167c:	00351713          	slli	a4,a0,0x3
    1680:	bf018793          	addi	a5,gp,-1040 # 20000540 <rt_thread_priority_table>
    1684:	97ba                	add	a5,a5,a4
    1686:	4384                	lw	s1,0(a5)
    1688:	85818793          	addi	a5,gp,-1960 # 200001a8 <rt_current_thread>
    168c:	4380                	lw	s0,0(a5)
    168e:	fec48593          	addi	a1,s1,-20
    1692:	02b40563          	beq	s0,a1,16bc <rt_schedule+0x5a>
    1696:	c38c                	sw	a1,0(a5)
    1698:	85c1a783          	lw	a5,-1956(gp) # 200001ac <rt_scheduler_hook>
    169c:	84a18a23          	sb	a0,-1964(gp) # 200001a4 <rt_current_priority>
    16a0:	c399                	beqz	a5,16a6 <rt_schedule+0x44>
    16a2:	8522                	mv	a0,s0
    16a4:	9782                	jalr	a5
    16a6:	8141c783          	lbu	a5,-2028(gp) # 20000164 <rt_interrupt_nest>
    16aa:	01c40513          	addi	a0,s0,28
    16ae:	00848593          	addi	a1,s1,8
    16b2:	0ff7f793          	andi	a5,a5,255
    16b6:	eb81                	bnez	a5,16c6 <rt_schedule+0x64>
    16b8:	b65fe0ef          	jal	ra,21c <rt_hw_context_switch>
    16bc:	854a                	mv	a0,s2
    16be:	5ec000ef          	jal	ra,1caa <rt_hw_interrupt_enable>
    16c2:	e4dfe06f          	j	50e <__riscv_restore_0>
    16c6:	5ea000ef          	jal	ra,1cb0 <rt_hw_context_switch_interrupt>
    16ca:	bfcd                	j	16bc <rt_schedule+0x5a>

000016cc <rt_schedule_insert_thread>:
    16cc:	e1ffe2ef          	jal	t0,4ea <__riscv_save_0>
    16d0:	842a                	mv	s0,a0
    16d2:	5cc000ef          	jal	ra,1c9e <rt_hw_interrupt_disable>
    16d6:	03444783          	lbu	a5,52(s0)
    16da:	01440693          	addi	a3,s0,20
    16de:	9bc1                	andi	a5,a5,-16
    16e0:	0017e793          	ori	a5,a5,1
    16e4:	02f40a23          	sb	a5,52(s0)
    16e8:	03544783          	lbu	a5,53(s0)
    16ec:	00379713          	slli	a4,a5,0x3
    16f0:	bf018793          	addi	a5,gp,-1040 # 20000540 <rt_thread_priority_table>
    16f4:	97ba                	add	a5,a5,a4
    16f6:	43d8                	lw	a4,4(a5)
    16f8:	c314                	sw	a3,0(a4)
    16fa:	cc18                	sw	a4,24(s0)
    16fc:	c3d4                	sw	a3,4(a5)
    16fe:	c85c                	sw	a5,20(s0)
    1700:	86c18793          	addi	a5,gp,-1940 # 200001bc <rt_thread_ready_priority_group>
    1704:	4394                	lw	a3,0(a5)
    1706:	5c18                	lw	a4,56(s0)
    1708:	8f55                	or	a4,a4,a3
    170a:	c398                	sw	a4,0(a5)
    170c:	59e000ef          	jal	ra,1caa <rt_hw_interrupt_enable>
    1710:	dfffe06f          	j	50e <__riscv_restore_0>

00001714 <rt_schedule_remove_thread>:
    1714:	dd7fe2ef          	jal	t0,4ea <__riscv_save_0>
    1718:	842a                	mv	s0,a0
    171a:	2351                	jal	1c9e <rt_hw_interrupt_disable>
    171c:	4c18                	lw	a4,24(s0)
    171e:	4854                	lw	a3,20(s0)
    1720:	01440793          	addi	a5,s0,20
    1724:	c2d8                	sw	a4,4(a3)
    1726:	c314                	sw	a3,0(a4)
    1728:	c85c                	sw	a5,20(s0)
    172a:	cc1c                	sw	a5,24(s0)
    172c:	03544783          	lbu	a5,53(s0)
    1730:	00379713          	slli	a4,a5,0x3
    1734:	bf018793          	addi	a5,gp,-1040 # 20000540 <rt_thread_priority_table>
    1738:	97ba                	add	a5,a5,a4
    173a:	4398                	lw	a4,0(a5)
    173c:	00f71a63          	bne	a4,a5,1750 <rt_schedule_remove_thread+0x3c>
    1740:	86c18713          	addi	a4,gp,-1940 # 200001bc <rt_thread_ready_priority_group>
    1744:	5c1c                	lw	a5,56(s0)
    1746:	4314                	lw	a3,0(a4)
    1748:	fff7c793          	not	a5,a5
    174c:	8ff5                	and	a5,a5,a3
    174e:	c31c                	sw	a5,0(a4)
    1750:	2ba9                	jal	1caa <rt_hw_interrupt_enable>
    1752:	dbdfe06f          	j	50e <__riscv_restore_0>

00001756 <rt_enter_critical>:
    1756:	d95fe2ef          	jal	t0,4ea <__riscv_save_0>
    175a:	2391                	jal	1c9e <rt_hw_interrupt_disable>
    175c:	86018793          	addi	a5,gp,-1952 # 200001b0 <rt_scheduler_lock_nest>
    1760:	239a                	lhu	a4,0(a5)
    1762:	0705                	addi	a4,a4,1
    1764:	a39a                	sh	a4,0(a5)
    1766:	2391                	jal	1caa <rt_hw_interrupt_enable>
    1768:	da7fe06f          	j	50e <__riscv_restore_0>

0000176c <rt_exit_critical>:
    176c:	d7ffe2ef          	jal	t0,4ea <__riscv_save_0>
    1770:	233d                	jal	1c9e <rt_hw_interrupt_disable>
    1772:	86018713          	addi	a4,gp,-1952 # 200001b0 <rt_scheduler_lock_nest>
    1776:	231e                	lhu	a5,0(a4)
    1778:	17fd                	addi	a5,a5,-1
    177a:	07c2                	slli	a5,a5,0x10
    177c:	87c1                	srai	a5,a5,0x10
    177e:	a31e                	sh	a5,0(a4)
    1780:	00f04b63          	bgtz	a5,1796 <rt_exit_critical+0x2a>
    1784:	00071023          	sh	zero,0(a4)
    1788:	230d                	jal	1caa <rt_hw_interrupt_enable>
    178a:	8581a783          	lw	a5,-1960(gp) # 200001a8 <rt_current_thread>
    178e:	c391                	beqz	a5,1792 <rt_exit_critical+0x26>
    1790:	3dc9                	jal	1662 <rt_schedule>
    1792:	d7dfe06f          	j	50e <__riscv_restore_0>
    1796:	2b11                	jal	1caa <rt_hw_interrupt_enable>
    1798:	bfed                	j	1792 <rt_exit_critical+0x26>

0000179a <rt_thread_exit>:
    179a:	d51fe2ef          	jal	t0,4ea <__riscv_save_0>
    179e:	8581a403          	lw	s0,-1960(gp) # 200001a8 <rt_current_thread>
    17a2:	29f5                	jal	1c9e <rt_hw_interrupt_disable>
    17a4:	84aa                	mv	s1,a0
    17a6:	8522                	mv	a0,s0
    17a8:	37b5                	jal	1714 <rt_schedule_remove_thread>
    17aa:	4791                	li	a5,4
    17ac:	02f40a23          	sb	a5,52(s0)
    17b0:	04c40513          	addi	a0,s0,76
    17b4:	2631                	jal	1ac0 <rt_timer_detach>
    17b6:	8522                	mv	a0,s0
    17b8:	35a1                	jal	1600 <rt_object_is_systemobject>
    17ba:	4785                	li	a5,1
    17bc:	00f51b63          	bne	a0,a5,17d2 <rt_thread_exit+0x38>
    17c0:	5c3c                	lw	a5,120(s0)
    17c2:	eb81                	bnez	a5,17d2 <rt_thread_exit+0x38>
    17c4:	8522                	mv	a0,s0
    17c6:	3351                	jal	154a <rt_object_detach>
    17c8:	8526                	mv	a0,s1
    17ca:	21c5                	jal	1caa <rt_hw_interrupt_enable>
    17cc:	3d59                	jal	1662 <rt_schedule>
    17ce:	d41fe06f          	j	50e <__riscv_restore_0>
    17d2:	8641a683          	lw	a3,-1948(gp) # 200001b4 <rt_thread_defunct>
    17d6:	01440713          	addi	a4,s0,20
    17da:	86e1a223          	sw	a4,-1948(gp) # 200001b4 <rt_thread_defunct>
    17de:	c2d8                	sw	a4,4(a3)
    17e0:	86418793          	addi	a5,gp,-1948 # 200001b4 <rt_thread_defunct>
    17e4:	c854                	sw	a3,20(s0)
    17e6:	cc1c                	sw	a5,24(s0)
    17e8:	b7c5                	j	17c8 <rt_thread_exit+0x2e>

000017ea <_rt_thread_init.isra.0>:
    17ea:	d01fe2ef          	jal	t0,4ea <__riscv_save_0>
    17ee:	842a                	mv	s0,a0
    17f0:	0551                	addi	a0,a0,20
    17f2:	1141                	addi	sp,sp,-16
    17f4:	cc08                	sw	a0,24(s0)
    17f6:	c848                	sw	a0,20(s0)
    17f8:	d00c                	sw	a1,32(s0)
    17fa:	d050                	sw	a2,36(s0)
    17fc:	d414                	sw	a3,40(s0)
    17fe:	863a                	mv	a2,a4
    1800:	d458                	sw	a4,44(s0)
    1802:	02300593          	li	a1,35
    1806:	8536                	mv	a0,a3
    1808:	c63e                	sw	a5,12(sp)
    180a:	c442                	sw	a6,8(sp)
    180c:	c02ff0ef          	jal	ra,c0e <rt_memset>
    1810:	5458                	lw	a4,44(s0)
    1812:	5410                	lw	a2,40(s0)
    1814:	504c                	lw	a1,36(s0)
    1816:	5008                	lw	a0,32(s0)
    1818:	1771                	addi	a4,a4,-4
    181a:	000016b7          	lui	a3,0x1
    181e:	963a                	add	a2,a2,a4
    1820:	79a68693          	addi	a3,a3,1946 # 179a <rt_thread_exit>
    1824:	211d                	jal	1c4a <rt_hw_stack_init>
    1826:	47b2                	lw	a5,12(sp)
    1828:	4822                	lw	a6,8(sp)
    182a:	00002637          	lui	a2,0x2
    182e:	cc48                	sw	a0,28(s0)
    1830:	02f40b23          	sb	a5,54(s0)
    1834:	02f40aa3          	sb	a5,53(s0)
    1838:	02042c23          	sw	zero,56(s0)
    183c:	4781                	li	a5,0
    183e:	05042223          	sw	a6,68(s0)
    1842:	05042423          	sw	a6,72(s0)
    1846:	02042823          	sw	zero,48(s0)
    184a:	02040a23          	sb	zero,52(s0)
    184e:	06042c23          	sw	zero,120(s0)
    1852:	06042e23          	sw	zero,124(s0)
    1856:	4701                	li	a4,0
    1858:	86a2                	mv	a3,s0
    185a:	87860613          	addi	a2,a2,-1928 # 1878 <rt_thread_timeout>
    185e:	85a2                	mv	a1,s0
    1860:	04c40513          	addi	a0,s0,76
    1864:	240d                	jal	1a86 <rt_timer_init>
    1866:	8701a783          	lw	a5,-1936(gp) # 200001c0 <rt_thread_inited_hook>
    186a:	c399                	beqz	a5,1870 <_rt_thread_init.isra.0+0x86>
    186c:	8522                	mv	a0,s0
    186e:	9782                	jalr	a5
    1870:	4501                	li	a0,0
    1872:	0141                	addi	sp,sp,16
    1874:	c9bfe06f          	j	50e <__riscv_restore_0>

00001878 <rt_thread_timeout>:
    1878:	c73fe2ef          	jal	t0,4ea <__riscv_save_0>
    187c:	4950                	lw	a2,20(a0)
    187e:	4d14                	lw	a3,24(a0)
    1880:	5779                	li	a4,-2
    1882:	d918                	sw	a4,48(a0)
    1884:	c254                	sw	a3,4(a2)
    1886:	01450713          	addi	a4,a0,20
    188a:	c290                	sw	a2,0(a3)
    188c:	cd18                	sw	a4,24(a0)
    188e:	c958                	sw	a4,20(a0)
    1890:	3d35                	jal	16cc <rt_schedule_insert_thread>
    1892:	3bc1                	jal	1662 <rt_schedule>
    1894:	c7bfe06f          	j	50e <__riscv_restore_0>

00001898 <rt_thread_init>:
    1898:	c53fe2ef          	jal	t0,4ea <__riscv_save_0>
    189c:	1141                	addi	sp,sp,-16
    189e:	84b2                	mv	s1,a2
    18a0:	862e                	mv	a2,a1
    18a2:	4585                	li	a1,1
    18a4:	842a                	mv	s0,a0
    18a6:	8936                	mv	s2,a3
    18a8:	c046                	sw	a7,0(sp)
    18aa:	c63a                	sw	a4,12(sp)
    18ac:	c43e                	sw	a5,8(sp)
    18ae:	c242                	sw	a6,4(sp)
    18b0:	c3dff0ef          	jal	ra,14ec <rt_object_init>
    18b4:	4802                	lw	a6,0(sp)
    18b6:	4792                	lw	a5,4(sp)
    18b8:	4722                	lw	a4,8(sp)
    18ba:	46b2                	lw	a3,12(sp)
    18bc:	864a                	mv	a2,s2
    18be:	85a6                	mv	a1,s1
    18c0:	8522                	mv	a0,s0
    18c2:	3725                	jal	17ea <_rt_thread_init.isra.0>
    18c4:	0141                	addi	sp,sp,16
    18c6:	c49fe06f          	j	50e <__riscv_restore_0>

000018ca <rt_thread_self>:
    18ca:	8581a503          	lw	a0,-1960(gp) # 200001a8 <rt_current_thread>
    18ce:	8082                	ret

000018d0 <rt_thread_create>:
    18d0:	c01fe2ef          	jal	t0,4d0 <__riscv_save_4>
    18d4:	1141                	addi	sp,sp,-16
    18d6:	892e                	mv	s2,a1
    18d8:	85aa                	mv	a1,a0
    18da:	4505                	li	a0,1
    18dc:	c632                	sw	a2,12(sp)
    18de:	84b6                	mv	s1,a3
    18e0:	89ba                	mv	s3,a4
    18e2:	8a3e                	mv	s4,a5
    18e4:	c95ff0ef          	jal	ra,1578 <rt_object_allocate>
    18e8:	842a                	mv	s0,a0
    18ea:	c911                	beqz	a0,18fe <rt_thread_create+0x2e>
    18ec:	8526                	mv	a0,s1
    18ee:	9dbff0ef          	jal	ra,12c8 <rt_malloc>
    18f2:	4632                	lw	a2,12(sp)
    18f4:	e909                	bnez	a0,1906 <rt_thread_create+0x36>
    18f6:	8522                	mv	a0,s0
    18f8:	cd7ff0ef          	jal	ra,15ce <rt_object_delete>
    18fc:	4401                	li	s0,0
    18fe:	8522                	mv	a0,s0
    1900:	0141                	addi	sp,sp,16
    1902:	c03fe06f          	j	504 <__riscv_restore_4>
    1906:	86aa                	mv	a3,a0
    1908:	8852                	mv	a6,s4
    190a:	87ce                	mv	a5,s3
    190c:	8726                	mv	a4,s1
    190e:	85ca                	mv	a1,s2
    1910:	8522                	mv	a0,s0
    1912:	3de1                	jal	17ea <_rt_thread_init.isra.0>
    1914:	b7ed                	j	18fe <rt_thread_create+0x2e>

00001916 <rt_thread_yield>:
    1916:	bd5fe2ef          	jal	t0,4ea <__riscv_save_0>
    191a:	2651                	jal	1c9e <rt_hw_interrupt_disable>
    191c:	8581a783          	lw	a5,-1960(gp) # 200001a8 <rt_current_thread>
    1920:	4605                	li	a2,1
    1922:	86aa                	mv	a3,a0
    1924:	0347c703          	lbu	a4,52(a5)
    1928:	8b3d                	andi	a4,a4,15
    192a:	02c71c63          	bne	a4,a2,1962 <rt_thread_yield+0x4c>
    192e:	4bd0                	lw	a2,20(a5)
    1930:	4f98                	lw	a4,24(a5)
    1932:	02e60863          	beq	a2,a4,1962 <rt_thread_yield+0x4c>
    1936:	c258                	sw	a4,4(a2)
    1938:	c310                	sw	a2,0(a4)
    193a:	0357c603          	lbu	a2,53(a5)
    193e:	01478693          	addi	a3,a5,20
    1942:	060e                	slli	a2,a2,0x3
    1944:	bf018713          	addi	a4,gp,-1040 # 20000540 <rt_thread_priority_table>
    1948:	cf94                	sw	a3,24(a5)
    194a:	9732                	add	a4,a4,a2
    194c:	4350                	lw	a2,4(a4)
    194e:	c214                	sw	a3,0(a2)
    1950:	cf90                	sw	a2,24(a5)
    1952:	c354                	sw	a3,4(a4)
    1954:	cbd8                	sw	a4,20(a5)
    1956:	2e91                	jal	1caa <rt_hw_interrupt_enable>
    1958:	d0bff0ef          	jal	ra,1662 <rt_schedule>
    195c:	4501                	li	a0,0
    195e:	bb1fe06f          	j	50e <__riscv_restore_0>
    1962:	8536                	mv	a0,a3
    1964:	2699                	jal	1caa <rt_hw_interrupt_enable>
    1966:	bfdd                	j	195c <rt_thread_yield+0x46>

00001968 <rt_thread_suspend>:
    1968:	03454783          	lbu	a5,52(a0)
    196c:	4705                	li	a4,1
    196e:	8bbd                	andi	a5,a5,15
    1970:	02e79f63          	bne	a5,a4,19ae <rt_thread_suspend+0x46>
    1974:	b77fe2ef          	jal	t0,4ea <__riscv_save_0>
    1978:	842a                	mv	s0,a0
    197a:	2615                	jal	1c9e <rt_hw_interrupt_disable>
    197c:	03444783          	lbu	a5,52(s0)
    1980:	84aa                	mv	s1,a0
    1982:	8522                	mv	a0,s0
    1984:	9bc1                	andi	a5,a5,-16
    1986:	0027e793          	ori	a5,a5,2
    198a:	02f40a23          	sb	a5,52(s0)
    198e:	d87ff0ef          	jal	ra,1714 <rt_schedule_remove_thread>
    1992:	04c40513          	addi	a0,s0,76
    1996:	22e1                	jal	1b5e <rt_timer_stop>
    1998:	8526                	mv	a0,s1
    199a:	2e01                	jal	1caa <rt_hw_interrupt_enable>
    199c:	8781a783          	lw	a5,-1928(gp) # 200001c8 <rt_thread_suspend_hook>
    19a0:	4501                	li	a0,0
    19a2:	c781                	beqz	a5,19aa <rt_thread_suspend+0x42>
    19a4:	8522                	mv	a0,s0
    19a6:	9782                	jalr	a5
    19a8:	4501                	li	a0,0
    19aa:	b65fe06f          	j	50e <__riscv_restore_0>
    19ae:	557d                	li	a0,-1
    19b0:	8082                	ret

000019b2 <rt_thread_sleep>:
    19b2:	b39fe2ef          	jal	t0,4ea <__riscv_save_0>
    19b6:	1141                	addi	sp,sp,-16
    19b8:	c62a                	sw	a0,12(sp)
    19ba:	24d5                	jal	1c9e <rt_hw_interrupt_disable>
    19bc:	8581a403          	lw	s0,-1960(gp) # 200001a8 <rt_current_thread>
    19c0:	892a                	mv	s2,a0
    19c2:	8522                	mv	a0,s0
    19c4:	3755                	jal	1968 <rt_thread_suspend>
    19c6:	04c40493          	addi	s1,s0,76
    19ca:	0070                	addi	a2,sp,12
    19cc:	4581                	li	a1,0
    19ce:	8526                	mv	a0,s1
    19d0:	2a7d                	jal	1b8e <rt_timer_control>
    19d2:	8526                	mv	a0,s1
    19d4:	2229                	jal	1ade <rt_timer_start>
    19d6:	854a                	mv	a0,s2
    19d8:	2cc9                	jal	1caa <rt_hw_interrupt_enable>
    19da:	c89ff0ef          	jal	ra,1662 <rt_schedule>
    19de:	5818                	lw	a4,48(s0)
    19e0:	57f9                	li	a5,-2
    19e2:	00f71463          	bne	a4,a5,19ea <rt_thread_sleep+0x38>
    19e6:	02042823          	sw	zero,48(s0)
    19ea:	4501                	li	a0,0
    19ec:	0141                	addi	sp,sp,16
    19ee:	b21fe06f          	j	50e <__riscv_restore_0>

000019f2 <rt_thread_delay>:
    19f2:	af9fe2ef          	jal	t0,4ea <__riscv_save_0>
    19f6:	3f75                	jal	19b2 <rt_thread_sleep>
    19f8:	b17fe06f          	j	50e <__riscv_restore_0>

000019fc <rt_thread_resume>:
    19fc:	03454783          	lbu	a5,52(a0)
    1a00:	4709                	li	a4,2
    1a02:	8bbd                	andi	a5,a5,15
    1a04:	04e79063          	bne	a5,a4,1a44 <rt_thread_resume+0x48>
    1a08:	ae3fe2ef          	jal	t0,4ea <__riscv_save_0>
    1a0c:	842a                	mv	s0,a0
    1a0e:	2c41                	jal	1c9e <rt_hw_interrupt_disable>
    1a10:	4854                	lw	a3,20(s0)
    1a12:	4c18                	lw	a4,24(s0)
    1a14:	01440793          	addi	a5,s0,20
    1a18:	84aa                	mv	s1,a0
    1a1a:	c2d8                	sw	a4,4(a3)
    1a1c:	c314                	sw	a3,0(a4)
    1a1e:	cc1c                	sw	a5,24(s0)
    1a20:	c85c                	sw	a5,20(s0)
    1a22:	04c40513          	addi	a0,s0,76
    1a26:	2a25                	jal	1b5e <rt_timer_stop>
    1a28:	8526                	mv	a0,s1
    1a2a:	2441                	jal	1caa <rt_hw_interrupt_enable>
    1a2c:	8522                	mv	a0,s0
    1a2e:	c9fff0ef          	jal	ra,16cc <rt_schedule_insert_thread>
    1a32:	8741a783          	lw	a5,-1932(gp) # 200001c4 <rt_thread_resume_hook>
    1a36:	4501                	li	a0,0
    1a38:	c781                	beqz	a5,1a40 <rt_thread_resume+0x44>
    1a3a:	8522                	mv	a0,s0
    1a3c:	9782                	jalr	a5
    1a3e:	4501                	li	a0,0
    1a40:	acffe06f          	j	50e <__riscv_restore_0>
    1a44:	557d                	li	a0,-1
    1a46:	8082                	ret

00001a48 <rt_thread_startup>:
    1a48:	aa3fe2ef          	jal	t0,4ea <__riscv_save_0>
    1a4c:	03654683          	lbu	a3,54(a0)
    1a50:	4705                	li	a4,1
    1a52:	00d71733          	sll	a4,a4,a3
    1a56:	dd18                	sw	a4,56(a0)
    1a58:	4709                	li	a4,2
    1a5a:	02d50aa3          	sb	a3,53(a0)
    1a5e:	02e50a23          	sb	a4,52(a0)
    1a62:	3f69                	jal	19fc <rt_thread_resume>
    1a64:	8581a783          	lw	a5,-1960(gp) # 200001a8 <rt_current_thread>
    1a68:	c399                	beqz	a5,1a6e <rt_thread_startup+0x26>
    1a6a:	bf9ff0ef          	jal	ra,1662 <rt_schedule>
    1a6e:	4501                	li	a0,0
    1a70:	a9ffe06f          	j	50e <__riscv_restore_0>

00001a74 <_rt_timer_remove.part.1>:
    1a74:	4954                	lw	a3,20(a0)
    1a76:	4d18                	lw	a4,24(a0)
    1a78:	01450793          	addi	a5,a0,20
    1a7c:	c2d8                	sw	a4,4(a3)
    1a7e:	c314                	sw	a3,0(a4)
    1a80:	cd1c                	sw	a5,24(a0)
    1a82:	c95c                	sw	a5,20(a0)
    1a84:	8082                	ret

00001a86 <rt_timer_init>:
    1a86:	a65fe2ef          	jal	t0,4ea <__riscv_save_0>
    1a8a:	1141                	addi	sp,sp,-16
    1a8c:	84b2                	mv	s1,a2
    1a8e:	862e                	mv	a2,a1
    1a90:	45a9                	li	a1,10
    1a92:	842a                	mv	s0,a0
    1a94:	c636                	sw	a3,12(sp)
    1a96:	c43a                	sw	a4,8(sp)
    1a98:	c23e                	sw	a5,4(sp)
    1a9a:	a53ff0ef          	jal	ra,14ec <rt_object_init>
    1a9e:	4792                	lw	a5,4(sp)
    1aa0:	46b2                	lw	a3,12(sp)
    1aa2:	4722                	lw	a4,8(sp)
    1aa4:	9bf9                	andi	a5,a5,-2
    1aa6:	b41c                	sb	a5,9(s0)
    1aa8:	01440793          	addi	a5,s0,20
    1aac:	cc44                	sw	s1,28(s0)
    1aae:	d014                	sw	a3,32(s0)
    1ab0:	02042423          	sw	zero,40(s0)
    1ab4:	d058                	sw	a4,36(s0)
    1ab6:	cc1c                	sw	a5,24(s0)
    1ab8:	c85c                	sw	a5,20(s0)
    1aba:	0141                	addi	sp,sp,16
    1abc:	a53fe06f          	j	50e <__riscv_restore_0>

00001ac0 <rt_timer_detach>:
    1ac0:	a2bfe2ef          	jal	t0,4ea <__riscv_save_0>
    1ac4:	842a                	mv	s0,a0
    1ac6:	2ae1                	jal	1c9e <rt_hw_interrupt_disable>
    1ac8:	84aa                	mv	s1,a0
    1aca:	8522                	mv	a0,s0
    1acc:	3765                	jal	1a74 <_rt_timer_remove.part.1>
    1ace:	8526                	mv	a0,s1
    1ad0:	2ae9                	jal	1caa <rt_hw_interrupt_enable>
    1ad2:	8522                	mv	a0,s0
    1ad4:	a77ff0ef          	jal	ra,154a <rt_object_detach>
    1ad8:	4501                	li	a0,0
    1ada:	a35fe06f          	j	50e <__riscv_restore_0>

00001ade <rt_timer_start>:
    1ade:	a0dfe2ef          	jal	t0,4ea <__riscv_save_0>
    1ae2:	842a                	mv	s0,a0
    1ae4:	2a6d                	jal	1c9e <rt_hw_interrupt_disable>
    1ae6:	84aa                	mv	s1,a0
    1ae8:	8522                	mv	a0,s0
    1aea:	3769                	jal	1a74 <_rt_timer_remove.part.1>
    1aec:	341c                	lbu	a5,9(s0)
    1aee:	8526                	mv	a0,s1
    1af0:	9bf9                	andi	a5,a5,-2
    1af2:	b41c                	sb	a5,9(s0)
    1af4:	2a5d                	jal	1caa <rt_hw_interrupt_enable>
    1af6:	84c1a783          	lw	a5,-1972(gp) # 2000019c <rt_object_take_hook>
    1afa:	c399                	beqz	a5,1b00 <rt_timer_start+0x22>
    1afc:	8522                	mv	a0,s0
    1afe:	9782                	jalr	a5
    1b00:	ac3fe0ef          	jal	ra,5c2 <rt_tick_get>
    1b04:	505c                	lw	a5,36(s0)
    1b06:	953e                	add	a0,a0,a5
    1b08:	d408                	sw	a0,40(s0)
    1b0a:	2a51                	jal	1c9e <rt_hw_interrupt_disable>
    1b0c:	88818713          	addi	a4,gp,-1912 # 200001d8 <rt_timer_list>
    1b10:	00472803          	lw	a6,4(a4)
    1b14:	80000637          	lui	a2,0x80000
    1b18:	88818793          	addi	a5,gp,-1912 # 200001d8 <rt_timer_list>
    1b1c:	ffe64613          	xori	a2,a2,-2
    1b20:	4398                	lw	a4,0(a5)
    1b22:	02f81563          	bne	a6,a5,1b4c <rt_timer_start+0x6e>
    1b26:	87c18693          	addi	a3,gp,-1924 # 200001cc <random_nr.2485>
    1b2a:	4290                	lw	a2,0(a3)
    1b2c:	0605                	addi	a2,a2,1
    1b2e:	c290                	sw	a2,0(a3)
    1b30:	01440693          	addi	a3,s0,20
    1b34:	c354                	sw	a3,4(a4)
    1b36:	c858                	sw	a4,20(s0)
    1b38:	c394                	sw	a3,0(a5)
    1b3a:	cc1c                	sw	a5,24(s0)
    1b3c:	341c                	lbu	a5,9(s0)
    1b3e:	0017e793          	ori	a5,a5,1
    1b42:	b41c                	sb	a5,9(s0)
    1b44:	229d                	jal	1caa <rt_hw_interrupt_enable>
    1b46:	4501                	li	a0,0
    1b48:	9c7fe06f          	j	50e <__riscv_restore_0>
    1b4c:	4b54                	lw	a3,20(a4)
    1b4e:	540c                	lw	a1,40(s0)
    1b50:	00b68563          	beq	a3,a1,1b5a <rt_timer_start+0x7c>
    1b54:	8e8d                	sub	a3,a3,a1
    1b56:	fcd678e3          	bgeu	a2,a3,1b26 <rt_timer_start+0x48>
    1b5a:	87ba                	mv	a5,a4
    1b5c:	b7d1                	j	1b20 <rt_timer_start+0x42>

00001b5e <rt_timer_stop>:
    1b5e:	351c                	lbu	a5,9(a0)
    1b60:	8b85                	andi	a5,a5,1
    1b62:	c785                	beqz	a5,1b8a <rt_timer_stop+0x2c>
    1b64:	987fe2ef          	jal	t0,4ea <__riscv_save_0>
    1b68:	8481a783          	lw	a5,-1976(gp) # 20000198 <rt_object_put_hook>
    1b6c:	842a                	mv	s0,a0
    1b6e:	c391                	beqz	a5,1b72 <rt_timer_stop+0x14>
    1b70:	9782                	jalr	a5
    1b72:	2235                	jal	1c9e <rt_hw_interrupt_disable>
    1b74:	84aa                	mv	s1,a0
    1b76:	8522                	mv	a0,s0
    1b78:	3df5                	jal	1a74 <_rt_timer_remove.part.1>
    1b7a:	8526                	mv	a0,s1
    1b7c:	223d                	jal	1caa <rt_hw_interrupt_enable>
    1b7e:	341c                	lbu	a5,9(s0)
    1b80:	4501                	li	a0,0
    1b82:	9bf9                	andi	a5,a5,-2
    1b84:	b41c                	sb	a5,9(s0)
    1b86:	989fe06f          	j	50e <__riscv_restore_0>
    1b8a:	557d                	li	a0,-1
    1b8c:	8082                	ret

00001b8e <rt_timer_control>:
    1b8e:	4785                	li	a5,1
    1b90:	02f58163          	beq	a1,a5,1bb2 <rt_timer_control+0x24>
    1b94:	00b7c563          	blt	a5,a1,1b9e <rt_timer_control+0x10>
    1b98:	c185                	beqz	a1,1bb8 <rt_timer_control+0x2a>
    1b9a:	4501                	li	a0,0
    1b9c:	8082                	ret
    1b9e:	4789                	li	a5,2
    1ba0:	00f58f63          	beq	a1,a5,1bbe <rt_timer_control+0x30>
    1ba4:	478d                	li	a5,3
    1ba6:	fef59ae3          	bne	a1,a5,1b9a <rt_timer_control+0xc>
    1baa:	351c                	lbu	a5,9(a0)
    1bac:	0027e793          	ori	a5,a5,2
    1bb0:	a809                	j	1bc2 <rt_timer_control+0x34>
    1bb2:	515c                	lw	a5,36(a0)
    1bb4:	c21c                	sw	a5,0(a2)
    1bb6:	b7d5                	j	1b9a <rt_timer_control+0xc>
    1bb8:	421c                	lw	a5,0(a2)
    1bba:	d15c                	sw	a5,36(a0)
    1bbc:	bff9                	j	1b9a <rt_timer_control+0xc>
    1bbe:	351c                	lbu	a5,9(a0)
    1bc0:	9bf5                	andi	a5,a5,-3
    1bc2:	b51c                	sb	a5,9(a0)
    1bc4:	bfd9                	j	1b9a <rt_timer_control+0xc>

00001bc6 <rt_timer_check>:
    1bc6:	8fdfe2ef          	jal	t0,4c2 <__riscv_save_10>
    1bca:	9f9fe0ef          	jal	ra,5c2 <rt_tick_get>
    1bce:	8c2a                	mv	s8,a0
    1bd0:	20f9                	jal	1c9e <rt_hw_interrupt_disable>
    1bd2:	800009b7          	lui	s3,0x80000
    1bd6:	8a2a                	mv	s4,a0
    1bd8:	88818493          	addi	s1,gp,-1912 # 200001d8 <rt_timer_list>
    1bdc:	ffe9c993          	xori	s3,s3,-2
    1be0:	4b8d                	li	s7,3
    1be2:	4080                	lw	s0,0(s1)
    1be4:	00941663          	bne	s0,s1,1bf0 <rt_timer_check+0x2a>
    1be8:	8552                	mv	a0,s4
    1bea:	20c1                	jal	1caa <rt_hw_interrupt_enable>
    1bec:	90ffe06f          	j	4fa <__riscv_restore_10>
    1bf0:	4848                	lw	a0,20(s0)
    1bf2:	fec40913          	addi	s2,s0,-20
    1bf6:	40ac0533          	sub	a0,s8,a0
    1bfa:	fea9e7e3          	bltu	s3,a0,1be8 <rt_timer_check+0x22>
    1bfe:	8801a783          	lw	a5,-1920(gp) # 200001d0 <rt_timer_enter_hook>
    1c02:	c399                	beqz	a5,1c08 <rt_timer_check+0x42>
    1c04:	854a                	mv	a0,s2
    1c06:	9782                	jalr	a5
    1c08:	854a                	mv	a0,s2
    1c0a:	e6bff0ef          	jal	ra,1a74 <_rt_timer_remove.part.1>
    1c0e:	441c                	lw	a5,8(s0)
    1c10:	4448                	lw	a0,12(s0)
    1c12:	9782                	jalr	a5
    1c14:	9affe0ef          	jal	ra,5c2 <rt_tick_get>
    1c18:	8841a783          	lw	a5,-1916(gp) # 200001d4 <rt_timer_exit_hook>
    1c1c:	8c2a                	mv	s8,a0
    1c1e:	c399                	beqz	a5,1c24 <rt_timer_check+0x5e>
    1c20:	854a                	mv	a0,s2
    1c22:	9782                	jalr	a5
    1c24:	ff544783          	lbu	a5,-11(s0)
    1c28:	0fe7f713          	andi	a4,a5,254
    1c2c:	fee40aa3          	sb	a4,-11(s0)
    1c30:	8b8d                	andi	a5,a5,3
    1c32:	fb7798e3          	bne	a5,s7,1be2 <rt_timer_check+0x1c>
    1c36:	854a                	mv	a0,s2
    1c38:	ea7ff0ef          	jal	ra,1ade <rt_timer_start>
    1c3c:	b75d                	j	1be2 <rt_timer_check+0x1c>

00001c3e <rt_system_timer_init>:
    1c3e:	88818793          	addi	a5,gp,-1912 # 200001d8 <rt_timer_list>
    1c42:	c3dc                	sw	a5,4(a5)
    1c44:	c39c                	sw	a5,0(a5)
    1c46:	8082                	ret

00001c48 <rt_system_timer_thread_init>:
    1c48:	8082                	ret

00001c4a <rt_hw_stack_init>:
    1c4a:	0611                	addi	a2,a2,4
    1c4c:	9a71                	andi	a2,a2,-4
    1c4e:	882a                	mv	a6,a0
    1c50:	deadc737          	lui	a4,0xdeadc
    1c54:	f0060513          	addi	a0,a2,-256 # 7fffff00 <_eusrstack+0x5ffeff00>
    1c58:	87aa                	mv	a5,a0
    1c5a:	eef70713          	addi	a4,a4,-273 # deadbeef <_eusrstack+0xbeacbeef>
    1c5e:	00f61e63          	bne	a2,a5,1c7a <rt_hw_stack_init+0x30>
    1c62:	67a1                	lui	a5,0x8
    1c64:	88078793          	addi	a5,a5,-1920 # 7880 <__subdf3+0xa34>
    1c68:	f0d62223          	sw	a3,-252(a2)
    1c6c:	f2b62423          	sw	a1,-216(a2)
    1c70:	f1062023          	sw	a6,-256(a2)
    1c74:	f0f62423          	sw	a5,-248(a2)
    1c78:	8082                	ret
    1c7a:	c398                	sw	a4,0(a5)
    1c7c:	0791                	addi	a5,a5,4
    1c7e:	b7c5                	j	1c5e <rt_hw_stack_init+0x14>

00001c80 <sw_setpend>:
    1c80:	e000f737          	lui	a4,0xe000f
    1c84:	431c                	lw	a5,0(a4)
    1c86:	800006b7          	lui	a3,0x80000
    1c8a:	8fd5                	or	a5,a5,a3
    1c8c:	c31c                	sw	a5,0(a4)
    1c8e:	8082                	ret

00001c90 <sw_clearpend>:
    1c90:	e000f737          	lui	a4,0xe000f
    1c94:	431c                	lw	a5,0(a4)
    1c96:	0786                	slli	a5,a5,0x1
    1c98:	8385                	srli	a5,a5,0x1
    1c9a:	c31c                	sw	a5,0(a4)
    1c9c:	8082                	ret

00001c9e <rt_hw_interrupt_disable>:
    1c9e:	6521                	lui	a0,0x8
    1ca0:	80050513          	addi	a0,a0,-2048 # 7800 <__subdf3+0x9b4>
    1ca4:	30051573          	csrrw	a0,mstatus,a0
    1ca8:	8082                	ret

00001caa <rt_hw_interrupt_enable>:
    1caa:	30051073          	csrw	mstatus,a0
    1cae:	8082                	ret

00001cb0 <rt_hw_context_switch_interrupt>:
    1cb0:	83bfe2ef          	jal	t0,4ea <__riscv_save_0>
    1cb4:	89818713          	addi	a4,gp,-1896 # 200001e8 <rt_thread_switch_interrupt_flag>
    1cb8:	4318                	lw	a4,0(a4)
    1cba:	89818793          	addi	a5,gp,-1896 # 200001e8 <rt_thread_switch_interrupt_flag>
    1cbe:	e319                	bnez	a4,1cc4 <rt_hw_context_switch_interrupt+0x14>
    1cc0:	88a1a823          	sw	a0,-1904(gp) # 200001e0 <rt_interrupt_from_thread>
    1cc4:	88b1aa23          	sw	a1,-1900(gp) # 200001e4 <rt_interrupt_to_thread>
    1cc8:	4705                	li	a4,1
    1cca:	c398                	sw	a4,0(a5)
    1ccc:	3f55                	jal	1c80 <sw_setpend>
    1cce:	841fe06f          	j	50e <__riscv_restore_0>

00001cd2 <rt_list_len>:
    1cd2:	872a                	mv	a4,a0
    1cd4:	4781                	li	a5,0
    1cd6:	4318                	lw	a4,0(a4)
    1cd8:	00a71463          	bne	a4,a0,1ce0 <rt_list_len+0xe>
    1cdc:	853e                	mv	a0,a5
    1cde:	8082                	ret
    1ce0:	0785                	addi	a5,a5,1
    1ce2:	bfd5                	j	1cd6 <rt_list_len+0x4>

00001ce4 <reboot>:
    1ce4:	beef07b7          	lui	a5,0xbeef0
    1ce8:	e000e737          	lui	a4,0xe000e
    1cec:	08078793          	addi	a5,a5,128 # beef0080 <_eusrstack+0x9eee0080>
    1cf0:	c73c                	sw	a5,72(a4)
    1cf2:	4501                	li	a0,0
    1cf4:	8082                	ret

00001cf6 <clear>:
    1cf6:	ff4fe2ef          	jal	t0,4ea <__riscv_save_0>
    1cfa:	00008537          	lui	a0,0x8
    1cfe:	1e050513          	addi	a0,a0,480 # 81e0 <__fsym_list_mem_name+0x9c>
    1d02:	bccff0ef          	jal	ra,10ce <rt_kprintf>
    1d06:	4501                	li	a0,0
    1d08:	807fe06f          	j	50e <__riscv_restore_0>

00001d0c <object_split>:
    1d0c:	fdefe2ef          	jal	t0,4ea <__riscv_save_0>
    1d10:	842a                	mv	s0,a0
    1d12:	54fd                	li	s1,-1
    1d14:	00009937          	lui	s2,0x9
    1d18:	147d                	addi	s0,s0,-1
    1d1a:	00941463          	bne	s0,s1,1d22 <object_split+0x16>
    1d1e:	ff0fe06f          	j	50e <__riscv_restore_0>
    1d22:	94890513          	addi	a0,s2,-1720 # 8948 <__fsym_reboot_name+0x8>
    1d26:	ba8ff0ef          	jal	ra,10ce <rt_kprintf>
    1d2a:	b7fd                	j	1d18 <object_split+0xc>

00001d2c <show_wait_queue>:
    1d2c:	fa4fe2ef          	jal	t0,4d0 <__riscv_save_4>
    1d30:	4100                	lw	s0,0(a0)
    1d32:	84aa                	mv	s1,a0
    1d34:	00009937          	lui	s2,0x9
    1d38:	000099b7          	lui	s3,0x9
    1d3c:	00941463          	bne	s0,s1,1d44 <show_wait_queue+0x18>
    1d40:	fc4fe06f          	j	504 <__riscv_restore_4>
    1d44:	fec40593          	addi	a1,s0,-20
    1d48:	94c90513          	addi	a0,s2,-1716 # 894c <__fsym_reboot_name+0xc>
    1d4c:	b82ff0ef          	jal	ra,10ce <rt_kprintf>
    1d50:	401c                	lw	a5,0(s0)
    1d52:	00978663          	beq	a5,s1,1d5e <show_wait_queue+0x32>
    1d56:	95098513          	addi	a0,s3,-1712 # 8950 <__fsym_reboot_name+0x10>
    1d5a:	b74ff0ef          	jal	ra,10ce <rt_kprintf>
    1d5e:	4000                	lw	s0,0(s0)
    1d60:	bff1                	j	1d3c <show_wait_queue+0x10>

00001d62 <object_name_maxlen>:
    1d62:	f88fe2ef          	jal	t0,4ea <__riscv_save_0>
    1d66:	892e                	mv	s2,a1
    1d68:	fcdfe0ef          	jal	ra,d34 <rt_strlen>
    1d6c:	842a                	mv	s0,a0
    1d6e:	9e9ff0ef          	jal	ra,1756 <rt_enter_critical>
    1d72:	00092483          	lw	s1,0(s2)
    1d76:	01249c63          	bne	s1,s2,1d8e <object_name_maxlen+0x2c>
    1d7a:	9f3ff0ef          	jal	ra,176c <rt_exit_critical>
    1d7e:	47a1                	li	a5,8
    1d80:	0087c363          	blt	a5,s0,1d86 <object_name_maxlen+0x24>
    1d84:	e011                	bnez	s0,1d88 <object_name_maxlen+0x26>
    1d86:	4421                	li	s0,8
    1d88:	8522                	mv	a0,s0
    1d8a:	f84fe06f          	j	50e <__riscv_restore_0>
    1d8e:	ff448513          	addi	a0,s1,-12
    1d92:	fa3fe0ef          	jal	ra,d34 <rt_strlen>
    1d96:	00a45363          	bge	s0,a0,1d9c <object_name_maxlen+0x3a>
    1d9a:	842a                	mv	s0,a0
    1d9c:	4084                	lw	s1,0(s1)
    1d9e:	bfe1                	j	1d76 <object_name_maxlen+0x14>

00001da0 <list_thread>:
    1da0:	f22fe2ef          	jal	t0,4c2 <__riscv_save_10>
    1da4:	4505                	li	a0,1
    1da6:	f1cff0ef          	jal	ra,14c2 <rt_object_get_information>
    1daa:	000089b7          	lui	s3,0x8
    1dae:	00450913          	addi	s2,a0,4
    1db2:	842a                	mv	s0,a0
    1db4:	85ca                	mv	a1,s2
    1db6:	49498513          	addi	a0,s3,1172 # 8494 <__fsym_list_mem_name+0x350>
    1dba:	3765                	jal	1d62 <object_name_maxlen>
    1dbc:	85aa                	mv	a1,a0
    1dbe:	84aa                	mv	s1,a0
    1dc0:	00008537          	lui	a0,0x8
    1dc4:	49498613          	addi	a2,s3,1172
    1dc8:	49c50513          	addi	a0,a0,1180 # 849c <__fsym_list_mem_name+0x358>
    1dcc:	b02ff0ef          	jal	ra,10ce <rt_kprintf>
    1dd0:	8526                	mv	a0,s1
    1dd2:	f3bff0ef          	jal	ra,1d0c <object_split>
    1dd6:	00008537          	lui	a0,0x8
    1dda:	4e050513          	addi	a0,a0,1248 # 84e0 <__fsym_list_mem_name+0x39c>
    1dde:	af0ff0ef          	jal	ra,10ce <rt_kprintf>
    1de2:	4040                	lw	s0,4(s0)
    1de4:	000089b7          	lui	s3,0x8
    1de8:	4a05                	li	s4,1
    1dea:	4a89                	li	s5,2
    1dec:	00008b37          	lui	s6,0x8
    1df0:	00008bb7          	lui	s7,0x8
    1df4:	00008c37          	lui	s8,0x8
    1df8:	00008cb7          	lui	s9,0x8
    1dfc:	00008d37          	lui	s10,0x8
    1e00:	00891563          	bne	s2,s0,1e0a <list_thread+0x6a>
    1e04:	4501                	li	a0,0
    1e06:	ef4fe06f          	j	4fa <__riscv_restore_10>
    1e0a:	02944703          	lbu	a4,41(s0)
    1e0e:	52098513          	addi	a0,s3,1312 # 8520 <__fsym_list_mem_name+0x3dc>
    1e12:	ff440693          	addi	a3,s0,-12
    1e16:	4621                	li	a2,8
    1e18:	85a6                	mv	a1,s1
    1e1a:	ab4ff0ef          	jal	ra,10ce <rt_kprintf>
    1e1e:	02844783          	lbu	a5,40(s0)
    1e22:	52cc8513          	addi	a0,s9,1324 # 852c <__fsym_list_mem_name+0x3e8>
    1e26:	8bbd                	andi	a5,a5,15
    1e28:	01478e63          	beq	a5,s4,1e44 <list_thread+0xa4>
    1e2c:	538c0513          	addi	a0,s8,1336 # 8538 <__fsym_list_mem_name+0x3f4>
    1e30:	01578a63          	beq	a5,s5,1e44 <list_thread+0xa4>
    1e34:	544b8513          	addi	a0,s7,1348 # 8544 <__fsym_list_mem_name+0x400>
    1e38:	c791                	beqz	a5,1e44 <list_thread+0xa4>
    1e3a:	4711                	li	a4,4
    1e3c:	00e79663          	bne	a5,a4,1e48 <list_thread+0xa8>
    1e40:	550b0513          	addi	a0,s6,1360 # 8550 <__fsym_list_mem_name+0x40c>
    1e44:	a8aff0ef          	jal	ra,10ce <rt_kprintf>
    1e48:	4c4c                	lw	a1,28(s0)
    1e4a:	02300793          	li	a5,35
    1e4e:	86ae                	mv	a3,a1
    1e50:	2298                	lbu	a4,0(a3)
    1e52:	02f70663          	beq	a4,a5,1e7e <list_thread+0xde>
    1e56:	5010                	lw	a2,32(s0)
    1e58:	06400793          	li	a5,100
    1e5c:	4808                	lw	a0,16(s0)
    1e5e:	95b2                	add	a1,a1,a2
    1e60:	40d586b3          	sub	a3,a1,a3
    1e64:	02f686b3          	mul	a3,a3,a5
    1e68:	5c58                	lw	a4,60(s0)
    1e6a:	505c                	lw	a5,36(s0)
    1e6c:	8d89                	sub	a1,a1,a0
    1e6e:	55cd0513          	addi	a0,s10,1372 # 855c <__fsym_list_mem_name+0x418>
    1e72:	02c6d6b3          	divu	a3,a3,a2
    1e76:	a58ff0ef          	jal	ra,10ce <rt_kprintf>
    1e7a:	4000                	lw	s0,0(s0)
    1e7c:	b751                	j	1e00 <list_thread+0x60>
    1e7e:	0685                	addi	a3,a3,1
    1e80:	bfc1                	j	1e50 <list_thread+0xb0>

00001e82 <list_sem>:
    1e82:	e4efe2ef          	jal	t0,4d0 <__riscv_save_4>
    1e86:	1141                	addi	sp,sp,-16
    1e88:	4509                	li	a0,2
    1e8a:	e38ff0ef          	jal	ra,14c2 <rt_object_get_information>
    1e8e:	00450993          	addi	s3,a0,4
    1e92:	00008937          	lui	s2,0x8
    1e96:	842a                	mv	s0,a0
    1e98:	85ce                	mv	a1,s3
    1e9a:	43490513          	addi	a0,s2,1076 # 8434 <__fsym_list_mem_name+0x2f0>
    1e9e:	ec5ff0ef          	jal	ra,1d62 <object_name_maxlen>
    1ea2:	85aa                	mv	a1,a0
    1ea4:	84aa                	mv	s1,a0
    1ea6:	00008537          	lui	a0,0x8
    1eaa:	43490613          	addi	a2,s2,1076
    1eae:	44050513          	addi	a0,a0,1088 # 8440 <__fsym_list_mem_name+0x2fc>
    1eb2:	a1cff0ef          	jal	ra,10ce <rt_kprintf>
    1eb6:	8526                	mv	a0,s1
    1eb8:	e55ff0ef          	jal	ra,1d0c <object_split>
    1ebc:	00008537          	lui	a0,0x8
    1ec0:	45c50513          	addi	a0,a0,1116 # 845c <__fsym_list_mem_name+0x318>
    1ec4:	a0aff0ef          	jal	ra,10ce <rt_kprintf>
    1ec8:	4040                	lw	s0,4(s0)
    1eca:	00008a37          	lui	s4,0x8
    1ece:	00008ab7          	lui	s5,0x8
    1ed2:	00008b37          	lui	s6,0x8
    1ed6:	00899663          	bne	s3,s0,1ee2 <list_sem+0x60>
    1eda:	4501                	li	a0,0
    1edc:	0141                	addi	sp,sp,16
    1ede:	e26fe06f          	j	504 <__riscv_restore_4>
    1ee2:	281a                	lhu	a4,16(s0)
    1ee4:	441c                	lw	a5,8(s0)
    1ee6:	ff440693          	addi	a3,s0,-12
    1eea:	00840913          	addi	s2,s0,8
    1eee:	c636                	sw	a3,12(sp)
    1ef0:	c43a                	sw	a4,8(sp)
    1ef2:	854a                	mv	a0,s2
    1ef4:	02f90663          	beq	s2,a5,1f20 <list_sem+0x9e>
    1ef8:	ddbff0ef          	jal	ra,1cd2 <rt_list_len>
    1efc:	4722                	lw	a4,8(sp)
    1efe:	46b2                	lw	a3,12(sp)
    1f00:	87aa                	mv	a5,a0
    1f02:	4621                	li	a2,8
    1f04:	85a6                	mv	a1,s1
    1f06:	474a8513          	addi	a0,s5,1140 # 8474 <__fsym_list_mem_name+0x330>
    1f0a:	9c4ff0ef          	jal	ra,10ce <rt_kprintf>
    1f0e:	854a                	mv	a0,s2
    1f10:	e1dff0ef          	jal	ra,1d2c <show_wait_queue>
    1f14:	260b0513          	addi	a0,s6,608 # 8260 <__fsym_list_mem_name+0x11c>
    1f18:	9b6ff0ef          	jal	ra,10ce <rt_kprintf>
    1f1c:	4000                	lw	s0,0(s0)
    1f1e:	bf65                	j	1ed6 <list_sem+0x54>
    1f20:	db3ff0ef          	jal	ra,1cd2 <rt_list_len>
    1f24:	4722                	lw	a4,8(sp)
    1f26:	46b2                	lw	a3,12(sp)
    1f28:	87aa                	mv	a5,a0
    1f2a:	4621                	li	a2,8
    1f2c:	85a6                	mv	a1,s1
    1f2e:	484a0513          	addi	a0,s4,1156 # 8484 <__fsym_list_mem_name+0x340>
    1f32:	99cff0ef          	jal	ra,10ce <rt_kprintf>
    1f36:	b7dd                	j	1f1c <list_sem+0x9a>

00001f38 <list_event>:
    1f38:	d98fe2ef          	jal	t0,4d0 <__riscv_save_4>
    1f3c:	1141                	addi	sp,sp,-16
    1f3e:	4511                	li	a0,4
    1f40:	d82ff0ef          	jal	ra,14c2 <rt_object_get_information>
    1f44:	00450993          	addi	s3,a0,4
    1f48:	00008937          	lui	s2,0x8
    1f4c:	842a                	mv	s0,a0
    1f4e:	85ce                	mv	a1,s3
    1f50:	27890513          	addi	a0,s2,632 # 8278 <__fsym_list_mem_name+0x134>
    1f54:	e0fff0ef          	jal	ra,1d62 <object_name_maxlen>
    1f58:	85aa                	mv	a1,a0
    1f5a:	84aa                	mv	s1,a0
    1f5c:	00008537          	lui	a0,0x8
    1f60:	27890613          	addi	a2,s2,632
    1f64:	28050513          	addi	a0,a0,640 # 8280 <__fsym_list_mem_name+0x13c>
    1f68:	966ff0ef          	jal	ra,10ce <rt_kprintf>
    1f6c:	8526                	mv	a0,s1
    1f6e:	d9fff0ef          	jal	ra,1d0c <object_split>
    1f72:	00008537          	lui	a0,0x8
    1f76:	2a450513          	addi	a0,a0,676 # 82a4 <__fsym_list_mem_name+0x160>
    1f7a:	954ff0ef          	jal	ra,10ce <rt_kprintf>
    1f7e:	4040                	lw	s0,4(s0)
    1f80:	00008a37          	lui	s4,0x8
    1f84:	00008ab7          	lui	s5,0x8
    1f88:	00008b37          	lui	s6,0x8
    1f8c:	00899663          	bne	s3,s0,1f98 <list_event+0x60>
    1f90:	4501                	li	a0,0
    1f92:	0141                	addi	sp,sp,16
    1f94:	d70fe06f          	j	504 <__riscv_restore_4>
    1f98:	441c                	lw	a5,8(s0)
    1f9a:	00840913          	addi	s2,s0,8
    1f9e:	ff440693          	addi	a3,s0,-12
    1fa2:	4818                	lw	a4,16(s0)
    1fa4:	02f90963          	beq	s2,a5,1fd6 <list_event+0x9e>
    1fa8:	854a                	mv	a0,s2
    1faa:	c636                	sw	a3,12(sp)
    1fac:	c43a                	sw	a4,8(sp)
    1fae:	d25ff0ef          	jal	ra,1cd2 <rt_list_len>
    1fb2:	4722                	lw	a4,8(sp)
    1fb4:	46b2                	lw	a3,12(sp)
    1fb6:	87aa                	mv	a5,a0
    1fb8:	4621                	li	a2,8
    1fba:	85a6                	mv	a1,s1
    1fbc:	2c4a8513          	addi	a0,s5,708 # 82c4 <__fsym_list_mem_name+0x180>
    1fc0:	90eff0ef          	jal	ra,10ce <rt_kprintf>
    1fc4:	854a                	mv	a0,s2
    1fc6:	d67ff0ef          	jal	ra,1d2c <show_wait_queue>
    1fca:	260b0513          	addi	a0,s6,608 # 8260 <__fsym_list_mem_name+0x11c>
    1fce:	900ff0ef          	jal	ra,10ce <rt_kprintf>
    1fd2:	4000                	lw	s0,0(s0)
    1fd4:	bf65                	j	1f8c <list_event+0x54>
    1fd6:	4621                	li	a2,8
    1fd8:	85a6                	mv	a1,s1
    1fda:	2dca0513          	addi	a0,s4,732 # 82dc <__fsym_list_mem_name+0x198>
    1fde:	8f0ff0ef          	jal	ra,10ce <rt_kprintf>
    1fe2:	bfc5                	j	1fd2 <list_event+0x9a>

00001fe4 <list_mutex>:
    1fe4:	cecfe2ef          	jal	t0,4d0 <__riscv_save_4>
    1fe8:	1141                	addi	sp,sp,-16
    1fea:	450d                	li	a0,3
    1fec:	cd6ff0ef          	jal	ra,14c2 <rt_object_get_information>
    1ff0:	000089b7          	lui	s3,0x8
    1ff4:	00450913          	addi	s2,a0,4
    1ff8:	842a                	mv	s0,a0
    1ffa:	85ca                	mv	a1,s2
    1ffc:	3d098513          	addi	a0,s3,976 # 83d0 <__fsym_list_mem_name+0x28c>
    2000:	d63ff0ef          	jal	ra,1d62 <object_name_maxlen>
    2004:	85aa                	mv	a1,a0
    2006:	84aa                	mv	s1,a0
    2008:	00008537          	lui	a0,0x8
    200c:	3d098613          	addi	a2,s3,976
    2010:	3d850513          	addi	a0,a0,984 # 83d8 <__fsym_list_mem_name+0x294>
    2014:	8baff0ef          	jal	ra,10ce <rt_kprintf>
    2018:	8526                	mv	a0,s1
    201a:	cf3ff0ef          	jal	ra,1d0c <object_split>
    201e:	00008537          	lui	a0,0x8
    2022:	3fc50513          	addi	a0,a0,1020 # 83fc <__fsym_list_mem_name+0x2b8>
    2026:	8a8ff0ef          	jal	ra,10ce <rt_kprintf>
    202a:	4040                	lw	s0,4(s0)
    202c:	000089b7          	lui	s3,0x8
    2030:	00891663          	bne	s2,s0,203c <list_mutex+0x58>
    2034:	4501                	li	a0,0
    2036:	0141                	addi	sp,sp,16
    2038:	cccfe06f          	j	504 <__riscv_restore_4>
    203c:	ff440693          	addi	a3,s0,-12
    2040:	00840513          	addi	a0,s0,8
    2044:	c636                	sw	a3,12(sp)
    2046:	c8dff0ef          	jal	ra,1cd2 <rt_list_len>
    204a:	01344803          	lbu	a6,19(s0)
    204e:	485c                	lw	a5,20(s0)
    2050:	46b2                	lw	a3,12(sp)
    2052:	88aa                	mv	a7,a0
    2054:	4721                	li	a4,8
    2056:	4621                	li	a2,8
    2058:	85a6                	mv	a1,s1
    205a:	41c98513          	addi	a0,s3,1052 # 841c <__fsym_list_mem_name+0x2d8>
    205e:	870ff0ef          	jal	ra,10ce <rt_kprintf>
    2062:	4000                	lw	s0,0(s0)
    2064:	b7f1                	j	2030 <list_mutex+0x4c>

00002066 <list_mailbox>:
    2066:	c6afe2ef          	jal	t0,4d0 <__riscv_save_4>
    206a:	1141                	addi	sp,sp,-16
    206c:	4515                	li	a0,5
    206e:	c54ff0ef          	jal	ra,14c2 <rt_object_get_information>
    2072:	00450993          	addi	s3,a0,4
    2076:	00008937          	lui	s2,0x8
    207a:	842a                	mv	s0,a0
    207c:	85ce                	mv	a1,s3
    207e:	2f090513          	addi	a0,s2,752 # 82f0 <__fsym_list_mem_name+0x1ac>
    2082:	ce1ff0ef          	jal	ra,1d62 <object_name_maxlen>
    2086:	85aa                	mv	a1,a0
    2088:	84aa                	mv	s1,a0
    208a:	00008537          	lui	a0,0x8
    208e:	2f090613          	addi	a2,s2,752
    2092:	2f850513          	addi	a0,a0,760 # 82f8 <__fsym_list_mem_name+0x1b4>
    2096:	838ff0ef          	jal	ra,10ce <rt_kprintf>
    209a:	8526                	mv	a0,s1
    209c:	c71ff0ef          	jal	ra,1d0c <object_split>
    20a0:	00008537          	lui	a0,0x8
    20a4:	31c50513          	addi	a0,a0,796 # 831c <__fsym_list_mem_name+0x1d8>
    20a8:	826ff0ef          	jal	ra,10ce <rt_kprintf>
    20ac:	4040                	lw	s0,4(s0)
    20ae:	00008a37          	lui	s4,0x8
    20b2:	00008ab7          	lui	s5,0x8
    20b6:	00008b37          	lui	s6,0x8
    20ba:	00899663          	bne	s3,s0,20c6 <list_mailbox+0x60>
    20be:	4501                	li	a0,0
    20c0:	0141                	addi	sp,sp,16
    20c2:	c42fe06f          	j	504 <__riscv_restore_4>
    20c6:	287a                	lhu	a4,22(s0)
    20c8:	285e                	lhu	a5,20(s0)
    20ca:	4410                	lw	a2,8(s0)
    20cc:	ff440693          	addi	a3,s0,-12
    20d0:	00840913          	addi	s2,s0,8
    20d4:	c636                	sw	a3,12(sp)
    20d6:	c43a                	sw	a4,8(sp)
    20d8:	c23e                	sw	a5,4(sp)
    20da:	854a                	mv	a0,s2
    20dc:	02c90763          	beq	s2,a2,210a <list_mailbox+0xa4>
    20e0:	bf3ff0ef          	jal	ra,1cd2 <rt_list_len>
    20e4:	4792                	lw	a5,4(sp)
    20e6:	4722                	lw	a4,8(sp)
    20e8:	46b2                	lw	a3,12(sp)
    20ea:	882a                	mv	a6,a0
    20ec:	4621                	li	a2,8
    20ee:	85a6                	mv	a1,s1
    20f0:	338a8513          	addi	a0,s5,824 # 8338 <__fsym_list_mem_name+0x1f4>
    20f4:	fdbfe0ef          	jal	ra,10ce <rt_kprintf>
    20f8:	854a                	mv	a0,s2
    20fa:	c33ff0ef          	jal	ra,1d2c <show_wait_queue>
    20fe:	260b0513          	addi	a0,s6,608 # 8260 <__fsym_list_mem_name+0x11c>
    2102:	fcdfe0ef          	jal	ra,10ce <rt_kprintf>
    2106:	4000                	lw	s0,0(s0)
    2108:	bf4d                	j	20ba <list_mailbox+0x54>
    210a:	bc9ff0ef          	jal	ra,1cd2 <rt_list_len>
    210e:	4792                	lw	a5,4(sp)
    2110:	4722                	lw	a4,8(sp)
    2112:	46b2                	lw	a3,12(sp)
    2114:	882a                	mv	a6,a0
    2116:	4621                	li	a2,8
    2118:	85a6                	mv	a1,s1
    211a:	350a0513          	addi	a0,s4,848 # 8350 <__fsym_list_mem_name+0x20c>
    211e:	fb1fe0ef          	jal	ra,10ce <rt_kprintf>
    2122:	b7d5                	j	2106 <list_mailbox+0xa0>

00002124 <list_msgqueue>:
    2124:	bacfe2ef          	jal	t0,4d0 <__riscv_save_4>
    2128:	1141                	addi	sp,sp,-16
    212a:	4519                	li	a0,6
    212c:	b96ff0ef          	jal	ra,14c2 <rt_object_get_information>
    2130:	00450993          	addi	s3,a0,4
    2134:	00008937          	lui	s2,0x8
    2138:	842a                	mv	s0,a0
    213a:	85ce                	mv	a1,s3
    213c:	36890513          	addi	a0,s2,872 # 8368 <__fsym_list_mem_name+0x224>
    2140:	c23ff0ef          	jal	ra,1d62 <object_name_maxlen>
    2144:	85aa                	mv	a1,a0
    2146:	84aa                	mv	s1,a0
    2148:	00008537          	lui	a0,0x8
    214c:	36890613          	addi	a2,s2,872
    2150:	37450513          	addi	a0,a0,884 # 8374 <__fsym_list_mem_name+0x230>
    2154:	f7bfe0ef          	jal	ra,10ce <rt_kprintf>
    2158:	8526                	mv	a0,s1
    215a:	bb3ff0ef          	jal	ra,1d0c <object_split>
    215e:	00008537          	lui	a0,0x8
    2162:	39050513          	addi	a0,a0,912 # 8390 <__fsym_list_mem_name+0x24c>
    2166:	f69fe0ef          	jal	ra,10ce <rt_kprintf>
    216a:	4040                	lw	s0,4(s0)
    216c:	00008a37          	lui	s4,0x8
    2170:	00008ab7          	lui	s5,0x8
    2174:	00008b37          	lui	s6,0x8
    2178:	00899663          	bne	s3,s0,2184 <list_msgqueue+0x60>
    217c:	4501                	li	a0,0
    217e:	0141                	addi	sp,sp,16
    2180:	b84fe06f          	j	504 <__riscv_restore_4>
    2184:	2c1a                	lhu	a4,24(s0)
    2186:	441c                	lw	a5,8(s0)
    2188:	ff440693          	addi	a3,s0,-12
    218c:	00840913          	addi	s2,s0,8
    2190:	c636                	sw	a3,12(sp)
    2192:	c43a                	sw	a4,8(sp)
    2194:	854a                	mv	a0,s2
    2196:	02f90663          	beq	s2,a5,21c2 <list_msgqueue+0x9e>
    219a:	b39ff0ef          	jal	ra,1cd2 <rt_list_len>
    219e:	4722                	lw	a4,8(sp)
    21a0:	46b2                	lw	a3,12(sp)
    21a2:	87aa                	mv	a5,a0
    21a4:	4621                	li	a2,8
    21a6:	85a6                	mv	a1,s1
    21a8:	3a8a8513          	addi	a0,s5,936 # 83a8 <__fsym_list_mem_name+0x264>
    21ac:	f23fe0ef          	jal	ra,10ce <rt_kprintf>
    21b0:	854a                	mv	a0,s2
    21b2:	b7bff0ef          	jal	ra,1d2c <show_wait_queue>
    21b6:	260b0513          	addi	a0,s6,608 # 8260 <__fsym_list_mem_name+0x11c>
    21ba:	f15fe0ef          	jal	ra,10ce <rt_kprintf>
    21be:	4000                	lw	s0,0(s0)
    21c0:	bf65                	j	2178 <list_msgqueue+0x54>
    21c2:	b11ff0ef          	jal	ra,1cd2 <rt_list_len>
    21c6:	4722                	lw	a4,8(sp)
    21c8:	46b2                	lw	a3,12(sp)
    21ca:	87aa                	mv	a5,a0
    21cc:	4621                	li	a2,8
    21ce:	85a6                	mv	a1,s1
    21d0:	3bca0513          	addi	a0,s4,956 # 83bc <__fsym_list_mem_name+0x278>
    21d4:	efbfe0ef          	jal	ra,10ce <rt_kprintf>
    21d8:	b7dd                	j	21be <list_msgqueue+0x9a>

000021da <list_device>:
    21da:	af6fe2ef          	jal	t0,4d0 <__riscv_save_4>
    21de:	715d                	addi	sp,sp,-80
    21e0:	4525                	li	a0,9
    21e2:	ae0ff0ef          	jal	ra,14c2 <rt_object_get_information>
    21e6:	65a1                	lui	a1,0x8
    21e8:	05000613          	li	a2,80
    21ec:	842a                	mv	s0,a0
    21ee:	00450913          	addi	s2,a0,4
    21f2:	e8c58593          	addi	a1,a1,-372 # 7e8c <strncmp+0x2a>
    21f6:	850a                	mv	a0,sp
    21f8:	379050ef          	jal	ra,7d70 <memcpy>
    21fc:	000089b7          	lui	s3,0x8
    2200:	85ca                	mv	a1,s2
    2202:	21098513          	addi	a0,s3,528 # 8210 <__fsym_list_mem_name+0xcc>
    2206:	b5dff0ef          	jal	ra,1d62 <object_name_maxlen>
    220a:	85aa                	mv	a1,a0
    220c:	84aa                	mv	s1,a0
    220e:	00008537          	lui	a0,0x8
    2212:	21098613          	addi	a2,s3,528
    2216:	21850513          	addi	a0,a0,536 # 8218 <__fsym_list_mem_name+0xd4>
    221a:	eb5fe0ef          	jal	ra,10ce <rt_kprintf>
    221e:	8526                	mv	a0,s1
    2220:	aedff0ef          	jal	ra,1d0c <object_split>
    2224:	00008537          	lui	a0,0x8
    2228:	24050513          	addi	a0,a0,576 # 8240 <__fsym_list_mem_name+0xfc>
    222c:	ea3fe0ef          	jal	ra,10ce <rt_kprintf>
    2230:	4040                	lw	s0,4(s0)
    2232:	49d1                	li	s3,20
    2234:	00008a37          	lui	s4,0x8
    2238:	00891663          	bne	s2,s0,2244 <list_device+0x6a>
    223c:	4501                	li	a0,0
    223e:	6161                	addi	sp,sp,80
    2240:	ac4fe06f          	j	504 <__riscv_restore_4>
    2244:	441c                	lw	a5,8(s0)
    2246:	ff440693          	addi	a3,s0,-12
    224a:	02f9e063          	bltu	s3,a5,226a <list_device+0x90>
    224e:	0898                	addi	a4,sp,80
    2250:	078a                	slli	a5,a5,0x2
    2252:	97ba                	add	a5,a5,a4
    2254:	fb07a703          	lw	a4,-80(a5)
    2258:	281c                	lbu	a5,16(s0)
    225a:	4621                	li	a2,8
    225c:	85a6                	mv	a1,s1
    225e:	264a0513          	addi	a0,s4,612 # 8264 <__fsym_list_mem_name+0x120>
    2262:	e6dfe0ef          	jal	ra,10ce <rt_kprintf>
    2266:	4000                	lw	s0,0(s0)
    2268:	bfc1                	j	2238 <list_device+0x5e>
    226a:	4746                	lw	a4,80(sp)
    226c:	b7f5                	j	2258 <list_device+0x7e>

0000226e <list_timer>:
    226e:	a62fe2ef          	jal	t0,4d0 <__riscv_save_4>
    2272:	4529                	li	a0,10
    2274:	a4eff0ef          	jal	ra,14c2 <rt_object_get_information>
    2278:	000089b7          	lui	s3,0x8
    227c:	00450913          	addi	s2,a0,4
    2280:	842a                	mv	s0,a0
    2282:	85ca                	mv	a1,s2
    2284:	58498513          	addi	a0,s3,1412 # 8584 <__fsym_list_mem_name+0x440>
    2288:	adbff0ef          	jal	ra,1d62 <object_name_maxlen>
    228c:	85aa                	mv	a1,a0
    228e:	84aa                	mv	s1,a0
    2290:	00008537          	lui	a0,0x8
    2294:	58498613          	addi	a2,s3,1412
    2298:	58c50513          	addi	a0,a0,1420 # 858c <__fsym_list_mem_name+0x448>
    229c:	e33fe0ef          	jal	ra,10ce <rt_kprintf>
    22a0:	8526                	mv	a0,s1
    22a2:	a6bff0ef          	jal	ra,1d0c <object_split>
    22a6:	00008537          	lui	a0,0x8
    22aa:	5b450513          	addi	a0,a0,1460 # 85b4 <__fsym_list_mem_name+0x470>
    22ae:	e21fe0ef          	jal	ra,10ce <rt_kprintf>
    22b2:	4040                	lw	s0,4(s0)
    22b4:	000089b7          	lui	s3,0x8
    22b8:	00008a37          	lui	s4,0x8
    22bc:	00008ab7          	lui	s5,0x8
    22c0:	00891e63          	bne	s2,s0,22dc <list_timer+0x6e>
    22c4:	afefe0ef          	jal	ra,5c2 <rt_tick_get>
    22c8:	85aa                	mv	a1,a0
    22ca:	00008537          	lui	a0,0x8
    22ce:	60c50513          	addi	a0,a0,1548 # 860c <__fsym_list_mem_name+0x4c8>
    22d2:	dfdfe0ef          	jal	ra,10ce <rt_kprintf>
    22d6:	4501                	li	a0,0
    22d8:	a2cfe06f          	j	504 <__riscv_restore_4>
    22dc:	4c5c                	lw	a5,28(s0)
    22de:	4c18                	lw	a4,24(s0)
    22e0:	5d898513          	addi	a0,s3,1496 # 85d8 <__fsym_list_mem_name+0x494>
    22e4:	ff440693          	addi	a3,s0,-12
    22e8:	4621                	li	a2,8
    22ea:	85a6                	mv	a1,s1
    22ec:	de3fe0ef          	jal	ra,10ce <rt_kprintf>
    22f0:	ffd44783          	lbu	a5,-3(s0)
    22f4:	5f0a8513          	addi	a0,s5,1520 # 85f0 <__fsym_list_mem_name+0x4ac>
    22f8:	8b85                	andi	a5,a5,1
    22fa:	e399                	bnez	a5,2300 <list_timer+0x92>
    22fc:	5fca0513          	addi	a0,s4,1532 # 85fc <__fsym_list_mem_name+0x4b8>
    2300:	dcffe0ef          	jal	ra,10ce <rt_kprintf>
    2304:	4000                	lw	s0,0(s0)
    2306:	bf6d                	j	22c0 <list_timer+0x52>

00002308 <list>:
    2308:	9c8fe2ef          	jal	t0,4d0 <__riscv_save_4>
    230c:	00008537          	lui	a0,0x8
    2310:	1e850513          	addi	a0,a0,488 # 81e8 <__fsym_list_mem_name+0xa4>
    2314:	dbbfe0ef          	jal	ra,10ce <rt_kprintf>
    2318:	8a01a403          	lw	s0,-1888(gp) # 200001f0 <_syscall_table_begin>
    231c:	000089b7          	lui	s3,0x8
    2320:	00008a37          	lui	s4,0x8
    2324:	8a41a783          	lw	a5,-1884(gp) # 200001f4 <_syscall_table_end>
    2328:	00f46563          	bltu	s0,a5,2332 <list+0x2a>
    232c:	4501                	li	a0,0
    232e:	9d6fe06f          	j	504 <__riscv_restore_4>
    2332:	4004                	lw	s1,0(s0)
    2334:	4609                	li	a2,2
    2336:	1fc98593          	addi	a1,s3,508 # 81fc <__fsym_list_mem_name+0xb8>
    233a:	8526                	mv	a0,s1
    233c:	327050ef          	jal	ra,7e62 <strncmp>
    2340:	c519                	beqz	a0,234e <list+0x46>
    2342:	4050                	lw	a2,4(s0)
    2344:	85a6                	mv	a1,s1
    2346:	200a0513          	addi	a0,s4,512 # 8200 <__fsym_list_mem_name+0xbc>
    234a:	d85fe0ef          	jal	ra,10ce <rt_kprintf>
    234e:	0431                	addi	s0,s0,12
    2350:	bfd1                	j	2324 <list+0x1c>

00002352 <msh_help>:
    2352:	97efe2ef          	jal	t0,4d0 <__riscv_save_4>
    2356:	00009537          	lui	a0,0x9
    235a:	aac50513          	addi	a0,a0,-1364 # 8aac <__fsym_reboot_name+0x16c>
    235e:	d71fe0ef          	jal	ra,10ce <rt_kprintf>
    2362:	8a01a403          	lw	s0,-1888(gp) # 200001f0 <_syscall_table_begin>
    2366:	000099b7          	lui	s3,0x9
    236a:	00009a37          	lui	s4,0x9
    236e:	8a41a783          	lw	a5,-1884(gp) # 200001f4 <_syscall_table_end>
    2372:	00f46b63          	bltu	s0,a5,2388 <msh_help+0x36>
    2376:	00008537          	lui	a0,0x8
    237a:	26050513          	addi	a0,a0,608 # 8260 <__fsym_list_mem_name+0x11c>
    237e:	d51fe0ef          	jal	ra,10ce <rt_kprintf>
    2382:	4501                	li	a0,0
    2384:	980fe06f          	j	504 <__riscv_restore_4>
    2388:	4004                	lw	s1,0(s0)
    238a:	4619                	li	a2,6
    238c:	ac898593          	addi	a1,s3,-1336 # 8ac8 <__fsym_reboot_name+0x188>
    2390:	8526                	mv	a0,s1
    2392:	2d1050ef          	jal	ra,7e62 <strncmp>
    2396:	e901                	bnez	a0,23a6 <msh_help+0x54>
    2398:	4050                	lw	a2,4(s0)
    239a:	00648593          	addi	a1,s1,6
    239e:	ad0a0513          	addi	a0,s4,-1328 # 8ad0 <__fsym_reboot_name+0x190>
    23a2:	d2dfe0ef          	jal	ra,10ce <rt_kprintf>
    23a6:	0431                	addi	s0,s0,12
    23a8:	b7d9                	j	236e <msh_help+0x1c>

000023aa <msh_is_used>:
    23aa:	4505                	li	a0,1
    23ac:	8082                	ret

000023ae <msh_exec>:
    23ae:	922fe2ef          	jal	t0,4d0 <__riscv_save_4>
    23b2:	7179                	addi	sp,sp,-48
    23b4:	842a                	mv	s0,a0
    23b6:	95aa                	add	a1,a1,a0
    23b8:	02000693          	li	a3,32
    23bc:	4725                	li	a4,9
    23be:	00040783          	lb	a5,0(s0)
    23c2:	408584b3          	sub	s1,a1,s0
    23c6:	0ad78563          	beq	a5,a3,2470 <msh_exec+0xc2>
    23ca:	0ae78363          	beq	a5,a4,2470 <msh_exec+0xc2>
    23ce:	4501                	li	a0,0
    23d0:	10048b63          	beqz	s1,24e6 <msh_exec+0x138>
    23d4:	4901                	li	s2,0
    23d6:	02000713          	li	a4,32
    23da:	46a5                	li	a3,9
    23dc:	012407b3          	add	a5,s0,s2
    23e0:	00078783          	lb	a5,0(a5)
    23e4:	08e78a63          	beq	a5,a4,2478 <msh_exec+0xca>
    23e8:	08d78863          	beq	a5,a3,2478 <msh_exec+0xca>
    23ec:	08991463          	bne	s2,s1,2474 <msh_exec+0xc6>
    23f0:	8a01a983          	lw	s3,-1888(gp) # 200001f0 <_syscall_table_begin>
    23f4:	8a41aa83          	lw	s5,-1884(gp) # 200001f4 <_syscall_table_end>
    23f8:	00009b37          	lui	s6,0x9
    23fc:	0959f063          	bgeu	s3,s5,247c <msh_exec+0xce>
    2400:	0009aa03          	lw	s4,0(s3)
    2404:	4619                	li	a2,6
    2406:	ac8b0593          	addi	a1,s6,-1336 # 8ac8 <__fsym_reboot_name+0x188>
    240a:	8552                	mv	a0,s4
    240c:	257050ef          	jal	ra,7e62 <strncmp>
    2410:	e559                	bnez	a0,249e <msh_exec+0xf0>
    2412:	864a                	mv	a2,s2
    2414:	85a2                	mv	a1,s0
    2416:	006a0513          	addi	a0,s4,6
    241a:	249050ef          	jal	ra,7e62 <strncmp>
    241e:	e141                	bnez	a0,249e <msh_exec+0xf0>
    2420:	9a4a                	add	s4,s4,s2
    2422:	006a0783          	lb	a5,6(s4)
    2426:	efa5                	bnez	a5,249e <msh_exec+0xf0>
    2428:	0089a983          	lw	s3,8(s3)
    242c:	04098863          	beqz	s3,247c <msh_exec+0xce>
    2430:	02800613          	li	a2,40
    2434:	4581                	li	a1,0
    2436:	0028                	addi	a0,sp,8
    2438:	8e2fe0ef          	jal	ra,51a <memset>
    243c:	00810913          	addi	s2,sp,8
    2440:	86ca                	mv	a3,s2
    2442:	87a2                	mv	a5,s0
    2444:	4501                	li	a0,0
    2446:	4701                	li	a4,0
    2448:	02000813          	li	a6,32
    244c:	48a5                	li	a7,9
    244e:	4329                	li	t1,10
    2450:	02200613          	li	a2,34
    2454:	05c00e13          	li	t3,92
    2458:	00078583          	lb	a1,0(a5)
    245c:	01058463          	beq	a1,a6,2464 <msh_exec+0xb6>
    2460:	05159663          	bne	a1,a7,24ac <msh_exec+0xfe>
    2464:	02971f63          	bne	a4,s1,24a2 <msh_exec+0xf4>
    2468:	47a9                	li	a5,10
    246a:	04f50363          	beq	a0,a5,24b0 <msh_exec+0x102>
    246e:	a869                	j	2508 <msh_exec+0x15a>
    2470:	0405                	addi	s0,s0,1
    2472:	b7b1                	j	23be <msh_exec+0x10>
    2474:	0905                	addi	s2,s2,1
    2476:	b79d                	j	23dc <msh_exec+0x2e>
    2478:	f6091ce3          	bnez	s2,23f0 <msh_exec+0x42>
    247c:	87a2                	mv	a5,s0
    247e:	00078703          	lb	a4,0(a5)
    2482:	fdf77713          	andi	a4,a4,-33
    2486:	e779                	bnez	a4,2554 <msh_exec+0x1a6>
    2488:	00009537          	lui	a0,0x9
    248c:	a9450513          	addi	a0,a0,-1388 # 8a94 <__fsym_reboot_name+0x154>
    2490:	00078023          	sb	zero,0(a5)
    2494:	85a2                	mv	a1,s0
    2496:	c39fe0ef          	jal	ra,10ce <rt_kprintf>
    249a:	557d                	li	a0,-1
    249c:	a0a9                	j	24e6 <msh_exec+0x138>
    249e:	09b1                	addi	s3,s3,12
    24a0:	bfb1                	j	23fc <msh_exec+0x4e>
    24a2:	00078023          	sb	zero,0(a5)
    24a6:	0705                	addi	a4,a4,1
    24a8:	0785                	addi	a5,a5,1
    24aa:	b77d                	j	2458 <msh_exec+0xaa>
    24ac:	04651063          	bne	a0,t1,24ec <msh_exec+0x13e>
    24b0:	00009537          	lui	a0,0x9
    24b4:	a7050513          	addi	a0,a0,-1424 # 8a70 <__fsym_reboot_name+0x130>
    24b8:	c17fe0ef          	jal	ra,10ce <rt_kprintf>
    24bc:	1800                	addi	s0,sp,48
    24be:	000094b7          	lui	s1,0x9
    24c2:	00092583          	lw	a1,0(s2)
    24c6:	a9048513          	addi	a0,s1,-1392 # 8a90 <__fsym_reboot_name+0x150>
    24ca:	0911                	addi	s2,s2,4
    24cc:	c03fe0ef          	jal	ra,10ce <rt_kprintf>
    24d0:	fe8919e3          	bne	s2,s0,24c2 <msh_exec+0x114>
    24d4:	00008537          	lui	a0,0x8
    24d8:	26050513          	addi	a0,a0,608 # 8260 <__fsym_list_mem_name+0x11c>
    24dc:	bf3fe0ef          	jal	ra,10ce <rt_kprintf>
    24e0:	4529                	li	a0,10
    24e2:	002c                	addi	a1,sp,8
    24e4:	9982                	jalr	s3
    24e6:	6145                	addi	sp,sp,48
    24e8:	81cfe06f          	j	504 <__riscv_restore_4>
    24ec:	00977e63          	bgeu	a4,s1,2508 <msh_exec+0x15a>
    24f0:	0505                	addi	a0,a0,1
    24f2:	04c59263          	bne	a1,a2,2536 <msh_exec+0x188>
    24f6:	0785                	addi	a5,a5,1
    24f8:	0705                	addi	a4,a4,1
    24fa:	c29c                	sw	a5,0(a3)
    24fc:	00078583          	lb	a1,0(a5)
    2500:	02c58163          	beq	a1,a2,2522 <msh_exec+0x174>
    2504:	00976463          	bltu	a4,s1,250c <msh_exec+0x15e>
    2508:	fd69                	bnez	a0,24e2 <msh_exec+0x134>
    250a:	bf8d                	j	247c <msh_exec+0xce>
    250c:	00178e83          	lb	t4,1(a5)
    2510:	01c59663          	bne	a1,t3,251c <msh_exec+0x16e>
    2514:	00ce9463          	bne	t4,a2,251c <msh_exec+0x16e>
    2518:	0785                	addi	a5,a5,1
    251a:	0705                	addi	a4,a4,1
    251c:	0785                	addi	a5,a5,1
    251e:	0705                	addi	a4,a4,1
    2520:	bff1                	j	24fc <msh_exec+0x14e>
    2522:	fe9773e3          	bgeu	a4,s1,2508 <msh_exec+0x15a>
    2526:	00078023          	sb	zero,0(a5)
    252a:	0705                	addi	a4,a4,1
    252c:	0785                	addi	a5,a5,1
    252e:	0691                	addi	a3,a3,4
    2530:	f29764e3          	bltu	a4,s1,2458 <msh_exec+0xaa>
    2534:	bfd1                	j	2508 <msh_exec+0x15a>
    2536:	c29c                	sw	a5,0(a3)
    2538:	00078583          	lb	a1,0(a5)
    253c:	01058963          	beq	a1,a6,254e <msh_exec+0x1a0>
    2540:	01158763          	beq	a1,a7,254e <msh_exec+0x1a0>
    2544:	fc9702e3          	beq	a4,s1,2508 <msh_exec+0x15a>
    2548:	0785                	addi	a5,a5,1
    254a:	0705                	addi	a4,a4,1
    254c:	b7f5                	j	2538 <msh_exec+0x18a>
    254e:	fe9760e3          	bltu	a4,s1,252e <msh_exec+0x180>
    2552:	bf5d                	j	2508 <msh_exec+0x15a>
    2554:	0785                	addi	a5,a5,1
    2556:	b725                	j	247e <msh_exec+0xd0>

00002558 <msh_auto_complete>:
    2558:	f6bfd2ef          	jal	t0,4c2 <__riscv_save_10>
    255c:	00050783          	lb	a5,0(a0)
    2560:	e799                	bnez	a5,256e <msh_auto_complete+0x16>
    2562:	4581                	li	a1,0
    2564:	4501                	li	a0,0
    2566:	dedff0ef          	jal	ra,2352 <msh_help>
    256a:	f91fd06f          	j	4fa <__riscv_restore_10>
    256e:	8a01aa03          	lw	s4,-1888(gp) # 200001f0 <_syscall_table_begin>
    2572:	89aa                	mv	s3,a0
    2574:	4481                	li	s1,0
    2576:	4901                	li	s2,0
    2578:	00009b37          	lui	s6,0x9
    257c:	00009bb7          	lui	s7,0x9
    2580:	8a41a783          	lw	a5,-1884(gp) # 200001f4 <_syscall_table_end>
    2584:	00fa6963          	bltu	s4,a5,2596 <msh_auto_complete+0x3e>
    2588:	d0ed                	beqz	s1,256a <msh_auto_complete+0x12>
    258a:	864a                	mv	a2,s2
    258c:	85a6                	mv	a1,s1
    258e:	854e                	mv	a0,s3
    2590:	f4efe0ef          	jal	ra,cde <rt_strncpy>
    2594:	bfd9                	j	256a <msh_auto_complete+0x12>
    2596:	000a2403          	lw	s0,0(s4)
    259a:	4619                	li	a2,6
    259c:	ac8b0593          	addi	a1,s6,-1336 # 8ac8 <__fsym_reboot_name+0x188>
    25a0:	8522                	mv	a0,s0
    25a2:	0c1050ef          	jal	ra,7e62 <strncmp>
    25a6:	e121                	bnez	a0,25e6 <msh_auto_complete+0x8e>
    25a8:	854e                	mv	a0,s3
    25aa:	0a7050ef          	jal	ra,7e50 <strlen>
    25ae:	0419                	addi	s0,s0,6
    25b0:	862a                	mv	a2,a0
    25b2:	85a2                	mv	a1,s0
    25b4:	854e                	mv	a0,s3
    25b6:	0ad050ef          	jal	ra,7e62 <strncmp>
    25ba:	e515                	bnez	a0,25e6 <msh_auto_complete+0x8e>
    25bc:	00091763          	bnez	s2,25ca <msh_auto_complete+0x72>
    25c0:	8522                	mv	a0,s0
    25c2:	08f050ef          	jal	ra,7e50 <strlen>
    25c6:	892a                	mv	s2,a0
    25c8:	84a2                	mv	s1,s0
    25ca:	87a6                	mv	a5,s1
    25cc:	8722                	mv	a4,s0
    25ce:	00078603          	lb	a2,0(a5)
    25d2:	ee01                	bnez	a2,25ea <msh_auto_complete+0x92>
    25d4:	8f85                	sub	a5,a5,s1
    25d6:	0127d363          	bge	a5,s2,25dc <msh_auto_complete+0x84>
    25da:	893e                	mv	s2,a5
    25dc:	85a2                	mv	a1,s0
    25de:	ad8b8513          	addi	a0,s7,-1320 # 8ad8 <__fsym_reboot_name+0x198>
    25e2:	aedfe0ef          	jal	ra,10ce <rt_kprintf>
    25e6:	0a31                	addi	s4,s4,12
    25e8:	bf61                	j	2580 <msh_auto_complete+0x28>
    25ea:	00070683          	lb	a3,0(a4) # e000e000 <_eusrstack+0xbfffe000>
    25ee:	d2fd                	beqz	a3,25d4 <msh_auto_complete+0x7c>
    25f0:	fed612e3          	bne	a2,a3,25d4 <msh_auto_complete+0x7c>
    25f4:	0785                	addi	a5,a5,1
    25f6:	0705                	addi	a4,a4,1
    25f8:	bfd9                	j	25ce <msh_auto_complete+0x76>

000025fa <cmd_ps>:
    25fa:	ef1fd2ef          	jal	t0,4ea <__riscv_save_0>
    25fe:	fa2ff0ef          	jal	ra,1da0 <list_thread>
    2602:	4501                	li	a0,0
    2604:	f0bfd06f          	j	50e <__riscv_restore_0>

00002608 <cmd_free>:
    2608:	ee3fd2ef          	jal	t0,4ea <__riscv_save_0>
    260c:	c0ffe0ef          	jal	ra,121a <list_mem>
    2610:	4501                	li	a0,0
    2612:	efdfd06f          	j	50e <__riscv_restore_0>

00002616 <finsh_rx_ind>:
    2616:	ed5fd2ef          	jal	t0,4ea <__riscv_save_0>
    261a:	89c1a503          	lw	a0,-1892(gp) # 200001ec <shell>
    261e:	bb8fe0ef          	jal	ra,9d6 <rt_sem_release>
    2622:	4501                	li	a0,0
    2624:	eebfd06f          	j	50e <__riscv_restore_0>

00002628 <finsh_system_init>:
    2628:	ec3fd2ef          	jal	t0,4ea <__riscv_save_0>
    262c:	0000a7b7          	lui	a5,0xa
    2630:	9f078793          	addi	a5,a5,-1552 # 99f0 <__fsym_list_mem>
    2634:	8af1a023          	sw	a5,-1888(gp) # 200001f0 <_syscall_table_begin>
    2638:	0000a7b7          	lui	a5,0xa
    263c:	b4078793          	addi	a5,a5,-1216 # 9b40 <__rt_init_rti_start>
    2640:	8af1a223          	sw	a5,-1884(gp) # 200001f4 <_syscall_table_end>
    2644:	0000a7b7          	lui	a5,0xa
    2648:	b4078793          	addi	a5,a5,-1216 # 9b40 <__rt_init_rti_start>
    264c:	8af1a423          	sw	a5,-1880(gp) # 200001f8 <_sysvar_table_begin>
    2650:	0000a7b7          	lui	a5,0xa
    2654:	b4078793          	addi	a5,a5,-1216 # 9b40 <__rt_init_rti_start>
    2658:	21000593          	li	a1,528
    265c:	4505                	li	a0,1
    265e:	8af1a623          	sw	a5,-1876(gp) # 200001fc <_sysvar_table_end>
    2662:	89c18413          	addi	s0,gp,-1892 # 200001ec <shell>
    2666:	d8ffe0ef          	jal	ra,13f4 <rt_calloc>
    266a:	c008                	sw	a0,0(s0)
    266c:	e919                	bnez	a0,2682 <finsh_system_init+0x5a>
    266e:	00009537          	lui	a0,0x9
    2672:	b8c50513          	addi	a0,a0,-1140 # 8b8c <__fsym___cmd_ps_name+0x40>
    2676:	a59fe0ef          	jal	ra,10ce <rt_kprintf>
    267a:	547d                	li	s0,-1
    267c:	8522                	mv	a0,s0
    267e:	e91fd06f          	j	50e <__riscv_restore_0>
    2682:	000025b7          	lui	a1,0x2
    2686:	00009537          	lui	a0,0x9
    268a:	47a9                	li	a5,10
    268c:	472d                	li	a4,11
    268e:	40000693          	li	a3,1024
    2692:	4601                	li	a2,0
    2694:	7a858593          	addi	a1,a1,1960 # 27a8 <finsh_thread_entry>
    2698:	ba450513          	addi	a0,a0,-1116 # 8ba4 <__fsym___cmd_ps_name+0x58>
    269c:	a34ff0ef          	jal	ra,18d0 <rt_thread_create>
    26a0:	84aa                	mv	s1,a0
    26a2:	4008                	lw	a0,0(s0)
    26a4:	000095b7          	lui	a1,0x9
    26a8:	4681                	li	a3,0
    26aa:	4601                	li	a2,0
    26ac:	bac58593          	addi	a1,a1,-1108 # 8bac <__fsym___cmd_ps_name+0x60>
    26b0:	a7efe0ef          	jal	ra,92e <rt_sem_init>
    26b4:	4401                	li	s0,0
    26b6:	d0f9                	beqz	s1,267c <finsh_system_init+0x54>
    26b8:	8526                	mv	a0,s1
    26ba:	b8eff0ef          	jal	ra,1a48 <rt_thread_startup>
    26be:	bf7d                	j	267c <finsh_system_init+0x54>

000026c0 <finsh_get_prompt>:
    26c0:	e2bfd2ef          	jal	t0,4ea <__riscv_save_0>
    26c4:	ce7ff0ef          	jal	ra,23aa <msh_is_used>
    26c8:	c50d                	beqz	a0,26f2 <finsh_get_prompt+0x32>
    26ca:	000095b7          	lui	a1,0x9
    26ce:	b5858593          	addi	a1,a1,-1192 # 8b58 <__fsym___cmd_ps_name+0xc>
    26d2:	c7018513          	addi	a0,gp,-912 # 200005c0 <finsh_prompt.4317>
    26d6:	76a050ef          	jal	ra,7e40 <strcpy>
    26da:	000095b7          	lui	a1,0x9
    26de:	b6858593          	addi	a1,a1,-1176 # 8b68 <__fsym___cmd_ps_name+0x1c>
    26e2:	c7018513          	addi	a0,gp,-912 # 200005c0 <finsh_prompt.4317>
    26e6:	73c050ef          	jal	ra,7e22 <strcat>
    26ea:	c7018513          	addi	a0,gp,-912 # 200005c0 <finsh_prompt.4317>
    26ee:	e21fd06f          	j	50e <__riscv_restore_0>
    26f2:	000095b7          	lui	a1,0x9
    26f6:	b6058593          	addi	a1,a1,-1184 # 8b60 <__fsym___cmd_ps_name+0x14>
    26fa:	bfe1                	j	26d2 <finsh_get_prompt+0x12>

000026fc <shell_handle_history>:
    26fc:	deffd2ef          	jal	t0,4ea <__riscv_save_0>
    2700:	842a                	mv	s0,a0
    2702:	00009537          	lui	a0,0x9
    2706:	bc850513          	addi	a0,a0,-1080 # 8bc8 <__fsym___cmd_ps_name+0x7c>
    270a:	9c5fe0ef          	jal	ra,10ce <rt_kprintf>
    270e:	fb3ff0ef          	jal	ra,26c0 <finsh_get_prompt>
    2712:	85aa                	mv	a1,a0
    2714:	00009537          	lui	a0,0x9
    2718:	1ba40613          	addi	a2,s0,442
    271c:	bd050513          	addi	a0,a0,-1072 # 8bd0 <__fsym___cmd_ps_name+0x84>
    2720:	9affe0ef          	jal	ra,10ce <rt_kprintf>
    2724:	4501                	li	a0,0
    2726:	de9fd06f          	j	50e <__riscv_restore_0>

0000272a <finsh_set_device>:
    272a:	dc1fd2ef          	jal	t0,4ea <__riscv_save_0>
    272e:	1141                	addi	sp,sp,-16
    2730:	c62a                	sw	a0,12(sp)
    2732:	f71fd0ef          	jal	ra,6a2 <rt_device_find>
    2736:	45b2                	lw	a1,12(sp)
    2738:	e911                	bnez	a0,274c <finsh_set_device+0x22>
    273a:	00009537          	lui	a0,0x9
    273e:	b6c50513          	addi	a0,a0,-1172 # 8b6c <__fsym___cmd_ps_name+0x20>
    2742:	98dfe0ef          	jal	ra,10ce <rt_kprintf>
    2746:	0141                	addi	sp,sp,16
    2748:	dc7fd06f          	j	50e <__riscv_restore_0>
    274c:	89c1a783          	lw	a5,-1892(gp) # 200001ec <shell>
    2750:	84aa                	mv	s1,a0
    2752:	89c18413          	addi	s0,gp,-1892 # 200001ec <shell>
    2756:	20c7a783          	lw	a5,524(a5)
    275a:	fea786e3          	beq	a5,a0,2746 <finsh_set_device+0x1c>
    275e:	14300593          	li	a1,323
    2762:	fbdfd0ef          	jal	ra,71e <rt_device_open>
    2766:	f165                	bnez	a0,2746 <finsh_set_device+0x1c>
    2768:	401c                	lw	a5,0(s0)
    276a:	20c7a503          	lw	a0,524(a5)
    276e:	c909                	beqz	a0,2780 <finsh_set_device+0x56>
    2770:	828fe0ef          	jal	ra,798 <rt_device_close>
    2774:	401c                	lw	a5,0(s0)
    2776:	4581                	li	a1,0
    2778:	20c7a503          	lw	a0,524(a5)
    277c:	88cfe0ef          	jal	ra,808 <rt_device_set_rx_indicate>
    2780:	4000                	lw	s0,0(s0)
    2782:	05000613          	li	a2,80
    2786:	4581                	li	a1,0
    2788:	1ba40513          	addi	a0,s0,442
    278c:	d8ffd0ef          	jal	ra,51a <memset>
    2790:	000025b7          	lui	a1,0x2
    2794:	20041523          	sh	zero,522(s0)
    2798:	20942623          	sw	s1,524(s0)
    279c:	61658593          	addi	a1,a1,1558 # 2616 <finsh_rx_ind>
    27a0:	8526                	mv	a0,s1
    27a2:	866fe0ef          	jal	ra,808 <rt_device_set_rx_indicate>
    27a6:	b745                	j	2746 <finsh_set_device+0x1c>

000027a8 <finsh_thread_entry>:
    27a8:	d13fd2ef          	jal	t0,4ba <__riscv_save_12>
    27ac:	89c1a783          	lw	a5,-1892(gp) # 200001ec <shell>
    27b0:	1141                	addi	sp,sp,-16
    27b2:	89c18493          	addi	s1,gp,-1892 # 200001ec <shell>
    27b6:	0247c703          	lbu	a4,36(a5)
    27ba:	00176713          	ori	a4,a4,1
    27be:	02e78223          	sb	a4,36(a5)
    27c2:	20c7a783          	lw	a5,524(a5)
    27c6:	e791                	bnez	a5,27d2 <finsh_thread_entry+0x2a>
    27c8:	8d1fe0ef          	jal	ra,1098 <rt_console_get_device>
    27cc:	c119                	beqz	a0,27d2 <finsh_thread_entry+0x2a>
    27ce:	f5dff0ef          	jal	ra,272a <finsh_set_device>
    27d2:	eefff0ef          	jal	ra,26c0 <finsh_get_prompt>
    27d6:	8f9fe0ef          	jal	ra,10ce <rt_kprintf>
    27da:	00009b37          	lui	s6,0x9
    27de:	00009bb7          	lui	s7,0x9
    27e2:	000099b7          	lui	s3,0x9
    27e6:	00008a37          	lui	s4,0x8
    27ea:	00009ab7          	lui	s5,0x9
    27ee:	00009c37          	lui	s8,0x9
    27f2:	00009cb7          	lui	s9,0x9
    27f6:	409c                	lw	a5,0(s1)
    27f8:	4685                	li	a3,1
    27fa:	00f10613          	addi	a2,sp,15
    27fe:	20c7a503          	lw	a0,524(a5)
    2802:	55fd                	li	a1,-1
    2804:	fcdfd0ef          	jal	ra,7d0 <rt_device_read>
    2808:	4785                	li	a5,1
    280a:	00f51a63          	bne	a0,a5,281e <finsh_thread_entry+0x76>
    280e:	00f10903          	lb	s2,15(sp)
    2812:	47ed                	li	a5,27
    2814:	4080                	lw	s0,0(s1)
    2816:	00f91963          	bne	s2,a5,2828 <finsh_thread_entry+0x80>
    281a:	d008                	sw	a0,32(s0)
    281c:	bfe9                	j	27f6 <finsh_thread_entry+0x4e>
    281e:	4088                	lw	a0,0(s1)
    2820:	55fd                	li	a1,-1
    2822:	934fe0ef          	jal	ra,956 <rt_sem_take>
    2826:	bfc1                	j	27f6 <finsh_thread_entry+0x4e>
    2828:	501c                	lw	a5,32(s0)
    282a:	02a79263          	bne	a5,a0,284e <finsh_thread_entry+0xa6>
    282e:	05b00793          	li	a5,91
    2832:	00f91563          	bne	s2,a5,283c <finsh_thread_entry+0x94>
    2836:	4789                	li	a5,2
    2838:	d01c                	sw	a5,32(s0)
    283a:	bf75                	j	27f6 <finsh_thread_entry+0x4e>
    283c:	02042023          	sw	zero,32(s0)
    2840:	fa090be3          	beqz	s2,27f6 <finsh_thread_entry+0x4e>
    2844:	47a5                	li	a5,9
    2846:	12f91463          	bne	s2,a5,296e <finsh_thread_entry+0x1c6>
    284a:	4901                	li	s2,0
    284c:	a8d1                	j	2920 <finsh_thread_entry+0x178>
    284e:	4709                	li	a4,2
    2850:	fee798e3          	bne	a5,a4,2840 <finsh_thread_entry+0x98>
    2854:	02042023          	sw	zero,32(s0)
    2858:	04100793          	li	a5,65
    285c:	04f91263          	bne	s2,a5,28a0 <finsh_thread_entry+0xf8>
    2860:	306e                	lhu	a1,38(s0)
    2862:	d9d1                	beqz	a1,27f6 <finsh_thread_entry+0x4e>
    2864:	15fd                	addi	a1,a1,-1
    2866:	05c2                	slli	a1,a1,0x10
    2868:	81c1                	srli	a1,a1,0x10
    286a:	b06e                	sh	a1,38(s0)
    286c:	1ba40793          	addi	a5,s0,442
    2870:	05000713          	li	a4,80
    2874:	02e585b3          	mul	a1,a1,a4
    2878:	05000613          	li	a2,80
    287c:	853e                	mv	a0,a5
    287e:	02a58593          	addi	a1,a1,42
    2882:	95a2                	add	a1,a1,s0
    2884:	4ec050ef          	jal	ra,7d70 <memcpy>
    2888:	5c8050ef          	jal	ra,7e50 <strlen>
    288c:	0ff57513          	andi	a0,a0,255
    2890:	20a40523          	sb	a0,522(s0)
    2894:	20a405a3          	sb	a0,523(s0)
    2898:	8522                	mv	a0,s0
    289a:	e63ff0ef          	jal	ra,26fc <shell_handle_history>
    289e:	bfa1                	j	27f6 <finsh_thread_entry+0x4e>
    28a0:	04200793          	li	a5,66
    28a4:	02f91163          	bne	s2,a5,28c6 <finsh_thread_entry+0x11e>
    28a8:	3416                	lhu	a3,40(s0)
    28aa:	307e                	lhu	a5,38(s0)
    28ac:	fff68713          	addi	a4,a3,-1 # 7fffffff <_eusrstack+0x5ffeffff>
    28b0:	00e7d863          	bge	a5,a4,28c0 <finsh_thread_entry+0x118>
    28b4:	0785                	addi	a5,a5,1
    28b6:	b07e                	sh	a5,38(s0)
    28b8:	1ba40793          	addi	a5,s0,442
    28bc:	306e                	lhu	a1,38(s0)
    28be:	bf4d                	j	2870 <finsh_thread_entry+0xc8>
    28c0:	da9d                	beqz	a3,27f6 <finsh_thread_entry+0x4e>
    28c2:	b07a                	sh	a4,38(s0)
    28c4:	bfd5                	j	28b8 <finsh_thread_entry+0x110>
    28c6:	04400793          	li	a5,68
    28ca:	02f91063          	bne	s2,a5,28ea <finsh_thread_entry+0x142>
    28ce:	20b44783          	lbu	a5,523(s0)
    28d2:	d395                	beqz	a5,27f6 <finsh_thread_entry+0x4e>
    28d4:	bb498513          	addi	a0,s3,-1100 # 8bb4 <__fsym___cmd_ps_name+0x68>
    28d8:	ff6fe0ef          	jal	ra,10ce <rt_kprintf>
    28dc:	4098                	lw	a4,0(s1)
    28de:	20b74783          	lbu	a5,523(a4)
    28e2:	17fd                	addi	a5,a5,-1
    28e4:	20f705a3          	sb	a5,523(a4)
    28e8:	b739                	j	27f6 <finsh_thread_entry+0x4e>
    28ea:	04300793          	li	a5,67
    28ee:	f4f919e3          	bne	s2,a5,2840 <finsh_thread_entry+0x98>
    28f2:	20b44783          	lbu	a5,523(s0)
    28f6:	20a44703          	lbu	a4,522(s0)
    28fa:	eee7fee3          	bgeu	a5,a4,27f6 <finsh_thread_entry+0x4e>
    28fe:	943e                	add	s0,s0,a5
    2900:	1ba40583          	lb	a1,442(s0)
    2904:	bb8a8513          	addi	a0,s5,-1096 # 8bb8 <__fsym___cmd_ps_name+0x6c>
    2908:	fc6fe0ef          	jal	ra,10ce <rt_kprintf>
    290c:	4098                	lw	a4,0(s1)
    290e:	20b74783          	lbu	a5,523(a4)
    2912:	0785                	addi	a5,a5,1
    2914:	bfc1                	j	28e4 <finsh_thread_entry+0x13c>
    2916:	bb498513          	addi	a0,s3,-1100
    291a:	fb4fe0ef          	jal	ra,10ce <rt_kprintf>
    291e:	0905                	addi	s2,s2,1
    2920:	4080                	lw	s0,0(s1)
    2922:	20b44783          	lbu	a5,523(s0)
    2926:	fef948e3          	blt	s2,a5,2916 <finsh_thread_entry+0x16e>
    292a:	260a0513          	addi	a0,s4,608 # 8260 <__fsym_list_mem_name+0x11c>
    292e:	fa0fe0ef          	jal	ra,10ce <rt_kprintf>
    2932:	a79ff0ef          	jal	ra,23aa <msh_is_used>
    2936:	4785                	li	a5,1
    2938:	1ba40413          	addi	s0,s0,442
    293c:	00f51563          	bne	a0,a5,2946 <finsh_thread_entry+0x19e>
    2940:	8522                	mv	a0,s0
    2942:	c17ff0ef          	jal	ra,2558 <msh_auto_complete>
    2946:	d7bff0ef          	jal	ra,26c0 <finsh_get_prompt>
    294a:	8622                	mv	a2,s0
    294c:	85aa                	mv	a1,a0
    294e:	bd0c8513          	addi	a0,s9,-1072 # 8bd0 <__fsym___cmd_ps_name+0x84>
    2952:	f7cfe0ef          	jal	ra,10ce <rt_kprintf>
    2956:	4080                	lw	s0,0(s1)
    2958:	1ba40513          	addi	a0,s0,442
    295c:	4f4050ef          	jal	ra,7e50 <strlen>
    2960:	0ff57513          	andi	a0,a0,255
    2964:	20a40523          	sb	a0,522(s0)
    2968:	20a405a3          	sb	a0,523(s0)
    296c:	b569                	j	27f6 <finsh_thread_entry+0x4e>
    296e:	07f00793          	li	a5,127
    2972:	00f90563          	beq	s2,a5,297c <finsh_thread_entry+0x1d4>
    2976:	47a1                	li	a5,8
    2978:	08f91563          	bne	s2,a5,2a02 <finsh_thread_entry+0x25a>
    297c:	20b44783          	lbu	a5,523(s0)
    2980:	e6078be3          	beqz	a5,27f6 <finsh_thread_entry+0x4e>
    2984:	20a44603          	lbu	a2,522(s0)
    2988:	17fd                	addi	a5,a5,-1
    298a:	0ff7f793          	andi	a5,a5,255
    298e:	167d                	addi	a2,a2,-1
    2990:	0ff67613          	andi	a2,a2,255
    2994:	20c40523          	sb	a2,522(s0)
    2998:	20f405a3          	sb	a5,523(s0)
    299c:	04c7f863          	bgeu	a5,a2,29ec <finsh_thread_entry+0x244>
    29a0:	1bb78593          	addi	a1,a5,443
    29a4:	1ba78513          	addi	a0,a5,442
    29a8:	8e1d                	sub	a2,a2,a5
    29aa:	95a2                	add	a1,a1,s0
    29ac:	9522                	add	a0,a0,s0
    29ae:	ae8fe0ef          	jal	ra,c96 <rt_memmove>
    29b2:	409c                	lw	a5,0(s1)
    29b4:	bbcb8513          	addi	a0,s7,-1092 # 8bbc <__fsym___cmd_ps_name+0x70>
    29b8:	20a7c703          	lbu	a4,522(a5)
    29bc:	973e                	add	a4,a4,a5
    29be:	1a070d23          	sb	zero,442(a4)
    29c2:	20b7c583          	lbu	a1,523(a5)
    29c6:	1ba58593          	addi	a1,a1,442
    29ca:	95be                	add	a1,a1,a5
    29cc:	f02fe0ef          	jal	ra,10ce <rt_kprintf>
    29d0:	409c                	lw	a5,0(s1)
    29d2:	20b7c403          	lbu	s0,523(a5)
    29d6:	409c                	lw	a5,0(s1)
    29d8:	20a7c783          	lbu	a5,522(a5)
    29dc:	e087cde3          	blt	a5,s0,27f6 <finsh_thread_entry+0x4e>
    29e0:	bb498513          	addi	a0,s3,-1100
    29e4:	eeafe0ef          	jal	ra,10ce <rt_kprintf>
    29e8:	0405                	addi	s0,s0,1
    29ea:	b7f5                	j	29d6 <finsh_thread_entry+0x22e>
    29ec:	bc4b0513          	addi	a0,s6,-1084 # 8bc4 <__fsym___cmd_ps_name+0x78>
    29f0:	edefe0ef          	jal	ra,10ce <rt_kprintf>
    29f4:	409c                	lw	a5,0(s1)
    29f6:	20a7c703          	lbu	a4,522(a5)
    29fa:	97ba                	add	a5,a5,a4
    29fc:	1a078d23          	sb	zero,442(a5)
    2a00:	bbdd                	j	27f6 <finsh_thread_entry+0x4e>
    2a02:	4735                	li	a4,13
    2a04:	20a44783          	lbu	a5,522(s0)
    2a08:	00e90563          	beq	s2,a4,2a12 <finsh_thread_entry+0x26a>
    2a0c:	4729                	li	a4,10
    2a0e:	0ee91e63          	bne	s2,a4,2b0a <finsh_thread_entry+0x362>
    2a12:	cbb9                	beqz	a5,2a68 <finsh_thread_entry+0x2c0>
    2a14:	02845903          	lhu	s2,40(s0)
    2a18:	4791                	li	a5,4
    2a1a:	1ba40d13          	addi	s10,s0,442
    2a1e:	0927fb63          	bgeu	a5,s2,2ab4 <finsh_thread_entry+0x30c>
    2a22:	16a40d93          	addi	s11,s0,362
    2a26:	05000613          	li	a2,80
    2a2a:	85ea                	mv	a1,s10
    2a2c:	856e                	mv	a0,s11
    2a2e:	31e050ef          	jal	ra,7d4c <memcmp>
    2a32:	c91d                	beqz	a0,2a68 <finsh_thread_entry+0x2c0>
    2a34:	02a40913          	addi	s2,s0,42
    2a38:	854a                	mv	a0,s2
    2a3a:	05090913          	addi	s2,s2,80
    2a3e:	05000613          	li	a2,80
    2a42:	85ca                	mv	a1,s2
    2a44:	32c050ef          	jal	ra,7d70 <memcpy>
    2a48:	ff2d98e3          	bne	s11,s2,2a38 <finsh_thread_entry+0x290>
    2a4c:	05000613          	li	a2,80
    2a50:	4581                	li	a1,0
    2a52:	856e                	mv	a0,s11
    2a54:	ac7fd0ef          	jal	ra,51a <memset>
    2a58:	20a44603          	lbu	a2,522(s0)
    2a5c:	85ea                	mv	a1,s10
    2a5e:	856e                	mv	a0,s11
    2a60:	310050ef          	jal	ra,7d70 <memcpy>
    2a64:	4795                	li	a5,5
    2a66:	b41e                	sh	a5,40(s0)
    2a68:	341e                	lhu	a5,40(s0)
    2a6a:	b07e                	sh	a5,38(s0)
    2a6c:	93fff0ef          	jal	ra,23aa <msh_is_used>
    2a70:	4785                	li	a5,1
    2a72:	02f51263          	bne	a0,a5,2a96 <finsh_thread_entry+0x2ee>
    2a76:	409c                	lw	a5,0(s1)
    2a78:	0247c783          	lbu	a5,36(a5)
    2a7c:	8b85                	andi	a5,a5,1
    2a7e:	c789                	beqz	a5,2a88 <finsh_thread_entry+0x2e0>
    2a80:	260a0513          	addi	a0,s4,608
    2a84:	e4afe0ef          	jal	ra,10ce <rt_kprintf>
    2a88:	4088                	lw	a0,0(s1)
    2a8a:	20a54583          	lbu	a1,522(a0)
    2a8e:	1ba50513          	addi	a0,a0,442
    2a92:	91dff0ef          	jal	ra,23ae <msh_exec>
    2a96:	c2bff0ef          	jal	ra,26c0 <finsh_get_prompt>
    2a9a:	e34fe0ef          	jal	ra,10ce <rt_kprintf>
    2a9e:	4080                	lw	s0,0(s1)
    2aa0:	05000613          	li	a2,80
    2aa4:	4581                	li	a1,0
    2aa6:	1ba40513          	addi	a0,s0,442
    2aaa:	a71fd0ef          	jal	ra,51a <memset>
    2aae:	20041523          	sh	zero,522(s0)
    2ab2:	b391                	j	27f6 <finsh_thread_entry+0x4e>
    2ab4:	02090163          	beqz	s2,2ad6 <finsh_thread_entry+0x32e>
    2ab8:	fff90513          	addi	a0,s2,-1
    2abc:	05000793          	li	a5,80
    2ac0:	02f50533          	mul	a0,a0,a5
    2ac4:	05000613          	li	a2,80
    2ac8:	85ea                	mv	a1,s10
    2aca:	02a50513          	addi	a0,a0,42
    2ace:	9522                	add	a0,a0,s0
    2ad0:	27c050ef          	jal	ra,7d4c <memcmp>
    2ad4:	d951                	beqz	a0,2a68 <finsh_thread_entry+0x2c0>
    2ad6:	05000d93          	li	s11,80
    2ada:	03b90533          	mul	a0,s2,s11
    2ade:	05000613          	li	a2,80
    2ae2:	4581                	li	a1,0
    2ae4:	02a50513          	addi	a0,a0,42
    2ae8:	9522                	add	a0,a0,s0
    2aea:	a31fd0ef          	jal	ra,51a <memset>
    2aee:	340a                	lhu	a0,40(s0)
    2af0:	20a44603          	lbu	a2,522(s0)
    2af4:	85ea                	mv	a1,s10
    2af6:	03b50533          	mul	a0,a0,s11
    2afa:	02a50513          	addi	a0,a0,42
    2afe:	9522                	add	a0,a0,s0
    2b00:	270050ef          	jal	ra,7d70 <memcpy>
    2b04:	341e                	lhu	a5,40(s0)
    2b06:	0785                	addi	a5,a5,1
    2b08:	bfb9                	j	2a66 <finsh_thread_entry+0x2be>
    2b0a:	04f00713          	li	a4,79
    2b0e:	00f77463          	bgeu	a4,a5,2b16 <finsh_thread_entry+0x36e>
    2b12:	20040523          	sb	zero,522(s0)
    2b16:	20b44603          	lbu	a2,523(s0)
    2b1a:	20a44783          	lbu	a5,522(s0)
    2b1e:	08f67063          	bgeu	a2,a5,2b9e <finsh_thread_entry+0x3f6>
    2b22:	1ba60593          	addi	a1,a2,442
    2b26:	1bb60513          	addi	a0,a2,443
    2b2a:	95a2                	add	a1,a1,s0
    2b2c:	40c78633          	sub	a2,a5,a2
    2b30:	9522                	add	a0,a0,s0
    2b32:	964fe0ef          	jal	ra,c96 <rt_memmove>
    2b36:	408c                	lw	a1,0(s1)
    2b38:	20b5c783          	lbu	a5,523(a1)
    2b3c:	00f58733          	add	a4,a1,a5
    2b40:	1b270d23          	sb	s2,442(a4)
    2b44:	0245c703          	lbu	a4,36(a1)
    2b48:	8b05                	andi	a4,a4,1
    2b4a:	cb01                	beqz	a4,2b5a <finsh_thread_entry+0x3b2>
    2b4c:	1ba78793          	addi	a5,a5,442
    2b50:	95be                	add	a1,a1,a5
    2b52:	94cc0513          	addi	a0,s8,-1716 # 894c <__fsym_reboot_name+0xc>
    2b56:	d78fe0ef          	jal	ra,10ce <rt_kprintf>
    2b5a:	409c                	lw	a5,0(s1)
    2b5c:	20b7c403          	lbu	s0,523(a5)
    2b60:	409c                	lw	a5,0(s1)
    2b62:	20a7c783          	lbu	a5,522(a5)
    2b66:	02f44663          	blt	s0,a5,2b92 <finsh_thread_entry+0x3ea>
    2b6a:	4098                	lw	a4,0(s1)
    2b6c:	20a74783          	lbu	a5,522(a4)
    2b70:	20b74683          	lbu	a3,523(a4)
    2b74:	0785                	addi	a5,a5,1
    2b76:	0685                	addi	a3,a3,1
    2b78:	0ff7f793          	andi	a5,a5,255
    2b7c:	20d705a3          	sb	a3,523(a4)
    2b80:	20f70523          	sb	a5,522(a4)
    2b84:	04f00693          	li	a3,79
    2b88:	c6f6f7e3          	bgeu	a3,a5,27f6 <finsh_thread_entry+0x4e>
    2b8c:	20071523          	sh	zero,522(a4)
    2b90:	b19d                	j	27f6 <finsh_thread_entry+0x4e>
    2b92:	bb498513          	addi	a0,s3,-1100
    2b96:	d38fe0ef          	jal	ra,10ce <rt_kprintf>
    2b9a:	0405                	addi	s0,s0,1
    2b9c:	b7d1                	j	2b60 <finsh_thread_entry+0x3b8>
    2b9e:	97a2                	add	a5,a5,s0
    2ba0:	1b278d23          	sb	s2,442(a5)
    2ba4:	02444783          	lbu	a5,36(s0)
    2ba8:	8b85                	andi	a5,a5,1
    2baa:	d3e1                	beqz	a5,2b6a <finsh_thread_entry+0x3c2>
    2bac:	85ca                	mv	a1,s2
    2bae:	bb8a8513          	addi	a0,s5,-1096
    2bb2:	d1cfe0ef          	jal	ra,10ce <rt_kprintf>
    2bb6:	bf55                	j	2b6a <finsh_thread_entry+0x3c2>

00002bb8 <rt_serial_init>:
    2bb8:	417c                	lw	a5,68(a0)
    2bba:	04052823          	sw	zero,80(a0)
    2bbe:	04052a23          	sw	zero,84(a0)
    2bc2:	439c                	lw	a5,0(a5)
    2bc4:	cb81                	beqz	a5,2bd4 <rt_serial_init+0x1c>
    2bc6:	925fd2ef          	jal	t0,4ea <__riscv_save_0>
    2bca:	04850593          	addi	a1,a0,72
    2bce:	9782                	jalr	a5
    2bd0:	93ffd06f          	j	50e <__riscv_restore_0>
    2bd4:	4501                	li	a0,0
    2bd6:	8082                	ret

00002bd8 <rt_serial_write>:
    2bd8:	8f9fd2ef          	jal	t0,4d0 <__riscv_save_4>
    2bdc:	8936                	mv	s2,a3
    2bde:	ca9d                	beqz	a3,2c14 <rt_serial_write+0x3c>
    2be0:	84aa                	mv	s1,a0
    2be2:	8432                	mv	s0,a2
    2be4:	00d609b3          	add	s3,a2,a3
    2be8:	4a29                	li	s4,10
    2bea:	201c                	lbu	a5,0(s0)
    2bec:	01479b63          	bne	a5,s4,2c02 <rt_serial_write+0x2a>
    2bf0:	2cbe                	lhu	a5,26(s1)
    2bf2:	0407f793          	andi	a5,a5,64
    2bf6:	c791                	beqz	a5,2c02 <rt_serial_write+0x2a>
    2bf8:	40fc                	lw	a5,68(s1)
    2bfa:	45b5                	li	a1,13
    2bfc:	8526                	mv	a0,s1
    2bfe:	479c                	lw	a5,8(a5)
    2c00:	9782                	jalr	a5
    2c02:	40fc                	lw	a5,68(s1)
    2c04:	00040583          	lb	a1,0(s0)
    2c08:	8526                	mv	a0,s1
    2c0a:	479c                	lw	a5,8(a5)
    2c0c:	0405                	addi	s0,s0,1
    2c0e:	9782                	jalr	a5
    2c10:	fd341de3          	bne	s0,s3,2bea <rt_serial_write+0x12>
    2c14:	854a                	mv	a0,s2
    2c16:	8effd06f          	j	504 <__riscv_restore_4>

00002c1a <rt_serial_open>:
    2c1a:	8d1fd2ef          	jal	t0,4ea <__riscv_save_0>
    2c1e:	1005f793          	andi	a5,a1,256
    2c22:	842a                	mv	s0,a0
    2c24:	c791                	beqz	a5,2c30 <rt_serial_open+0x16>
    2c26:	2d1a                	lhu	a4,24(a0)
    2c28:	5561                	li	a0,-8
    2c2a:	10077713          	andi	a4,a4,256
    2c2e:	cf35                	beqz	a4,2caa <rt_serial_open+0x90>
    2c30:	4005f713          	andi	a4,a1,1024
    2c34:	c711                	beqz	a4,2c40 <rt_serial_open+0x26>
    2c36:	2c1a                	lhu	a4,24(s0)
    2c38:	5561                	li	a0,-8
    2c3a:	40077713          	andi	a4,a4,1024
    2c3e:	c735                	beqz	a4,2caa <rt_serial_open+0x90>
    2c40:	0405f713          	andi	a4,a1,64
    2c44:	04000493          	li	s1,64
    2c48:	e701                	bnez	a4,2c50 <rt_serial_open+0x36>
    2c4a:	2c26                	lhu	s1,26(s0)
    2c4c:	0404f493          	andi	s1,s1,64
    2c50:	4838                	lw	a4,80(s0)
    2c52:	0ff5f593          	andi	a1,a1,255
    2c56:	ac2e                	sh	a1,26(s0)
    2c58:	eb39                	bnez	a4,2cae <rt_serial_open+0x94>
    2c5a:	c7a1                	beqz	a5,2ca2 <rt_serial_open+0x88>
    2c5c:	4468                	lw	a0,76(s0)
    2c5e:	8129                	srli	a0,a0,0xa
    2c60:	0542                	slli	a0,a0,0x10
    2c62:	8141                	srli	a0,a0,0x10
    2c64:	0531                	addi	a0,a0,12
    2c66:	e62fe0ef          	jal	ra,12c8 <rt_malloc>
    2c6a:	4470                	lw	a2,76(s0)
    2c6c:	892a                	mv	s2,a0
    2c6e:	0531                	addi	a0,a0,12
    2c70:	8229                	srli	a2,a2,0xa
    2c72:	0642                	slli	a2,a2,0x10
    2c74:	8241                	srli	a2,a2,0x10
    2c76:	4581                	li	a1,0
    2c78:	00a92023          	sw	a0,0(s2)
    2c7c:	f93fd0ef          	jal	ra,c0e <rt_memset>
    2c80:	00092223          	sw	zero,4(s2)
    2c84:	2c3e                	lhu	a5,26(s0)
    2c86:	00092423          	sw	zero,8(s2)
    2c8a:	05242823          	sw	s2,80(s0)
    2c8e:	1007e793          	ori	a5,a5,256
    2c92:	ac3e                	sh	a5,26(s0)
    2c94:	407c                	lw	a5,68(s0)
    2c96:	10000613          	li	a2,256
    2c9a:	45c1                	li	a1,16
    2c9c:	43dc                	lw	a5,4(a5)
    2c9e:	8522                	mv	a0,s0
    2ca0:	9782                	jalr	a5
    2ca2:	2c3e                	lhu	a5,26(s0)
    2ca4:	4501                	li	a0,0
    2ca6:	8cdd                	or	s1,s1,a5
    2ca8:	ac26                	sh	s1,26(s0)
    2caa:	865fd06f          	j	50e <__riscv_restore_0>
    2cae:	dbf5                	beqz	a5,2ca2 <rt_serial_open+0x88>
    2cb0:	1005e593          	ori	a1,a1,256
    2cb4:	ac2e                	sh	a1,26(s0)
    2cb6:	b7f5                	j	2ca2 <rt_serial_open+0x88>

00002cb8 <rt_serial_control>:
    2cb8:	4809                	li	a6,2
    2cba:	87aa                	mv	a5,a0
    2cbc:	03058163          	beq	a1,a6,2cde <rt_serial_control+0x26>
    2cc0:	82bfd2ef          	jal	t0,4ea <__riscv_save_0>
    2cc4:	480d                	li	a6,3
    2cc6:	03058263          	beq	a1,a6,2cea <rt_serial_control+0x32>
    2cca:	4705                	li	a4,1
    2ccc:	04e59963          	bne	a1,a4,2d1e <rt_serial_control+0x66>
    2cd0:	2d1a                	lhu	a4,24(a0)
    2cd2:	fdf77713          	andi	a4,a4,-33
    2cd6:	ad1a                	sh	a4,24(a0)
    2cd8:	4501                	li	a0,0
    2cda:	835fd06f          	j	50e <__riscv_restore_0>
    2cde:	2d1a                	lhu	a4,24(a0)
    2ce0:	02076713          	ori	a4,a4,32
    2ce4:	ad1a                	sh	a4,24(a0)
    2ce6:	4501                	li	a0,0
    2ce8:	8082                	ret
    2cea:	8732                	mv	a4,a2
    2cec:	d675                	beqz	a2,2cd8 <rt_serial_control+0x20>
    2cee:	4250                	lw	a2,4(a2)
    2cf0:	4574                	lw	a3,76(a0)
    2cf2:	2d4c                	lbu	a1,28(a0)
    2cf4:	8229                	srli	a2,a2,0xa
    2cf6:	82a9                	srli	a3,a3,0xa
    2cf8:	0642                	slli	a2,a2,0x10
    2cfa:	06c2                	slli	a3,a3,0x10
    2cfc:	8241                	srli	a2,a2,0x10
    2cfe:	82c1                	srli	a3,a3,0x10
    2d00:	00d60463          	beq	a2,a3,2d08 <rt_serial_control+0x50>
    2d04:	451d                	li	a0,7
    2d06:	f9f1                	bnez	a1,2cda <rt_serial_control+0x22>
    2d08:	4314                	lw	a3,0(a4)
    2d0a:	c7b4                	sw	a3,72(a5)
    2d0c:	4354                	lw	a3,4(a4)
    2d0e:	c7f4                	sw	a3,76(a5)
    2d10:	d5e1                	beqz	a1,2cd8 <rt_serial_control+0x20>
    2d12:	43f4                	lw	a3,68(a5)
    2d14:	85ba                	mv	a1,a4
    2d16:	853e                	mv	a0,a5
    2d18:	4294                	lw	a3,0(a3)
    2d1a:	9682                	jalr	a3
    2d1c:	bf75                	j	2cd8 <rt_serial_control+0x20>
    2d1e:	417c                	lw	a5,68(a0)
    2d20:	43dc                	lw	a5,4(a5)
    2d22:	9782                	jalr	a5
    2d24:	bf5d                	j	2cda <rt_serial_control+0x22>

00002d26 <rt_serial_read>:
    2d26:	faafd2ef          	jal	t0,4d0 <__riscv_save_4>
    2d2a:	8436                	mv	s0,a3
    2d2c:	cab1                	beqz	a3,2d80 <rt_serial_read+0x5a>
    2d2e:	2d3e                	lhu	a5,26(a0)
    2d30:	89aa                	mv	s3,a0
    2d32:	8932                	mv	s2,a2
    2d34:	1007f793          	andi	a5,a5,256
    2d38:	84b6                	mv	s1,a3
    2d3a:	e39d                	bnez	a5,2d60 <rt_serial_read+0x3a>
    2d3c:	5a7d                	li	s4,-1
    2d3e:	4aa9                	li	s5,10
    2d40:	0449a783          	lw	a5,68(s3)
    2d44:	854e                	mv	a0,s3
    2d46:	47dc                	lw	a5,12(a5)
    2d48:	9782                	jalr	a5
    2d4a:	01450963          	beq	a0,s4,2d5c <rt_serial_read+0x36>
    2d4e:	00a90023          	sb	a0,0(s2)
    2d52:	14fd                	addi	s1,s1,-1
    2d54:	0905                	addi	s2,s2,1
    2d56:	01550363          	beq	a0,s5,2d5c <rt_serial_read+0x36>
    2d5a:	f0fd                	bnez	s1,2d40 <rt_serial_read+0x1a>
    2d5c:	8c05                	sub	s0,s0,s1
    2d5e:	a00d                	j	2d80 <rt_serial_read+0x5a>
    2d60:	4924                	lw	s1,80(a0)
    2d62:	8a36                	mv	s4,a3
    2d64:	4a85                	li	s5,1
    2d66:	f39fe0ef          	jal	ra,1c9e <rt_hw_interrupt_disable>
    2d6a:	20fe                	lhu	a5,6(s1)
    2d6c:	20da                	lhu	a4,4(s1)
    2d6e:	862a                	mv	a2,a0
    2d70:	4494                	lw	a3,8(s1)
    2d72:	00f71a63          	bne	a4,a5,2d86 <rt_serial_read+0x60>
    2d76:	ea81                	bnez	a3,2d86 <rt_serial_read+0x60>
    2d78:	f33fe0ef          	jal	ra,1caa <rt_hw_interrupt_enable>
    2d7c:	41440433          	sub	s0,s0,s4
    2d80:	8522                	mv	a0,s0
    2d82:	f82fd06f          	j	504 <__riscv_restore_4>
    2d86:	4098                	lw	a4,0(s1)
    2d88:	973e                	add	a4,a4,a5
    2d8a:	00074b03          	lbu	s6,0(a4)
    2d8e:	04c9a703          	lw	a4,76(s3)
    2d92:	0785                	addi	a5,a5,1
    2d94:	07c2                	slli	a5,a5,0x10
    2d96:	8329                	srli	a4,a4,0xa
    2d98:	83c1                	srli	a5,a5,0x10
    2d9a:	0742                	slli	a4,a4,0x10
    2d9c:	a0fe                	sh	a5,6(s1)
    2d9e:	8341                	srli	a4,a4,0x10
    2da0:	00e7e463          	bltu	a5,a4,2da8 <rt_serial_read+0x82>
    2da4:	00049323          	sh	zero,6(s1)
    2da8:	01569463          	bne	a3,s5,2db0 <rt_serial_read+0x8a>
    2dac:	0004a423          	sw	zero,8(s1)
    2db0:	8532                	mv	a0,a2
    2db2:	ef9fe0ef          	jal	ra,1caa <rt_hw_interrupt_enable>
    2db6:	1a7d                	addi	s4,s4,-1
    2db8:	01690023          	sb	s6,0(s2)
    2dbc:	0905                	addi	s2,s2,1
    2dbe:	fa0a14e3          	bnez	s4,2d66 <rt_serial_read+0x40>
    2dc2:	bf6d                	j	2d7c <rt_serial_read+0x56>

00002dc4 <rt_serial_close>:
    2dc4:	2d58                	lbu	a4,28(a0)
    2dc6:	4785                	li	a5,1
    2dc8:	02e7ec63          	bltu	a5,a4,2e00 <rt_serial_close+0x3c>
    2dcc:	2d3e                	lhu	a5,26(a0)
    2dce:	1007f793          	andi	a5,a5,256
    2dd2:	c79d                	beqz	a5,2e00 <rt_serial_close+0x3c>
    2dd4:	f16fd2ef          	jal	t0,4ea <__riscv_save_0>
    2dd8:	842a                	mv	s0,a0
    2dda:	4928                	lw	a0,80(a0)
    2ddc:	e3cfe0ef          	jal	ra,1418 <rt_free>
    2de0:	2c3e                	lhu	a5,26(s0)
    2de2:	04042823          	sw	zero,80(s0)
    2de6:	10000613          	li	a2,256
    2dea:	eff7f793          	andi	a5,a5,-257
    2dee:	ac3e                	sh	a5,26(s0)
    2df0:	407c                	lw	a5,68(s0)
    2df2:	45c5                	li	a1,17
    2df4:	8522                	mv	a0,s0
    2df6:	43dc                	lw	a5,4(a5)
    2df8:	9782                	jalr	a5
    2dfa:	4501                	li	a0,0
    2dfc:	f12fd06f          	j	50e <__riscv_restore_0>
    2e00:	4501                	li	a0,0
    2e02:	8082                	ret

00002e04 <rt_hw_serial_register>:
    2e04:	ee6fd2ef          	jal	t0,4ea <__riscv_save_0>
    2e08:	00003737          	lui	a4,0x3
    2e0c:	bb870713          	addi	a4,a4,-1096 # 2bb8 <rt_serial_init>
    2e10:	d518                	sw	a4,40(a0)
    2e12:	00003737          	lui	a4,0x3
    2e16:	c1a70713          	addi	a4,a4,-998 # 2c1a <rt_serial_open>
    2e1a:	d558                	sw	a4,44(a0)
    2e1c:	00003737          	lui	a4,0x3
    2e20:	dc470713          	addi	a4,a4,-572 # 2dc4 <rt_serial_close>
    2e24:	d918                	sw	a4,48(a0)
    2e26:	00003737          	lui	a4,0x3
    2e2a:	d2670713          	addi	a4,a4,-730 # 2d26 <rt_serial_read>
    2e2e:	d958                	sw	a4,52(a0)
    2e30:	00003737          	lui	a4,0x3
    2e34:	bd870713          	addi	a4,a4,-1064 # 2bd8 <rt_serial_write>
    2e38:	dd18                	sw	a4,56(a0)
    2e3a:	00003737          	lui	a4,0x3
    2e3e:	cb870713          	addi	a4,a4,-840 # 2cb8 <rt_serial_control>
    2e42:	0642                	slli	a2,a2,0x10
    2e44:	dd58                	sw	a4,60(a0)
    2e46:	c134                	sw	a3,64(a0)
    2e48:	8241                	srli	a2,a2,0x10
    2e4a:	00052a23          	sw	zero,20(a0)
    2e4e:	02052023          	sw	zero,32(a0)
    2e52:	02052223          	sw	zero,36(a0)
    2e56:	895fd0ef          	jal	ra,6ea <rt_device_register>
    2e5a:	eb4fd06f          	j	50e <__riscv_restore_0>

00002e5e <rt_hw_serial_isr>:
    2e5e:	0ff5f593          	andi	a1,a1,255
    2e62:	4785                	li	a5,1
    2e64:	0af59163          	bne	a1,a5,2f06 <rt_hw_serial_isr+0xa8>
    2e68:	e68fd2ef          	jal	t0,4d0 <__riscv_save_4>
    2e6c:	4920                	lw	s0,80(a0)
    2e6e:	1141                	addi	sp,sp,-16
    2e70:	84aa                	mv	s1,a0
    2e72:	597d                	li	s2,-1
    2e74:	4985                	li	s3,1
    2e76:	40fc                	lw	a5,68(s1)
    2e78:	8526                	mv	a0,s1
    2e7a:	47dc                	lw	a5,12(a5)
    2e7c:	9782                	jalr	a5
    2e7e:	8a2a                	mv	s4,a0
    2e80:	05250763          	beq	a0,s2,2ece <rt_hw_serial_isr+0x70>
    2e84:	e1bfe0ef          	jal	ra,1c9e <rt_hw_interrupt_disable>
    2e88:	205a                	lhu	a4,4(s0)
    2e8a:	401c                	lw	a5,0(s0)
    2e8c:	97ba                	add	a5,a5,a4
    2e8e:	01478023          	sb	s4,0(a5)
    2e92:	205e                	lhu	a5,4(s0)
    2e94:	44f8                	lw	a4,76(s1)
    2e96:	0785                	addi	a5,a5,1
    2e98:	07c2                	slli	a5,a5,0x10
    2e9a:	8329                	srli	a4,a4,0xa
    2e9c:	83c1                	srli	a5,a5,0x10
    2e9e:	0742                	slli	a4,a4,0x10
    2ea0:	a05e                	sh	a5,4(s0)
    2ea2:	8341                	srli	a4,a4,0x10
    2ea4:	00e7e463          	bltu	a5,a4,2eac <rt_hw_serial_isr+0x4e>
    2ea8:	00041223          	sh	zero,4(s0)
    2eac:	2076                	lhu	a3,6(s0)
    2eae:	205e                	lhu	a5,4(s0)
    2eb0:	00d79c63          	bne	a5,a3,2ec8 <rt_hw_serial_isr+0x6a>
    2eb4:	0785                	addi	a5,a5,1
    2eb6:	07c2                	slli	a5,a5,0x10
    2eb8:	83c1                	srli	a5,a5,0x10
    2eba:	a07e                	sh	a5,6(s0)
    2ebc:	01342423          	sw	s3,8(s0)
    2ec0:	00e7e463          	bltu	a5,a4,2ec8 <rt_hw_serial_isr+0x6a>
    2ec4:	00041323          	sh	zero,6(s0)
    2ec8:	de3fe0ef          	jal	ra,1caa <rt_hw_interrupt_enable>
    2ecc:	b76d                	j	2e76 <rt_hw_serial_isr+0x18>
    2ece:	509c                	lw	a5,32(s1)
    2ed0:	c385                	beqz	a5,2ef0 <rt_hw_serial_isr+0x92>
    2ed2:	dcdfe0ef          	jal	ra,1c9e <rt_hw_interrupt_disable>
    2ed6:	205a                	lhu	a4,4(s0)
    2ed8:	206e                	lhu	a1,6(s0)
    2eda:	00b76e63          	bltu	a4,a1,2ef6 <rt_hw_serial_isr+0x98>
    2ede:	40b705b3          	sub	a1,a4,a1
    2ee2:	c62e                	sw	a1,12(sp)
    2ee4:	dc7fe0ef          	jal	ra,1caa <rt_hw_interrupt_enable>
    2ee8:	509c                	lw	a5,32(s1)
    2eea:	45b2                	lw	a1,12(sp)
    2eec:	8526                	mv	a0,s1
    2eee:	9782                	jalr	a5
    2ef0:	0141                	addi	sp,sp,16
    2ef2:	e12fd06f          	j	504 <__riscv_restore_4>
    2ef6:	44fc                	lw	a5,76(s1)
    2ef8:	8d99                	sub	a1,a1,a4
    2efa:	83a9                	srli	a5,a5,0xa
    2efc:	07c2                	slli	a5,a5,0x10
    2efe:	83c1                	srli	a5,a5,0x10
    2f00:	40b785b3          	sub	a1,a5,a1
    2f04:	bff9                	j	2ee2 <rt_hw_serial_isr+0x84>
    2f06:	8082                	ret

00002f08 <_pin_control>:
    2f08:	ce01                	beqz	a2,2f20 <_pin_control+0x18>
    2f0a:	de0fd2ef          	jal	t0,4ea <__riscv_save_0>
    2f0e:	4178                	lw	a4,68(a0)
    2f10:	87b2                	mv	a5,a2
    2f12:	238e                	lhu	a1,0(a5)
    2f14:	4318                	lw	a4,0(a4)
    2f16:	2232                	lhu	a2,2(a2)
    2f18:	9702                	jalr	a4
    2f1a:	4501                	li	a0,0
    2f1c:	df2fd06f          	j	50e <__riscv_restore_0>
    2f20:	557d                	li	a0,-1
    2f22:	8082                	ret

00002f24 <rt_pin_mode>:
    2f24:	dc6fd2ef          	jal	t0,4ea <__riscv_save_0>
    2f28:	cf418713          	addi	a4,gp,-780 # 20000644 <_hw_pin>
    2f2c:	4378                	lw	a4,68(a4)
    2f2e:	862e                	mv	a2,a1
    2f30:	85aa                	mv	a1,a0
    2f32:	4318                	lw	a4,0(a4)
    2f34:	cf418513          	addi	a0,gp,-780 # 20000644 <_hw_pin>
    2f38:	9702                	jalr	a4
    2f3a:	dd4fd06f          	j	50e <__riscv_restore_0>

00002f3e <rt_pin_write>:
    2f3e:	dacfd2ef          	jal	t0,4ea <__riscv_save_0>
    2f42:	cf418713          	addi	a4,gp,-780 # 20000644 <_hw_pin>
    2f46:	4378                	lw	a4,68(a4)
    2f48:	862e                	mv	a2,a1
    2f4a:	85aa                	mv	a1,a0
    2f4c:	4358                	lw	a4,4(a4)
    2f4e:	cf418513          	addi	a0,gp,-780 # 20000644 <_hw_pin>
    2f52:	9702                	jalr	a4
    2f54:	dbafd06f          	j	50e <__riscv_restore_0>

00002f58 <rt_pin_read>:
    2f58:	d92fd2ef          	jal	t0,4ea <__riscv_save_0>
    2f5c:	cf418713          	addi	a4,gp,-780 # 20000644 <_hw_pin>
    2f60:	4378                	lw	a4,68(a4)
    2f62:	85aa                	mv	a1,a0
    2f64:	cf418513          	addi	a0,gp,-780 # 20000644 <_hw_pin>
    2f68:	4718                	lw	a4,8(a4)
    2f6a:	9702                	jalr	a4
    2f6c:	da2fd06f          	j	50e <__riscv_restore_0>

00002f70 <_pin_read>:
    2f70:	c605                	beqz	a2,2f98 <_pin_read+0x28>
    2f72:	4711                	li	a4,4
    2f74:	02e69263          	bne	a3,a4,2f98 <_pin_read+0x28>
    2f78:	d72fd2ef          	jal	t0,4ea <__riscv_save_0>
    2f7c:	417c                	lw	a5,68(a0)
    2f7e:	220e                	lhu	a1,0(a2)
    2f80:	1141                	addi	sp,sp,-16
    2f82:	479c                	lw	a5,8(a5)
    2f84:	c636                	sw	a3,12(sp)
    2f86:	c432                	sw	a2,8(sp)
    2f88:	9782                	jalr	a5
    2f8a:	4622                	lw	a2,8(sp)
    2f8c:	46b2                	lw	a3,12(sp)
    2f8e:	a22a                	sh	a0,2(a2)
    2f90:	8536                	mv	a0,a3
    2f92:	0141                	addi	sp,sp,16
    2f94:	d7afd06f          	j	50e <__riscv_restore_0>
    2f98:	4681                	li	a3,0
    2f9a:	8536                	mv	a0,a3
    2f9c:	8082                	ret

00002f9e <_pin_write>:
    2f9e:	c21d                	beqz	a2,2fc4 <_pin_write+0x26>
    2fa0:	87b2                	mv	a5,a2
    2fa2:	4611                	li	a2,4
    2fa4:	02c69063          	bne	a3,a2,2fc4 <_pin_write+0x26>
    2fa8:	d42fd2ef          	jal	t0,4ea <__riscv_save_0>
    2fac:	4178                	lw	a4,68(a0)
    2fae:	23b2                	lhu	a2,2(a5)
    2fb0:	238e                	lhu	a1,0(a5)
    2fb2:	4358                	lw	a4,4(a4)
    2fb4:	1141                	addi	sp,sp,-16
    2fb6:	c636                	sw	a3,12(sp)
    2fb8:	9702                	jalr	a4
    2fba:	46b2                	lw	a3,12(sp)
    2fbc:	0141                	addi	sp,sp,16
    2fbe:	8536                	mv	a0,a3
    2fc0:	d4efd06f          	j	50e <__riscv_restore_0>
    2fc4:	4681                	li	a3,0
    2fc6:	8536                	mv	a0,a3
    2fc8:	8082                	ret

00002fca <rt_device_pin_register>:
    2fca:	d20fd2ef          	jal	t0,4ea <__riscv_save_0>
    2fce:	cf418793          	addi	a5,gp,-780 # 20000644 <_hw_pin>
    2fd2:	4749                	li	a4,18
    2fd4:	cbd8                	sw	a4,20(a5)
    2fd6:	00003737          	lui	a4,0x3
    2fda:	f7070713          	addi	a4,a4,-144 # 2f70 <_pin_read>
    2fde:	dbd8                	sw	a4,52(a5)
    2fe0:	00003737          	lui	a4,0x3
    2fe4:	f9e70713          	addi	a4,a4,-98 # 2f9e <_pin_write>
    2fe8:	df98                	sw	a4,56(a5)
    2fea:	00003737          	lui	a4,0x3
    2fee:	f0870713          	addi	a4,a4,-248 # 2f08 <_pin_control>
    2ff2:	c3ec                	sw	a1,68(a5)
    2ff4:	c3b0                	sw	a2,64(a5)
    2ff6:	85aa                	mv	a1,a0
    2ff8:	460d                	li	a2,3
    2ffa:	cf418513          	addi	a0,gp,-780 # 20000644 <_hw_pin>
    2ffe:	0207a023          	sw	zero,32(a5)
    3002:	0207a223          	sw	zero,36(a5)
    3006:	0207a423          	sw	zero,40(a5)
    300a:	0207a623          	sw	zero,44(a5)
    300e:	0207a823          	sw	zero,48(a5)
    3012:	dfd8                	sw	a4,60(a5)
    3014:	ed6fd0ef          	jal	ra,6ea <rt_device_register>
    3018:	4501                	li	a0,0
    301a:	cf4fd06f          	j	50e <__riscv_restore_0>

0000301e <rt_heap_begin_get>:
    301e:	20000537          	lui	a0,0x20000
    3022:	68c50513          	addi	a0,a0,1676 # 2000068c <rt_heap>
    3026:	8082                	ret

00003028 <rt_heap_end_get>:
    3028:	20001537          	lui	a0,0x20001
    302c:	68c50513          	addi	a0,a0,1676 # 2000168c <serial1>
    3030:	8082                	ret

00003032 <rt_hw_board_init>:
    3032:	cb8fd2ef          	jal	t0,4ea <__riscv_save_0>
    3036:	200007b7          	lui	a5,0x20000
    303a:	1507a703          	lw	a4,336(a5) # 20000150 <SystemCoreClock>
    303e:	3e800793          	li	a5,1000
    3042:	56c1                	li	a3,-16
    3044:	02f75733          	divu	a4,a4,a5
    3048:	e000e7b7          	lui	a5,0xe000e
    304c:	40d78623          	sb	a3,1036(a5) # e000e40c <_eusrstack+0xbfffe40c>
    3050:	40d78723          	sb	a3,1038(a5)
    3054:	6685                	lui	a3,0x1
    3056:	10d7a023          	sw	a3,256(a5)
    305a:	6691                	lui	a3,0x4
    305c:	10d7a023          	sw	a3,256(a5)
    3060:	e000f7b7          	lui	a5,0xe000f
    3064:	0007a023          	sw	zero,0(a5) # e000f000 <_eusrstack+0xbffff000>
    3068:	0007a223          	sw	zero,4(a5)
    306c:	4601                	li	a2,0
    306e:	c790                	sw	a2,8(a5)
    3070:	4681                	li	a3,0
    3072:	c7d4                	sw	a3,12(a5)
    3074:	4681                	li	a3,0
    3076:	fff70613          	addi	a2,a4,-1
    307a:	cb90                	sw	a2,16(a5)
    307c:	cbd4                	sw	a3,20(a5)
    307e:	473d                	li	a4,15
    3080:	c398                	sw	a4,0(a5)
    3082:	d7efd0ef          	jal	ra,600 <rt_components_board_init>
    3086:	f99ff0ef          	jal	ra,301e <rt_heap_begin_get>
    308a:	842a                	mv	s0,a0
    308c:	f9dff0ef          	jal	ra,3028 <rt_heap_end_get>
    3090:	85aa                	mv	a1,a0
    3092:	8522                	mv	a0,s0
    3094:	9b8fe0ef          	jal	ra,124c <rt_system_heap_init>
    3098:	00009537          	lui	a0,0x9
    309c:	c4850513          	addi	a0,a0,-952 # 8c48 <__fsym_pinMode_name+0x8>
    30a0:	ffffd0ef          	jal	ra,109e <rt_console_set_device>
    30a4:	c6afd06f          	j	50e <__riscv_restore_0>

000030a8 <bit2bitno>:
    30a8:	4781                	li	a5,0
    30aa:	4685                	li	a3,1
    30ac:	02000713          	li	a4,32
    30b0:	00f69633          	sll	a2,a3,a5
    30b4:	00a60663          	beq	a2,a0,30c0 <bit2bitno+0x18>
    30b8:	0785                	addi	a5,a5,1
    30ba:	fee79be3          	bne	a5,a4,30b0 <bit2bitno+0x8>
    30be:	57fd                	li	a5,-1
    30c0:	853e                	mv	a0,a5
    30c2:	8082                	ret

000030c4 <GPIOD_CLK_ENABLE>:
    30c4:	c26fd2ef          	jal	t0,4ea <__riscv_save_0>
    30c8:	4585                	li	a1,1
    30ca:	02000513          	li	a0,32
    30ce:	4f5010ef          	jal	ra,4dc2 <RCC_APB2PeriphClockCmd>
    30d2:	c3cfd06f          	j	50e <__riscv_restore_0>

000030d6 <GPIOB_CLK_ENABLE>:
    30d6:	c14fd2ef          	jal	t0,4ea <__riscv_save_0>
    30da:	4585                	li	a1,1
    30dc:	4521                	li	a0,8
    30de:	4e5010ef          	jal	ra,4dc2 <RCC_APB2PeriphClockCmd>
    30e2:	c2cfd06f          	j	50e <__riscv_restore_0>

000030e6 <GPIOA_CLK_ENABLE>:
    30e6:	c04fd2ef          	jal	t0,4ea <__riscv_save_0>
    30ea:	4585                	li	a1,1
    30ec:	4511                	li	a0,4
    30ee:	4d5010ef          	jal	ra,4dc2 <RCC_APB2PeriphClockCmd>
    30f2:	c1cfd06f          	j	50e <__riscv_restore_0>

000030f6 <GPIOC_CLK_ENABLE>:
    30f6:	bf4fd2ef          	jal	t0,4ea <__riscv_save_0>
    30fa:	4585                	li	a1,1
    30fc:	4541                	li	a0,16
    30fe:	4c5010ef          	jal	ra,4dc2 <RCC_APB2PeriphClockCmd>
    3102:	c0cfd06f          	j	50e <__riscv_restore_0>

00003106 <GPIOE_CLK_ENABLE>:
    3106:	be4fd2ef          	jal	t0,4ea <__riscv_save_0>
    310a:	4585                	li	a1,1
    310c:	04000513          	li	a0,64
    3110:	4b3010ef          	jal	ra,4dc2 <RCC_APB2PeriphClockCmd>
    3114:	bfafd06f          	j	50e <__riscv_restore_0>

00003118 <rt_hw_pin_init>:
    3118:	bd2fd2ef          	jal	t0,4ea <__riscv_save_0>
    311c:	65a5                	lui	a1,0x9
    311e:	00009537          	lui	a0,0x9
    3122:	4601                	li	a2,0
    3124:	c5058593          	addi	a1,a1,-944 # 8c50 <_ch32_pin_ops>
    3128:	33850513          	addi	a0,a0,824 # 9338 <pins+0x650>
    312c:	e9fff0ef          	jal	ra,2fca <rt_device_pin_register>
    3130:	bdefd06f          	j	50e <__riscv_restore_0>

00003134 <get_pin>:
    3134:	06400793          	li	a5,100
    3138:	00a7ec63          	bltu	a5,a0,3150 <get_pin+0x1c>
    313c:	00451793          	slli	a5,a0,0x4
    3140:	6525                	lui	a0,0x9
    3142:	ce850513          	addi	a0,a0,-792 # 8ce8 <pins>
    3146:	953e                	add	a0,a0,a5
    3148:	4118                	lw	a4,0(a0)
    314a:	57fd                	li	a5,-1
    314c:	00f71363          	bne	a4,a5,3152 <get_pin+0x1e>
    3150:	4501                	li	a0,0
    3152:	8082                	ret

00003154 <ch32_pin_write>:
    3154:	b96fd2ef          	jal	t0,4ea <__riscv_save_0>
    3158:	1141                	addi	sp,sp,-16
    315a:	0ff5f513          	andi	a0,a1,255
    315e:	c632                	sw	a2,12(sp)
    3160:	fd5ff0ef          	jal	ra,3134 <get_pin>
    3164:	c511                	beqz	a0,3170 <ch32_pin_write+0x1c>
    3166:	254e                	lhu	a1,12(a0)
    3168:	4632                	lw	a2,12(sp)
    316a:	4508                	lw	a0,8(a0)
    316c:	257010ef          	jal	ra,4bc2 <GPIO_WriteBit>
    3170:	0141                	addi	sp,sp,16
    3172:	b9cfd06f          	j	50e <__riscv_restore_0>

00003176 <ch32_pin_read>:
    3176:	b74fd2ef          	jal	t0,4ea <__riscv_save_0>
    317a:	0ff5f513          	andi	a0,a1,255
    317e:	fb7ff0ef          	jal	ra,3134 <get_pin>
    3182:	87aa                	mv	a5,a0
    3184:	4501                	li	a0,0
    3186:	c789                	beqz	a5,3190 <ch32_pin_read+0x1a>
    3188:	27ce                	lhu	a1,12(a5)
    318a:	4788                	lw	a0,8(a5)
    318c:	22d010ef          	jal	ra,4bb8 <GPIO_ReadInputDataBit>
    3190:	b7efd06f          	j	50e <__riscv_restore_0>

00003194 <ch32_pin_mode>:
    3194:	b56fd2ef          	jal	t0,4ea <__riscv_save_0>
    3198:	1101                	addi	sp,sp,-32
    319a:	0ff5f513          	andi	a0,a1,255
    319e:	8432                	mv	s0,a2
    31a0:	f95ff0ef          	jal	ra,3134 <get_pin>
    31a4:	c505                	beqz	a0,31cc <ch32_pin_mode+0x38>
    31a6:	415c                	lw	a5,4(a0)
    31a8:	c62a                	sw	a0,12(sp)
    31aa:	9782                	jalr	a5
    31ac:	4532                	lw	a0,12(sp)
    31ae:	455c                	lw	a5,12(a0)
    31b0:	82fc                	sh	a5,20(sp)
    31b2:	47c1                	li	a5,16
    31b4:	ce3e                	sw	a5,28(sp)
    31b6:	478d                	li	a5,3
    31b8:	cc3e                	sw	a5,24(sp)
    31ba:	c409                	beqz	s0,31c4 <ch32_pin_mode+0x30>
    31bc:	4715                	li	a4,5
    31be:	00e41a63          	bne	s0,a4,31d2 <ch32_pin_mode+0x3e>
    31c2:	ce02                	sw	zero,28(sp)
    31c4:	4508                	lw	a0,8(a0)
    31c6:	084c                	addi	a1,sp,20
    31c8:	131010ef          	jal	ra,4af8 <GPIO_Init>
    31cc:	6105                	addi	sp,sp,32
    31ce:	b40fd06f          	j	50e <__riscv_restore_0>
    31d2:	4705                	li	a4,1
    31d4:	00e41563          	bne	s0,a4,31de <ch32_pin_mode+0x4a>
    31d8:	4791                	li	a5,4
    31da:	ce3e                	sw	a5,28(sp)
    31dc:	b7e5                	j	31c4 <ch32_pin_mode+0x30>
    31de:	00f41563          	bne	s0,a5,31e8 <ch32_pin_mode+0x54>
    31e2:	02800793          	li	a5,40
    31e6:	bfd5                	j	31da <ch32_pin_mode+0x46>
    31e8:	4789                	li	a5,2
    31ea:	00f41563          	bne	s0,a5,31f4 <ch32_pin_mode+0x60>
    31ee:	04800793          	li	a5,72
    31f2:	b7e5                	j	31da <ch32_pin_mode+0x46>
    31f4:	4791                	li	a5,4
    31f6:	00f41463          	bne	s0,a5,31fe <ch32_pin_mode+0x6a>
    31fa:	47d1                	li	a5,20
    31fc:	bff9                	j	31da <ch32_pin_mode+0x46>
    31fe:	4799                	li	a5,6
    3200:	00f41463          	bne	s0,a5,3208 <ch32_pin_mode+0x74>
    3204:	47f1                	li	a5,28
    3206:	bfd1                	j	31da <ch32_pin_mode+0x46>
    3208:	479d                	li	a5,7
    320a:	faf41de3          	bne	s0,a5,31c4 <ch32_pin_mode+0x30>
    320e:	47e1                	li	a5,24
    3210:	b7e9                	j	31da <ch32_pin_mode+0x46>

00003212 <ch32_pin_attach_irq>:
    3212:	abefd2ef          	jal	t0,4d0 <__riscv_save_4>
    3216:	0ff5f513          	andi	a0,a1,255
    321a:	84ae                	mv	s1,a1
    321c:	89b2                	mv	s3,a2
    321e:	8a36                	mv	s4,a3
    3220:	893a                	mv	s2,a4
    3222:	f13ff0ef          	jal	ra,3134 <get_pin>
    3226:	4799                	li	a5,6
    3228:	cd31                	beqz	a0,3284 <ch32_pin_attach_irq+0x72>
    322a:	4548                	lw	a0,12(a0)
    322c:	e7dff0ef          	jal	ra,30a8 <bit2bitno>
    3230:	473d                	li	a4,15
    3232:	842a                	mv	s0,a0
    3234:	4799                	li	a5,6
    3236:	04a76763          	bltu	a4,a0,3284 <ch32_pin_attach_irq+0x72>
    323a:	a65fe0ef          	jal	ra,1c9e <rt_hw_interrupt_disable>
    323e:	46b1                	li	a3,12
    3240:	02d406b3          	mul	a3,s0,a3
    3244:	200007b7          	lui	a5,0x20000
    3248:	08078713          	addi	a4,a5,128 # 20000080 <pin_irq_hdr_tab>
    324c:	862a                	mv	a2,a0
    324e:	08078793          	addi	a5,a5,128
    3252:	9736                	add	a4,a4,a3
    3254:	00071683          	lh	a3,0(a4)
    3258:	00969f63          	bne	a3,s1,3276 <ch32_pin_attach_irq+0x64>
    325c:	434c                	lw	a1,4(a4)
    325e:	01459c63          	bne	a1,s4,3276 <ch32_pin_attach_irq+0x64>
    3262:	232e                	lhu	a1,2(a4)
    3264:	01359963          	bne	a1,s3,3276 <ch32_pin_attach_irq+0x64>
    3268:	4718                	lw	a4,8(a4)
    326a:	01271663          	bne	a4,s2,3276 <ch32_pin_attach_irq+0x64>
    326e:	a3dfe0ef          	jal	ra,1caa <rt_hw_interrupt_enable>
    3272:	4781                	li	a5,0
    3274:	a801                	j	3284 <ch32_pin_attach_irq+0x72>
    3276:	577d                	li	a4,-1
    3278:	00e68963          	beq	a3,a4,328a <ch32_pin_attach_irq+0x78>
    327c:	8532                	mv	a0,a2
    327e:	a2dfe0ef          	jal	ra,1caa <rt_hw_interrupt_enable>
    3282:	479d                	li	a5,7
    3284:	853e                	mv	a0,a5
    3286:	a7efd06f          	j	504 <__riscv_restore_4>
    328a:	4531                	li	a0,12
    328c:	02a40533          	mul	a0,s0,a0
    3290:	953e                	add	a0,a0,a5
    3292:	a106                	sh	s1,0(a0)
    3294:	01452223          	sw	s4,4(a0)
    3298:	01351123          	sh	s3,2(a0)
    329c:	01252423          	sw	s2,8(a0)
    32a0:	8532                	mv	a0,a2
    32a2:	b7f1                	j	326e <ch32_pin_attach_irq+0x5c>

000032a4 <ch32_pin_dettach_irq>:
    32a4:	a46fd2ef          	jal	t0,4ea <__riscv_save_0>
    32a8:	0ff5f513          	andi	a0,a1,255
    32ac:	e89ff0ef          	jal	ra,3134 <get_pin>
    32b0:	4719                	li	a4,6
    32b2:	c91d                	beqz	a0,32e8 <ch32_pin_dettach_irq+0x44>
    32b4:	4548                	lw	a0,12(a0)
    32b6:	df3ff0ef          	jal	ra,30a8 <bit2bitno>
    32ba:	47bd                	li	a5,15
    32bc:	842a                	mv	s0,a0
    32be:	4719                	li	a4,6
    32c0:	02a7e463          	bltu	a5,a0,32e8 <ch32_pin_dettach_irq+0x44>
    32c4:	9dbfe0ef          	jal	ra,1c9e <rt_hw_interrupt_disable>
    32c8:	47b1                	li	a5,12
    32ca:	02f40433          	mul	s0,s0,a5
    32ce:	200007b7          	lui	a5,0x20000
    32d2:	08078793          	addi	a5,a5,128 # 20000080 <pin_irq_hdr_tab>
    32d6:	577d                	li	a4,-1
    32d8:	97a2                	add	a5,a5,s0
    32da:	00079683          	lh	a3,0(a5)
    32de:	00e69863          	bne	a3,a4,32ee <ch32_pin_dettach_irq+0x4a>
    32e2:	9c9fe0ef          	jal	ra,1caa <rt_hw_interrupt_enable>
    32e6:	4701                	li	a4,0
    32e8:	853a                	mv	a0,a4
    32ea:	a24fd06f          	j	50e <__riscv_restore_0>
    32ee:	6741                	lui	a4,0x10
    32f0:	177d                	addi	a4,a4,-1
    32f2:	c398                	sw	a4,0(a5)
    32f4:	0007a223          	sw	zero,4(a5)
    32f8:	0007a423          	sw	zero,8(a5)
    32fc:	b7dd                	j	32e2 <ch32_pin_dettach_irq+0x3e>

000032fe <ch32_pin_irq_enable>:
    32fe:	9d2fd2ef          	jal	t0,4d0 <__riscv_save_4>
    3302:	1101                	addi	sp,sp,-32
    3304:	0ff5f513          	andi	a0,a1,255
    3308:	8a32                	mv	s4,a2
    330a:	e2bff0ef          	jal	ra,3134 <get_pin>
    330e:	4799                	li	a5,6
    3310:	c121                	beqz	a0,3350 <ch32_pin_irq_enable+0x52>
    3312:	4485                	li	s1,1
    3314:	842a                	mv	s0,a0
    3316:	109a1563          	bne	s4,s1,3420 <ch32_pin_irq_enable+0x122>
    331a:	4548                	lw	a0,12(a0)
    331c:	d8dff0ef          	jal	ra,30a8 <bit2bitno>
    3320:	473d                	li	a4,15
    3322:	84aa                	mv	s1,a0
    3324:	4799                	li	a5,6
    3326:	02a76563          	bltu	a4,a0,3350 <ch32_pin_irq_enable+0x52>
    332a:	975fe0ef          	jal	ra,1c9e <rt_hw_interrupt_disable>
    332e:	4ab1                	li	s5,12
    3330:	035487b3          	mul	a5,s1,s5
    3334:	20000937          	lui	s2,0x20000
    3338:	08090913          	addi	s2,s2,128 # 20000080 <pin_irq_hdr_tab>
    333c:	89aa                	mv	s3,a0
    333e:	993e                	add	s2,s2,a5
    3340:	00091703          	lh	a4,0(s2)
    3344:	57fd                	li	a5,-1
    3346:	00f71963          	bne	a4,a5,3358 <ch32_pin_irq_enable+0x5a>
    334a:	961fe0ef          	jal	ra,1caa <rt_hw_interrupt_enable>
    334e:	4799                	li	a5,6
    3350:	853e                	mv	a0,a5
    3352:	6105                	addi	sp,sp,32
    3354:	9b0fd06f          	j	504 <__riscv_restore_4>
    3358:	405c                	lw	a5,4(s0)
    335a:	9782                	jalr	a5
    335c:	4585                	li	a1,1
    335e:	4505                	li	a0,1
    3360:	263010ef          	jal	ra,4dc2 <RCC_APB2PeriphClockCmd>
    3364:	445c                	lw	a5,12(s0)
    3366:	470d                	li	a4,3
    3368:	c43a                	sw	a4,8(sp)
    336a:	827c                	sh	a5,4(sp)
    336c:	c83e                	sw	a5,16(sp)
    336e:	00295783          	lhu	a5,2(s2)
    3372:	ca02                	sw	zero,20(sp)
    3374:	ce52                	sw	s4,28(sp)
    3376:	09478c63          	beq	a5,s4,340e <ch32_pin_irq_enable+0x110>
    337a:	c7c1                	beqz	a5,3402 <ch32_pin_irq_enable+0x104>
    337c:	4709                	li	a4,2
    337e:	08e78d63          	beq	a5,a4,3418 <ch32_pin_irq_enable+0x11a>
    3382:	4408                	lw	a0,8(s0)
    3384:	004c                	addi	a1,sp,4
    3386:	772010ef          	jal	ra,4af8 <GPIO_Init>
    338a:	4418                	lw	a4,8(s0)
    338c:	400117b7          	lui	a5,0x40011
    3390:	c0078693          	addi	a3,a5,-1024 # 40010c00 <_eusrstack+0x20000c00>
    3394:	4505                	li	a0,1
    3396:	02d70263          	beq	a4,a3,33ba <ch32_pin_irq_enable+0xbc>
    339a:	4509                	li	a0,2
    339c:	00f70f63          	beq	a4,a5,33ba <ch32_pin_irq_enable+0xbc>
    33a0:	40078793          	addi	a5,a5,1024
    33a4:	450d                	li	a0,3
    33a6:	00f70a63          	beq	a4,a5,33ba <ch32_pin_irq_enable+0xbc>
    33aa:	400127b7          	lui	a5,0x40012
    33ae:	80078793          	addi	a5,a5,-2048 # 40011800 <_eusrstack+0x20001800>
    33b2:	4501                	li	a0,0
    33b4:	00f71363          	bne	a4,a5,33ba <ch32_pin_irq_enable+0xbc>
    33b8:	4511                	li	a0,4
    33ba:	0ff4f593          	andi	a1,s1,255
    33be:	00f010ef          	jal	ra,4bcc <GPIO_EXTILineConfig>
    33c2:	0808                	addi	a0,sp,16
    33c4:	6a2010ef          	jal	ra,4a66 <EXTI_Init>
    33c8:	67a5                	lui	a5,0x9
    33ca:	c6878793          	addi	a5,a5,-920 # 8c68 <pin_irq_map>
    33ce:	048e                	slli	s1,s1,0x3
    33d0:	94be                	add	s1,s1,a5
    33d2:	40d0                	lw	a2,4(s1)
    33d4:	e000e737          	lui	a4,0xe000e
    33d8:	05000693          	li	a3,80
    33dc:	00c707b3          	add	a5,a4,a2
    33e0:	40d78023          	sb	a3,1024(a5)
    33e4:	00565793          	srli	a5,a2,0x5
    33e8:	04078793          	addi	a5,a5,64
    33ec:	4685                	li	a3,1
    33ee:	078a                	slli	a5,a5,0x2
    33f0:	00c696b3          	sll	a3,a3,a2
    33f4:	97ba                	add	a5,a5,a4
    33f6:	c394                	sw	a3,0(a5)
    33f8:	854e                	mv	a0,s3
    33fa:	8b1fe0ef          	jal	ra,1caa <rt_hw_interrupt_enable>
    33fe:	4781                	li	a5,0
    3400:	bf81                	j	3350 <ch32_pin_irq_enable+0x52>
    3402:	02800793          	li	a5,40
    3406:	c63e                	sw	a5,12(sp)
    3408:	47a1                	li	a5,8
    340a:	cc3e                	sw	a5,24(sp)
    340c:	bf9d                	j	3382 <ch32_pin_irq_enable+0x84>
    340e:	04800793          	li	a5,72
    3412:	c63e                	sw	a5,12(sp)
    3414:	cc56                	sw	s5,24(sp)
    3416:	b7b5                	j	3382 <ch32_pin_irq_enable+0x84>
    3418:	4791                	li	a5,4
    341a:	c63e                	sw	a5,12(sp)
    341c:	47c1                	li	a5,16
    341e:	b7f5                	j	340a <ch32_pin_irq_enable+0x10c>
    3420:	4799                	li	a5,6
    3422:	f20a17e3          	bnez	s4,3350 <ch32_pin_irq_enable+0x52>
    3426:	4548                	lw	a0,12(a0)
    3428:	c81ff0ef          	jal	ra,30a8 <bit2bitno>
    342c:	473d                	li	a4,15
    342e:	4799                	li	a5,6
    3430:	f2a760e3          	bltu	a4,a0,3350 <ch32_pin_irq_enable+0x52>
    3434:	00351793          	slli	a5,a0,0x3
    3438:	6525                	lui	a0,0x9
    343a:	c6850513          	addi	a0,a0,-920 # 8c68 <pin_irq_map>
    343e:	953e                	add	a0,a0,a5
    3440:	4158                	lw	a4,4(a0)
    3442:	00575793          	srli	a5,a4,0x5
    3446:	06078793          	addi	a5,a5,96
    344a:	00e494b3          	sll	s1,s1,a4
    344e:	078a                	slli	a5,a5,0x2
    3450:	e000e737          	lui	a4,0xe000e
    3454:	97ba                	add	a5,a5,a4
    3456:	c384                	sw	s1,0(a5)
    3458:	b75d                	j	33fe <ch32_pin_irq_enable+0x100>

0000345a <HAL_GPIO_EXTI_Callback>:
    345a:	890fd2ef          	jal	t0,4ea <__riscv_save_0>
    345e:	c4bff0ef          	jal	ra,30a8 <bit2bitno>
    3462:	47b1                	li	a5,12
    3464:	02f50533          	mul	a0,a0,a5
    3468:	200007b7          	lui	a5,0x20000
    346c:	08078793          	addi	a5,a5,128 # 20000080 <pin_irq_hdr_tab>
    3470:	953e                	add	a0,a0,a5
    3472:	415c                	lw	a5,4(a0)
    3474:	c399                	beqz	a5,347a <HAL_GPIO_EXTI_Callback+0x20>
    3476:	4508                	lw	a0,8(a0)
    3478:	9782                	jalr	a5
    347a:	894fd06f          	j	50e <__riscv_restore_0>

0000347e <EXTI0_IRQHandler>:
    347e:	715d                	addi	sp,sp,-80
    3480:	e682                	fsw	ft0,76(sp)
    3482:	e486                	fsw	ft1,72(sp)
    3484:	e28a                	fsw	ft2,68(sp)
    3486:	e08e                	fsw	ft3,64(sp)
    3488:	fe12                	fsw	ft4,60(sp)
    348a:	fc16                	fsw	ft5,56(sp)
    348c:	fa1a                	fsw	ft6,52(sp)
    348e:	f81e                	fsw	ft7,48(sp)
    3490:	f62a                	fsw	fa0,44(sp)
    3492:	f42e                	fsw	fa1,40(sp)
    3494:	f232                	fsw	fa2,36(sp)
    3496:	f036                	fsw	fa3,32(sp)
    3498:	ee3a                	fsw	fa4,28(sp)
    349a:	ec3e                	fsw	fa5,24(sp)
    349c:	ea42                	fsw	fa6,20(sp)
    349e:	e846                	fsw	fa7,16(sp)
    34a0:	e672                	fsw	ft8,12(sp)
    34a2:	e476                	fsw	ft9,8(sp)
    34a4:	e27a                	fsw	ft10,4(sp)
    34a6:	e07e                	fsw	ft11,0(sp)
    34a8:	34011173          	csrrw	sp,mscratch,sp
    34ac:	d6afd0ef          	jal	ra,a16 <rt_interrupt_enter>
    34b0:	4505                	li	a0,1
    34b2:	61e010ef          	jal	ra,4ad0 <EXTI_GetITStatus>
    34b6:	c519                	beqz	a0,34c4 <EXTI0_IRQHandler+0x46>
    34b8:	4505                	li	a0,1
    34ba:	fa1ff0ef          	jal	ra,345a <HAL_GPIO_EXTI_Callback>
    34be:	4505                	li	a0,1
    34c0:	62e010ef          	jal	ra,4aee <EXTI_ClearITPendingBit>
    34c4:	d7efd0ef          	jal	ra,a42 <rt_interrupt_leave>
    34c8:	34011173          	csrrw	sp,mscratch,sp
    34cc:	6036                	flw	ft0,76(sp)
    34ce:	60a6                	flw	ft1,72(sp)
    34d0:	6116                	flw	ft2,68(sp)
    34d2:	6186                	flw	ft3,64(sp)
    34d4:	7272                	flw	ft4,60(sp)
    34d6:	72e2                	flw	ft5,56(sp)
    34d8:	7352                	flw	ft6,52(sp)
    34da:	73c2                	flw	ft7,48(sp)
    34dc:	7532                	flw	fa0,44(sp)
    34de:	75a2                	flw	fa1,40(sp)
    34e0:	7612                	flw	fa2,36(sp)
    34e2:	7682                	flw	fa3,32(sp)
    34e4:	6772                	flw	fa4,28(sp)
    34e6:	67e2                	flw	fa5,24(sp)
    34e8:	6852                	flw	fa6,20(sp)
    34ea:	68c2                	flw	fa7,16(sp)
    34ec:	6e32                	flw	ft8,12(sp)
    34ee:	6ea2                	flw	ft9,8(sp)
    34f0:	6f12                	flw	ft10,4(sp)
    34f2:	6f82                	flw	ft11,0(sp)
    34f4:	6161                	addi	sp,sp,80
    34f6:	30200073          	mret

000034fa <EXTI1_IRQHandler>:
    34fa:	715d                	addi	sp,sp,-80
    34fc:	e682                	fsw	ft0,76(sp)
    34fe:	e486                	fsw	ft1,72(sp)
    3500:	e28a                	fsw	ft2,68(sp)
    3502:	e08e                	fsw	ft3,64(sp)
    3504:	fe12                	fsw	ft4,60(sp)
    3506:	fc16                	fsw	ft5,56(sp)
    3508:	fa1a                	fsw	ft6,52(sp)
    350a:	f81e                	fsw	ft7,48(sp)
    350c:	f62a                	fsw	fa0,44(sp)
    350e:	f42e                	fsw	fa1,40(sp)
    3510:	f232                	fsw	fa2,36(sp)
    3512:	f036                	fsw	fa3,32(sp)
    3514:	ee3a                	fsw	fa4,28(sp)
    3516:	ec3e                	fsw	fa5,24(sp)
    3518:	ea42                	fsw	fa6,20(sp)
    351a:	e846                	fsw	fa7,16(sp)
    351c:	e672                	fsw	ft8,12(sp)
    351e:	e476                	fsw	ft9,8(sp)
    3520:	e27a                	fsw	ft10,4(sp)
    3522:	e07e                	fsw	ft11,0(sp)
    3524:	34011173          	csrrw	sp,mscratch,sp
    3528:	ceefd0ef          	jal	ra,a16 <rt_interrupt_enter>
    352c:	4509                	li	a0,2
    352e:	5a2010ef          	jal	ra,4ad0 <EXTI_GetITStatus>
    3532:	c519                	beqz	a0,3540 <EXTI1_IRQHandler+0x46>
    3534:	4509                	li	a0,2
    3536:	f25ff0ef          	jal	ra,345a <HAL_GPIO_EXTI_Callback>
    353a:	4509                	li	a0,2
    353c:	5b2010ef          	jal	ra,4aee <EXTI_ClearITPendingBit>
    3540:	d02fd0ef          	jal	ra,a42 <rt_interrupt_leave>
    3544:	34011173          	csrrw	sp,mscratch,sp
    3548:	6036                	flw	ft0,76(sp)
    354a:	60a6                	flw	ft1,72(sp)
    354c:	6116                	flw	ft2,68(sp)
    354e:	6186                	flw	ft3,64(sp)
    3550:	7272                	flw	ft4,60(sp)
    3552:	72e2                	flw	ft5,56(sp)
    3554:	7352                	flw	ft6,52(sp)
    3556:	73c2                	flw	ft7,48(sp)
    3558:	7532                	flw	fa0,44(sp)
    355a:	75a2                	flw	fa1,40(sp)
    355c:	7612                	flw	fa2,36(sp)
    355e:	7682                	flw	fa3,32(sp)
    3560:	6772                	flw	fa4,28(sp)
    3562:	67e2                	flw	fa5,24(sp)
    3564:	6852                	flw	fa6,20(sp)
    3566:	68c2                	flw	fa7,16(sp)
    3568:	6e32                	flw	ft8,12(sp)
    356a:	6ea2                	flw	ft9,8(sp)
    356c:	6f12                	flw	ft10,4(sp)
    356e:	6f82                	flw	ft11,0(sp)
    3570:	6161                	addi	sp,sp,80
    3572:	30200073          	mret

00003576 <EXTI2_IRQHandler>:
    3576:	715d                	addi	sp,sp,-80
    3578:	e682                	fsw	ft0,76(sp)
    357a:	e486                	fsw	ft1,72(sp)
    357c:	e28a                	fsw	ft2,68(sp)
    357e:	e08e                	fsw	ft3,64(sp)
    3580:	fe12                	fsw	ft4,60(sp)
    3582:	fc16                	fsw	ft5,56(sp)
    3584:	fa1a                	fsw	ft6,52(sp)
    3586:	f81e                	fsw	ft7,48(sp)
    3588:	f62a                	fsw	fa0,44(sp)
    358a:	f42e                	fsw	fa1,40(sp)
    358c:	f232                	fsw	fa2,36(sp)
    358e:	f036                	fsw	fa3,32(sp)
    3590:	ee3a                	fsw	fa4,28(sp)
    3592:	ec3e                	fsw	fa5,24(sp)
    3594:	ea42                	fsw	fa6,20(sp)
    3596:	e846                	fsw	fa7,16(sp)
    3598:	e672                	fsw	ft8,12(sp)
    359a:	e476                	fsw	ft9,8(sp)
    359c:	e27a                	fsw	ft10,4(sp)
    359e:	e07e                	fsw	ft11,0(sp)
    35a0:	34011173          	csrrw	sp,mscratch,sp
    35a4:	c72fd0ef          	jal	ra,a16 <rt_interrupt_enter>
    35a8:	4511                	li	a0,4
    35aa:	526010ef          	jal	ra,4ad0 <EXTI_GetITStatus>
    35ae:	c519                	beqz	a0,35bc <EXTI2_IRQHandler+0x46>
    35b0:	4511                	li	a0,4
    35b2:	ea9ff0ef          	jal	ra,345a <HAL_GPIO_EXTI_Callback>
    35b6:	4511                	li	a0,4
    35b8:	536010ef          	jal	ra,4aee <EXTI_ClearITPendingBit>
    35bc:	c86fd0ef          	jal	ra,a42 <rt_interrupt_leave>
    35c0:	34011173          	csrrw	sp,mscratch,sp
    35c4:	6036                	flw	ft0,76(sp)
    35c6:	60a6                	flw	ft1,72(sp)
    35c8:	6116                	flw	ft2,68(sp)
    35ca:	6186                	flw	ft3,64(sp)
    35cc:	7272                	flw	ft4,60(sp)
    35ce:	72e2                	flw	ft5,56(sp)
    35d0:	7352                	flw	ft6,52(sp)
    35d2:	73c2                	flw	ft7,48(sp)
    35d4:	7532                	flw	fa0,44(sp)
    35d6:	75a2                	flw	fa1,40(sp)
    35d8:	7612                	flw	fa2,36(sp)
    35da:	7682                	flw	fa3,32(sp)
    35dc:	6772                	flw	fa4,28(sp)
    35de:	67e2                	flw	fa5,24(sp)
    35e0:	6852                	flw	fa6,20(sp)
    35e2:	68c2                	flw	fa7,16(sp)
    35e4:	6e32                	flw	ft8,12(sp)
    35e6:	6ea2                	flw	ft9,8(sp)
    35e8:	6f12                	flw	ft10,4(sp)
    35ea:	6f82                	flw	ft11,0(sp)
    35ec:	6161                	addi	sp,sp,80
    35ee:	30200073          	mret

000035f2 <EXTI3_IRQHandler>:
    35f2:	715d                	addi	sp,sp,-80
    35f4:	e682                	fsw	ft0,76(sp)
    35f6:	e486                	fsw	ft1,72(sp)
    35f8:	e28a                	fsw	ft2,68(sp)
    35fa:	e08e                	fsw	ft3,64(sp)
    35fc:	fe12                	fsw	ft4,60(sp)
    35fe:	fc16                	fsw	ft5,56(sp)
    3600:	fa1a                	fsw	ft6,52(sp)
    3602:	f81e                	fsw	ft7,48(sp)
    3604:	f62a                	fsw	fa0,44(sp)
    3606:	f42e                	fsw	fa1,40(sp)
    3608:	f232                	fsw	fa2,36(sp)
    360a:	f036                	fsw	fa3,32(sp)
    360c:	ee3a                	fsw	fa4,28(sp)
    360e:	ec3e                	fsw	fa5,24(sp)
    3610:	ea42                	fsw	fa6,20(sp)
    3612:	e846                	fsw	fa7,16(sp)
    3614:	e672                	fsw	ft8,12(sp)
    3616:	e476                	fsw	ft9,8(sp)
    3618:	e27a                	fsw	ft10,4(sp)
    361a:	e07e                	fsw	ft11,0(sp)
    361c:	34011173          	csrrw	sp,mscratch,sp
    3620:	bf6fd0ef          	jal	ra,a16 <rt_interrupt_enter>
    3624:	4521                	li	a0,8
    3626:	4aa010ef          	jal	ra,4ad0 <EXTI_GetITStatus>
    362a:	c519                	beqz	a0,3638 <EXTI3_IRQHandler+0x46>
    362c:	4521                	li	a0,8
    362e:	e2dff0ef          	jal	ra,345a <HAL_GPIO_EXTI_Callback>
    3632:	4521                	li	a0,8
    3634:	4ba010ef          	jal	ra,4aee <EXTI_ClearITPendingBit>
    3638:	c0afd0ef          	jal	ra,a42 <rt_interrupt_leave>
    363c:	34011173          	csrrw	sp,mscratch,sp
    3640:	6036                	flw	ft0,76(sp)
    3642:	60a6                	flw	ft1,72(sp)
    3644:	6116                	flw	ft2,68(sp)
    3646:	6186                	flw	ft3,64(sp)
    3648:	7272                	flw	ft4,60(sp)
    364a:	72e2                	flw	ft5,56(sp)
    364c:	7352                	flw	ft6,52(sp)
    364e:	73c2                	flw	ft7,48(sp)
    3650:	7532                	flw	fa0,44(sp)
    3652:	75a2                	flw	fa1,40(sp)
    3654:	7612                	flw	fa2,36(sp)
    3656:	7682                	flw	fa3,32(sp)
    3658:	6772                	flw	fa4,28(sp)
    365a:	67e2                	flw	fa5,24(sp)
    365c:	6852                	flw	fa6,20(sp)
    365e:	68c2                	flw	fa7,16(sp)
    3660:	6e32                	flw	ft8,12(sp)
    3662:	6ea2                	flw	ft9,8(sp)
    3664:	6f12                	flw	ft10,4(sp)
    3666:	6f82                	flw	ft11,0(sp)
    3668:	6161                	addi	sp,sp,80
    366a:	30200073          	mret

0000366e <EXTI4_IRQHandler>:
    366e:	715d                	addi	sp,sp,-80
    3670:	e682                	fsw	ft0,76(sp)
    3672:	e486                	fsw	ft1,72(sp)
    3674:	e28a                	fsw	ft2,68(sp)
    3676:	e08e                	fsw	ft3,64(sp)
    3678:	fe12                	fsw	ft4,60(sp)
    367a:	fc16                	fsw	ft5,56(sp)
    367c:	fa1a                	fsw	ft6,52(sp)
    367e:	f81e                	fsw	ft7,48(sp)
    3680:	f62a                	fsw	fa0,44(sp)
    3682:	f42e                	fsw	fa1,40(sp)
    3684:	f232                	fsw	fa2,36(sp)
    3686:	f036                	fsw	fa3,32(sp)
    3688:	ee3a                	fsw	fa4,28(sp)
    368a:	ec3e                	fsw	fa5,24(sp)
    368c:	ea42                	fsw	fa6,20(sp)
    368e:	e846                	fsw	fa7,16(sp)
    3690:	e672                	fsw	ft8,12(sp)
    3692:	e476                	fsw	ft9,8(sp)
    3694:	e27a                	fsw	ft10,4(sp)
    3696:	e07e                	fsw	ft11,0(sp)
    3698:	34011173          	csrrw	sp,mscratch,sp
    369c:	b7afd0ef          	jal	ra,a16 <rt_interrupt_enter>
    36a0:	4541                	li	a0,16
    36a2:	42e010ef          	jal	ra,4ad0 <EXTI_GetITStatus>
    36a6:	c519                	beqz	a0,36b4 <EXTI4_IRQHandler+0x46>
    36a8:	4541                	li	a0,16
    36aa:	db1ff0ef          	jal	ra,345a <HAL_GPIO_EXTI_Callback>
    36ae:	4541                	li	a0,16
    36b0:	43e010ef          	jal	ra,4aee <EXTI_ClearITPendingBit>
    36b4:	b8efd0ef          	jal	ra,a42 <rt_interrupt_leave>
    36b8:	34011173          	csrrw	sp,mscratch,sp
    36bc:	6036                	flw	ft0,76(sp)
    36be:	60a6                	flw	ft1,72(sp)
    36c0:	6116                	flw	ft2,68(sp)
    36c2:	6186                	flw	ft3,64(sp)
    36c4:	7272                	flw	ft4,60(sp)
    36c6:	72e2                	flw	ft5,56(sp)
    36c8:	7352                	flw	ft6,52(sp)
    36ca:	73c2                	flw	ft7,48(sp)
    36cc:	7532                	flw	fa0,44(sp)
    36ce:	75a2                	flw	fa1,40(sp)
    36d0:	7612                	flw	fa2,36(sp)
    36d2:	7682                	flw	fa3,32(sp)
    36d4:	6772                	flw	fa4,28(sp)
    36d6:	67e2                	flw	fa5,24(sp)
    36d8:	6852                	flw	fa6,20(sp)
    36da:	68c2                	flw	fa7,16(sp)
    36dc:	6e32                	flw	ft8,12(sp)
    36de:	6ea2                	flw	ft9,8(sp)
    36e0:	6f12                	flw	ft10,4(sp)
    36e2:	6f82                	flw	ft11,0(sp)
    36e4:	6161                	addi	sp,sp,80
    36e6:	30200073          	mret

000036ea <EXTI9_5_IRQHandler>:
    36ea:	715d                	addi	sp,sp,-80
    36ec:	e682                	fsw	ft0,76(sp)
    36ee:	e486                	fsw	ft1,72(sp)
    36f0:	e28a                	fsw	ft2,68(sp)
    36f2:	e08e                	fsw	ft3,64(sp)
    36f4:	fe12                	fsw	ft4,60(sp)
    36f6:	fc16                	fsw	ft5,56(sp)
    36f8:	fa1a                	fsw	ft6,52(sp)
    36fa:	f81e                	fsw	ft7,48(sp)
    36fc:	f62a                	fsw	fa0,44(sp)
    36fe:	f42e                	fsw	fa1,40(sp)
    3700:	f232                	fsw	fa2,36(sp)
    3702:	f036                	fsw	fa3,32(sp)
    3704:	ee3a                	fsw	fa4,28(sp)
    3706:	ec3e                	fsw	fa5,24(sp)
    3708:	ea42                	fsw	fa6,20(sp)
    370a:	e846                	fsw	fa7,16(sp)
    370c:	e672                	fsw	ft8,12(sp)
    370e:	e476                	fsw	ft9,8(sp)
    3710:	e27a                	fsw	ft10,4(sp)
    3712:	e07e                	fsw	ft11,0(sp)
    3714:	34011173          	csrrw	sp,mscratch,sp
    3718:	afefd0ef          	jal	ra,a16 <rt_interrupt_enter>
    371c:	02000513          	li	a0,32
    3720:	3b0010ef          	jal	ra,4ad0 <EXTI_GetITStatus>
    3724:	c525                	beqz	a0,378c <EXTI9_5_IRQHandler+0xa2>
    3726:	02000513          	li	a0,32
    372a:	d31ff0ef          	jal	ra,345a <HAL_GPIO_EXTI_Callback>
    372e:	04000513          	li	a0,64
    3732:	d29ff0ef          	jal	ra,345a <HAL_GPIO_EXTI_Callback>
    3736:	08000513          	li	a0,128
    373a:	d21ff0ef          	jal	ra,345a <HAL_GPIO_EXTI_Callback>
    373e:	10000513          	li	a0,256
    3742:	d19ff0ef          	jal	ra,345a <HAL_GPIO_EXTI_Callback>
    3746:	20000513          	li	a0,512
    374a:	d11ff0ef          	jal	ra,345a <HAL_GPIO_EXTI_Callback>
    374e:	3e000513          	li	a0,992
    3752:	39c010ef          	jal	ra,4aee <EXTI_ClearITPendingBit>
    3756:	aecfd0ef          	jal	ra,a42 <rt_interrupt_leave>
    375a:	34011173          	csrrw	sp,mscratch,sp
    375e:	6036                	flw	ft0,76(sp)
    3760:	60a6                	flw	ft1,72(sp)
    3762:	6116                	flw	ft2,68(sp)
    3764:	6186                	flw	ft3,64(sp)
    3766:	7272                	flw	ft4,60(sp)
    3768:	72e2                	flw	ft5,56(sp)
    376a:	7352                	flw	ft6,52(sp)
    376c:	73c2                	flw	ft7,48(sp)
    376e:	7532                	flw	fa0,44(sp)
    3770:	75a2                	flw	fa1,40(sp)
    3772:	7612                	flw	fa2,36(sp)
    3774:	7682                	flw	fa3,32(sp)
    3776:	6772                	flw	fa4,28(sp)
    3778:	67e2                	flw	fa5,24(sp)
    377a:	6852                	flw	fa6,20(sp)
    377c:	68c2                	flw	fa7,16(sp)
    377e:	6e32                	flw	ft8,12(sp)
    3780:	6ea2                	flw	ft9,8(sp)
    3782:	6f12                	flw	ft10,4(sp)
    3784:	6f82                	flw	ft11,0(sp)
    3786:	6161                	addi	sp,sp,80
    3788:	30200073          	mret
    378c:	04000513          	li	a0,64
    3790:	340010ef          	jal	ra,4ad0 <EXTI_GetITStatus>
    3794:	f949                	bnez	a0,3726 <EXTI9_5_IRQHandler+0x3c>
    3796:	08000513          	li	a0,128
    379a:	336010ef          	jal	ra,4ad0 <EXTI_GetITStatus>
    379e:	f541                	bnez	a0,3726 <EXTI9_5_IRQHandler+0x3c>
    37a0:	10000513          	li	a0,256
    37a4:	32c010ef          	jal	ra,4ad0 <EXTI_GetITStatus>
    37a8:	fd3d                	bnez	a0,3726 <EXTI9_5_IRQHandler+0x3c>
    37aa:	20000513          	li	a0,512
    37ae:	322010ef          	jal	ra,4ad0 <EXTI_GetITStatus>
    37b2:	f935                	bnez	a0,3726 <EXTI9_5_IRQHandler+0x3c>
    37b4:	b74d                	j	3756 <EXTI9_5_IRQHandler+0x6c>

000037b6 <EXTI15_10_IRQHandler>:
    37b6:	715d                	addi	sp,sp,-80
    37b8:	e682                	fsw	ft0,76(sp)
    37ba:	e486                	fsw	ft1,72(sp)
    37bc:	e28a                	fsw	ft2,68(sp)
    37be:	e08e                	fsw	ft3,64(sp)
    37c0:	fe12                	fsw	ft4,60(sp)
    37c2:	fc16                	fsw	ft5,56(sp)
    37c4:	fa1a                	fsw	ft6,52(sp)
    37c6:	f81e                	fsw	ft7,48(sp)
    37c8:	f62a                	fsw	fa0,44(sp)
    37ca:	f42e                	fsw	fa1,40(sp)
    37cc:	f232                	fsw	fa2,36(sp)
    37ce:	f036                	fsw	fa3,32(sp)
    37d0:	ee3a                	fsw	fa4,28(sp)
    37d2:	ec3e                	fsw	fa5,24(sp)
    37d4:	ea42                	fsw	fa6,20(sp)
    37d6:	e846                	fsw	fa7,16(sp)
    37d8:	e672                	fsw	ft8,12(sp)
    37da:	e476                	fsw	ft9,8(sp)
    37dc:	e27a                	fsw	ft10,4(sp)
    37de:	e07e                	fsw	ft11,0(sp)
    37e0:	34011173          	csrrw	sp,mscratch,sp
    37e4:	a32fd0ef          	jal	ra,a16 <rt_interrupt_enter>
    37e8:	40000513          	li	a0,1024
    37ec:	2e4010ef          	jal	ra,4ad0 <EXTI_GetITStatus>
    37f0:	c535                	beqz	a0,385c <EXTI15_10_IRQHandler+0xa6>
    37f2:	40000513          	li	a0,1024
    37f6:	c65ff0ef          	jal	ra,345a <HAL_GPIO_EXTI_Callback>
    37fa:	6505                	lui	a0,0x1
    37fc:	80050513          	addi	a0,a0,-2048 # 800 <__stack_size>
    3800:	c5bff0ef          	jal	ra,345a <HAL_GPIO_EXTI_Callback>
    3804:	6505                	lui	a0,0x1
    3806:	c55ff0ef          	jal	ra,345a <HAL_GPIO_EXTI_Callback>
    380a:	6509                	lui	a0,0x2
    380c:	c4fff0ef          	jal	ra,345a <HAL_GPIO_EXTI_Callback>
    3810:	6511                	lui	a0,0x4
    3812:	c49ff0ef          	jal	ra,345a <HAL_GPIO_EXTI_Callback>
    3816:	6521                	lui	a0,0x8
    3818:	c43ff0ef          	jal	ra,345a <HAL_GPIO_EXTI_Callback>
    381c:	6541                	lui	a0,0x10
    381e:	c0050513          	addi	a0,a0,-1024 # fc00 <__rt_init_end+0x60a4>
    3822:	2cc010ef          	jal	ra,4aee <EXTI_ClearITPendingBit>
    3826:	a1cfd0ef          	jal	ra,a42 <rt_interrupt_leave>
    382a:	34011173          	csrrw	sp,mscratch,sp
    382e:	6036                	flw	ft0,76(sp)
    3830:	60a6                	flw	ft1,72(sp)
    3832:	6116                	flw	ft2,68(sp)
    3834:	6186                	flw	ft3,64(sp)
    3836:	7272                	flw	ft4,60(sp)
    3838:	72e2                	flw	ft5,56(sp)
    383a:	7352                	flw	ft6,52(sp)
    383c:	73c2                	flw	ft7,48(sp)
    383e:	7532                	flw	fa0,44(sp)
    3840:	75a2                	flw	fa1,40(sp)
    3842:	7612                	flw	fa2,36(sp)
    3844:	7682                	flw	fa3,32(sp)
    3846:	6772                	flw	fa4,28(sp)
    3848:	67e2                	flw	fa5,24(sp)
    384a:	6852                	flw	fa6,20(sp)
    384c:	68c2                	flw	fa7,16(sp)
    384e:	6e32                	flw	ft8,12(sp)
    3850:	6ea2                	flw	ft9,8(sp)
    3852:	6f12                	flw	ft10,4(sp)
    3854:	6f82                	flw	ft11,0(sp)
    3856:	6161                	addi	sp,sp,80
    3858:	30200073          	mret
    385c:	6505                	lui	a0,0x1
    385e:	80050513          	addi	a0,a0,-2048 # 800 <__stack_size>
    3862:	26e010ef          	jal	ra,4ad0 <EXTI_GetITStatus>
    3866:	f551                	bnez	a0,37f2 <EXTI15_10_IRQHandler+0x3c>
    3868:	6505                	lui	a0,0x1
    386a:	266010ef          	jal	ra,4ad0 <EXTI_GetITStatus>
    386e:	f151                	bnez	a0,37f2 <EXTI15_10_IRQHandler+0x3c>
    3870:	6509                	lui	a0,0x2
    3872:	25e010ef          	jal	ra,4ad0 <EXTI_GetITStatus>
    3876:	fd35                	bnez	a0,37f2 <EXTI15_10_IRQHandler+0x3c>
    3878:	6511                	lui	a0,0x4
    387a:	256010ef          	jal	ra,4ad0 <EXTI_GetITStatus>
    387e:	f935                	bnez	a0,37f2 <EXTI15_10_IRQHandler+0x3c>
    3880:	6521                	lui	a0,0x8
    3882:	24e010ef          	jal	ra,4ad0 <EXTI_GetITStatus>
    3886:	f535                	bnez	a0,37f2 <EXTI15_10_IRQHandler+0x3c>
    3888:	bf79                	j	3826 <EXTI15_10_IRQHandler+0x70>

0000388a <ch32dma_transmit>:
    388a:	4501                	li	a0,0
    388c:	8082                	ret

0000388e <ch32_configure>:
    388e:	c5dfc2ef          	jal	t0,4ea <__riscv_save_0>
    3892:	419c                	lw	a5,0(a1)
    3894:	4120                	lw	s0,64(a0)
    3896:	46a1                	li	a3,8
    3898:	1141                	addi	sp,sp,-16
    389a:	c01c                	sw	a5,0(s0)
    389c:	47b1                	li	a5,12
    389e:	a43e                	sh	a5,10(s0)
    38a0:	41dc                	lw	a5,4(a1)
    38a2:	00041623          	sh	zero,12(s0)
    38a6:	00f7f713          	andi	a4,a5,15
    38aa:	02d70163          	beq	a4,a3,38cc <ch32_configure+0x3e>
    38ae:	46a5                	li	a3,9
    38b0:	00d71e63          	bne	a4,a3,38cc <ch32_configure+0x3e>
    38b4:	6705                	lui	a4,0x1
    38b6:	a05a                	sh	a4,4(s0)
    38b8:	0047d713          	srli	a4,a5,0x4
    38bc:	8b0d                	andi	a4,a4,3
    38be:	c701                	beqz	a4,38c6 <ch32_configure+0x38>
    38c0:	4685                	li	a3,1
    38c2:	00d70863          	beq	a4,a3,38d2 <ch32_configure+0x44>
    38c6:	00041323          	sh	zero,6(s0)
    38ca:	a031                	j	38d6 <ch32_configure+0x48>
    38cc:	00041223          	sh	zero,4(s0)
    38d0:	b7e5                	j	38b8 <ch32_configure+0x2a>
    38d2:	6709                	lui	a4,0x2
    38d4:	a07a                	sh	a4,6(s0)
    38d6:	8399                	srli	a5,a5,0x6
    38d8:	8b8d                	andi	a5,a5,3
    38da:	4705                	li	a4,1
    38dc:	00e78963          	beq	a5,a4,38ee <ch32_configure+0x60>
    38e0:	c781                	beqz	a5,38e8 <ch32_configure+0x5a>
    38e2:	4709                	li	a4,2
    38e4:	06e78963          	beq	a5,a4,3956 <ch32_configure+0xc8>
    38e8:	00041423          	sh	zero,8(s0)
    38ec:	a021                	j	38f4 <ch32_configure+0x66>
    38ee:	60000793          	li	a5,1536
    38f2:	a41e                	sh	a5,8(s0)
    38f4:	4818                	lw	a4,16(s0)
    38f6:	400147b7          	lui	a5,0x40014
    38fa:	80078793          	addi	a5,a5,-2048 # 40013800 <_eusrstack+0x20003800>
    38fe:	04f71863          	bne	a4,a5,394e <ch32_configure+0xc0>
    3902:	6511                	lui	a0,0x4
    3904:	4585                	li	a1,1
    3906:	0511                	addi	a0,a0,4
    3908:	4ba010ef          	jal	ra,4dc2 <RCC_APB2PeriphClockCmd>
    390c:	20000793          	li	a5,512
    3910:	400114b7          	lui	s1,0x40011
    3914:	827c                	sh	a5,4(sp)
    3916:	490d                	li	s2,3
    3918:	47e1                	li	a5,24
    391a:	004c                	addi	a1,sp,4
    391c:	80048513          	addi	a0,s1,-2048 # 40010800 <_eusrstack+0x20000800>
    3920:	c63e                	sw	a5,12(sp)
    3922:	c44a                	sw	s2,8(sp)
    3924:	1d4010ef          	jal	ra,4af8 <GPIO_Init>
    3928:	40000793          	li	a5,1024
    392c:	827c                	sh	a5,4(sp)
    392e:	004c                	addi	a1,sp,4
    3930:	4791                	li	a5,4
    3932:	80048513          	addi	a0,s1,-2048
    3936:	c63e                	sw	a5,12(sp)
    3938:	c44a                	sw	s2,8(sp)
    393a:	1be010ef          	jal	ra,4af8 <GPIO_Init>
    393e:	4808                	lw	a0,16(s0)
    3940:	85a2                	mv	a1,s0
    3942:	5ac010ef          	jal	ra,4eee <USART_Init>
    3946:	4808                	lw	a0,16(s0)
    3948:	4585                	li	a1,1
    394a:	660010ef          	jal	ra,4faa <USART_Cmd>
    394e:	4501                	li	a0,0
    3950:	0141                	addi	sp,sp,16
    3952:	bbdfc06f          	j	50e <__riscv_restore_0>
    3956:	40000793          	li	a5,1024
    395a:	bf61                	j	38f2 <ch32_configure+0x64>

0000395c <rt_hw_usart_init>:
    395c:	b75fc2ef          	jal	t0,4d0 <__riscv_save_4>
    3960:	200014b7          	lui	s1,0x20001
    3964:	6e448413          	addi	s0,s1,1764 # 200016e4 <uart1>
    3968:	03500793          	li	a5,53
    396c:	c85c                	sw	a5,20(s0)
    396e:	20001937          	lui	s2,0x20001
    3972:	400147b7          	lui	a5,0x40014
    3976:	68c90613          	addi	a2,s2,1676 # 2000168c <serial1>
    397a:	80078793          	addi	a5,a5,-2048 # 40013800 <_eusrstack+0x20003800>
    397e:	4674                	lw	a3,76(a2)
    3980:	c81c                	sw	a5,16(s0)
    3982:	67a5                	lui	a5,0x9
    3984:	33c78793          	addi	a5,a5,828 # 933c <ch32_uart_ops>
    3988:	c27c                	sw	a5,68(a2)
    398a:	c00007b7          	lui	a5,0xc0000
    398e:	8ff5                	and	a5,a5,a3
    3990:	66c1                	lui	a3,0x10
    3992:	06a1                	addi	a3,a3,8
    3994:	6771                	lui	a4,0x1c
    3996:	20070713          	addi	a4,a4,512 # 1c200 <__rt_init_end+0x126a4>
    399a:	8fd5                	or	a5,a5,a3
    399c:	6511                	lui	a0,0x4
    399e:	1141                	addi	sp,sp,-16
    39a0:	c638                	sw	a4,72(a2)
    39a2:	c67c                	sw	a5,76(a2)
    39a4:	4585                	li	a1,1
    39a6:	000c07b7          	lui	a5,0xc0
    39aa:	0511                	addi	a0,a0,4
    39ac:	c018                	sw	a4,0(s0)
    39ae:	c41c                	sw	a5,8(s0)
    39b0:	00042223          	sw	zero,4(s0)
    39b4:	00041623          	sh	zero,12(s0)
    39b8:	40a010ef          	jal	ra,4dc2 <RCC_APB2PeriphClockCmd>
    39bc:	400119b7          	lui	s3,0x40011
    39c0:	20000793          	li	a5,512
    39c4:	827c                	sh	a5,4(sp)
    39c6:	4a0d                	li	s4,3
    39c8:	47e1                	li	a5,24
    39ca:	004c                	addi	a1,sp,4
    39cc:	80098513          	addi	a0,s3,-2048 # 40010800 <_eusrstack+0x20000800>
    39d0:	c452                	sw	s4,8(sp)
    39d2:	c63e                	sw	a5,12(sp)
    39d4:	124010ef          	jal	ra,4af8 <GPIO_Init>
    39d8:	40000793          	li	a5,1024
    39dc:	827c                	sh	a5,4(sp)
    39de:	004c                	addi	a1,sp,4
    39e0:	4791                	li	a5,4
    39e2:	80098513          	addi	a0,s3,-2048
    39e6:	c63e                	sw	a5,12(sp)
    39e8:	c452                	sw	s4,8(sp)
    39ea:	10e010ef          	jal	ra,4af8 <GPIO_Init>
    39ee:	4808                	lw	a0,16(s0)
    39f0:	6e448593          	addi	a1,s1,1764
    39f4:	4fa010ef          	jal	ra,4eee <USART_Init>
    39f8:	4808                	lw	a0,16(s0)
    39fa:	4585                	li	a1,1
    39fc:	5ae010ef          	jal	ra,4faa <USART_Cmd>
    3a00:	000095b7          	lui	a1,0x9
    3a04:	6e448693          	addi	a3,s1,1764
    3a08:	10300613          	li	a2,259
    3a0c:	c4858593          	addi	a1,a1,-952 # 8c48 <__fsym_pinMode_name+0x8>
    3a10:	68c90513          	addi	a0,s2,1676
    3a14:	bf0ff0ef          	jal	ra,2e04 <rt_hw_serial_register>
    3a18:	4501                	li	a0,0
    3a1a:	0141                	addi	sp,sp,16
    3a1c:	ae9fc06f          	j	504 <__riscv_restore_4>

00003a20 <ch32_getc>:
    3a20:	acbfc2ef          	jal	t0,4ea <__riscv_save_0>
    3a24:	4120                	lw	s0,64(a0)
    3a26:	02000593          	li	a1,32
    3a2a:	4808                	lw	a0,16(s0)
    3a2c:	5ca010ef          	jal	ra,4ff6 <USART_GetFlagStatus>
    3a30:	c519                	beqz	a0,3a3e <ch32_getc+0x1e>
    3a32:	481c                	lw	a5,16(s0)
    3a34:	23ca                	lhu	a0,4(a5)
    3a36:	0ff57513          	andi	a0,a0,255
    3a3a:	ad5fc06f          	j	50e <__riscv_restore_0>
    3a3e:	557d                	li	a0,-1
    3a40:	bfed                	j	3a3a <ch32_getc+0x1a>

00003a42 <ch32_putc>:
    3a42:	aa9fc2ef          	jal	t0,4ea <__riscv_save_0>
    3a46:	4124                	lw	s1,64(a0)
    3a48:	842e                	mv	s0,a1
    3a4a:	4888                	lw	a0,16(s1)
    3a4c:	04000593          	li	a1,64
    3a50:	5a6010ef          	jal	ra,4ff6 <USART_GetFlagStatus>
    3a54:	d97d                	beqz	a0,3a4a <ch32_putc+0x8>
    3a56:	489c                	lw	a5,16(s1)
    3a58:	0442                	slli	s0,s0,0x10
    3a5a:	8041                	srli	s0,s0,0x10
    3a5c:	a3c2                	sh	s0,4(a5)
    3a5e:	4505                	li	a0,1
    3a60:	aaffc06f          	j	50e <__riscv_restore_0>

00003a64 <ch32_control>:
    3a64:	a87fc2ef          	jal	t0,4ea <__riscv_save_0>
    3a68:	47c1                	li	a5,16
    3a6a:	4138                	lw	a4,64(a0)
    3a6c:	02f58b63          	beq	a1,a5,3aa2 <ch32_control+0x3e>
    3a70:	47c5                	li	a5,17
    3a72:	02f59563          	bne	a1,a5,3a9c <ch32_control+0x38>
    3a76:	4b54                	lw	a3,20(a4)
    3a78:	4605                	li	a2,1
    3a7a:	0056d793          	srli	a5,a3,0x5
    3a7e:	06078793          	addi	a5,a5,96 # c0060 <__rt_init_end+0xb6504>
    3a82:	00d61633          	sll	a2,a2,a3
    3a86:	078a                	slli	a5,a5,0x2
    3a88:	e000e6b7          	lui	a3,0xe000e
    3a8c:	97b6                	add	a5,a5,a3
    3a8e:	c390                	sw	a2,0(a5)
    3a90:	4601                	li	a2,0
    3a92:	4b08                	lw	a0,16(a4)
    3a94:	52500593          	li	a1,1317
    3a98:	528010ef          	jal	ra,4fc0 <USART_ITConfig>
    3a9c:	4501                	li	a0,0
    3a9e:	a71fc06f          	j	50e <__riscv_restore_0>
    3aa2:	4b54                	lw	a3,20(a4)
    3aa4:	4605                	li	a2,1
    3aa6:	0056d793          	srli	a5,a3,0x5
    3aaa:	04078793          	addi	a5,a5,64
    3aae:	00d61633          	sll	a2,a2,a3
    3ab2:	078a                	slli	a5,a5,0x2
    3ab4:	e000e6b7          	lui	a3,0xe000e
    3ab8:	97b6                	add	a5,a5,a3
    3aba:	c390                	sw	a2,0(a5)
    3abc:	4605                	li	a2,1
    3abe:	bfd1                	j	3a92 <ch32_control+0x2e>

00003ac0 <USART1_IRQHandler>:
    3ac0:	711d                	addi	sp,sp,-96
    3ac2:	cea2                	sw	s0,92(sp)
    3ac4:	cca6                	sw	s1,88(sp)
    3ac6:	e682                	fsw	ft0,76(sp)
    3ac8:	e486                	fsw	ft1,72(sp)
    3aca:	e28a                	fsw	ft2,68(sp)
    3acc:	e08e                	fsw	ft3,64(sp)
    3ace:	fe12                	fsw	ft4,60(sp)
    3ad0:	fc16                	fsw	ft5,56(sp)
    3ad2:	fa1a                	fsw	ft6,52(sp)
    3ad4:	f81e                	fsw	ft7,48(sp)
    3ad6:	f62a                	fsw	fa0,44(sp)
    3ad8:	f42e                	fsw	fa1,40(sp)
    3ada:	f232                	fsw	fa2,36(sp)
    3adc:	f036                	fsw	fa3,32(sp)
    3ade:	ee3a                	fsw	fa4,28(sp)
    3ae0:	ec3e                	fsw	fa5,24(sp)
    3ae2:	ea42                	fsw	fa6,20(sp)
    3ae4:	e846                	fsw	fa7,16(sp)
    3ae6:	e672                	fsw	ft8,12(sp)
    3ae8:	e476                	fsw	ft9,8(sp)
    3aea:	e27a                	fsw	ft10,4(sp)
    3aec:	e07e                	fsw	ft11,0(sp)
    3aee:	34011173          	csrrw	sp,mscratch,sp
    3af2:	200014b7          	lui	s1,0x20001
    3af6:	f21fc0ef          	jal	ra,a16 <rt_interrupt_enter>
    3afa:	68c48793          	addi	a5,s1,1676 # 2000168c <serial1>
    3afe:	43a0                	lw	s0,64(a5)
    3b00:	52500593          	li	a1,1317
    3b04:	4808                	lw	a0,16(s0)
    3b06:	4fa010ef          	jal	ra,5000 <USART_GetITStatus>
    3b0a:	c919                	beqz	a0,3b20 <USART1_IRQHandler+0x60>
    3b0c:	4585                	li	a1,1
    3b0e:	68c48513          	addi	a0,s1,1676
    3b12:	b4cff0ef          	jal	ra,2e5e <rt_hw_serial_isr>
    3b16:	4808                	lw	a0,16(s0)
    3b18:	52500593          	li	a1,1317
    3b1c:	520010ef          	jal	ra,503c <USART_ClearITPendingBit>
    3b20:	f23fc0ef          	jal	ra,a42 <rt_interrupt_leave>
    3b24:	34011173          	csrrw	sp,mscratch,sp
    3b28:	4476                	lw	s0,92(sp)
    3b2a:	44e6                	lw	s1,88(sp)
    3b2c:	6036                	flw	ft0,76(sp)
    3b2e:	60a6                	flw	ft1,72(sp)
    3b30:	6116                	flw	ft2,68(sp)
    3b32:	6186                	flw	ft3,64(sp)
    3b34:	7272                	flw	ft4,60(sp)
    3b36:	72e2                	flw	ft5,56(sp)
    3b38:	7352                	flw	ft6,52(sp)
    3b3a:	73c2                	flw	ft7,48(sp)
    3b3c:	7532                	flw	fa0,44(sp)
    3b3e:	75a2                	flw	fa1,40(sp)
    3b40:	7612                	flw	fa2,36(sp)
    3b42:	7682                	flw	fa3,32(sp)
    3b44:	6772                	flw	fa4,28(sp)
    3b46:	67e2                	flw	fa5,24(sp)
    3b48:	6852                	flw	fa6,20(sp)
    3b4a:	68c2                	flw	fa7,16(sp)
    3b4c:	6e32                	flw	ft8,12(sp)
    3b4e:	6ea2                	flw	ft9,8(sp)
    3b50:	6f12                	flw	ft10,4(sp)
    3b52:	6f82                	flw	ft11,0(sp)
    3b54:	6125                	addi	sp,sp,96
    3b56:	30200073          	mret

00003b5a <NMI_Handler>:
    3b5a:	715d                	addi	sp,sp,-80
    3b5c:	e682                	fsw	ft0,76(sp)
    3b5e:	e486                	fsw	ft1,72(sp)
    3b60:	e28a                	fsw	ft2,68(sp)
    3b62:	e08e                	fsw	ft3,64(sp)
    3b64:	fe12                	fsw	ft4,60(sp)
    3b66:	fc16                	fsw	ft5,56(sp)
    3b68:	fa1a                	fsw	ft6,52(sp)
    3b6a:	f81e                	fsw	ft7,48(sp)
    3b6c:	f62a                	fsw	fa0,44(sp)
    3b6e:	f42e                	fsw	fa1,40(sp)
    3b70:	f232                	fsw	fa2,36(sp)
    3b72:	f036                	fsw	fa3,32(sp)
    3b74:	ee3a                	fsw	fa4,28(sp)
    3b76:	ec3e                	fsw	fa5,24(sp)
    3b78:	ea42                	fsw	fa6,20(sp)
    3b7a:	e846                	fsw	fa7,16(sp)
    3b7c:	e672                	fsw	ft8,12(sp)
    3b7e:	e476                	fsw	ft9,8(sp)
    3b80:	e27a                	fsw	ft10,4(sp)
    3b82:	e07e                	fsw	ft11,0(sp)
    3b84:	34011173          	csrrw	sp,mscratch,sp
    3b88:	e8ffc0ef          	jal	ra,a16 <rt_interrupt_enter>
    3b8c:	00009537          	lui	a0,0x9
    3b90:	35c50513          	addi	a0,a0,860 # 935c <ch32_uart_ops+0x20>
    3b94:	d3afd0ef          	jal	ra,10ce <rt_kprintf>
    3b98:	eabfc0ef          	jal	ra,a42 <rt_interrupt_leave>
    3b9c:	34011173          	csrrw	sp,mscratch,sp
    3ba0:	6036                	flw	ft0,76(sp)
    3ba2:	60a6                	flw	ft1,72(sp)
    3ba4:	6116                	flw	ft2,68(sp)
    3ba6:	6186                	flw	ft3,64(sp)
    3ba8:	7272                	flw	ft4,60(sp)
    3baa:	72e2                	flw	ft5,56(sp)
    3bac:	7352                	flw	ft6,52(sp)
    3bae:	73c2                	flw	ft7,48(sp)
    3bb0:	7532                	flw	fa0,44(sp)
    3bb2:	75a2                	flw	fa1,40(sp)
    3bb4:	7612                	flw	fa2,36(sp)
    3bb6:	7682                	flw	fa3,32(sp)
    3bb8:	6772                	flw	fa4,28(sp)
    3bba:	67e2                	flw	fa5,24(sp)
    3bbc:	6852                	flw	fa6,20(sp)
    3bbe:	68c2                	flw	fa7,16(sp)
    3bc0:	6e32                	flw	ft8,12(sp)
    3bc2:	6ea2                	flw	ft9,8(sp)
    3bc4:	6f12                	flw	ft10,4(sp)
    3bc6:	6f82                	flw	ft11,0(sp)
    3bc8:	6161                	addi	sp,sp,80
    3bca:	30200073          	mret

00003bce <HardFault_Handler>:
    3bce:	715d                	addi	sp,sp,-80
    3bd0:	e682                	fsw	ft0,76(sp)
    3bd2:	e486                	fsw	ft1,72(sp)
    3bd4:	e28a                	fsw	ft2,68(sp)
    3bd6:	e08e                	fsw	ft3,64(sp)
    3bd8:	fe12                	fsw	ft4,60(sp)
    3bda:	fc16                	fsw	ft5,56(sp)
    3bdc:	fa1a                	fsw	ft6,52(sp)
    3bde:	f81e                	fsw	ft7,48(sp)
    3be0:	f62a                	fsw	fa0,44(sp)
    3be2:	f42e                	fsw	fa1,40(sp)
    3be4:	f232                	fsw	fa2,36(sp)
    3be6:	f036                	fsw	fa3,32(sp)
    3be8:	ee3a                	fsw	fa4,28(sp)
    3bea:	ec3e                	fsw	fa5,24(sp)
    3bec:	ea42                	fsw	fa6,20(sp)
    3bee:	e846                	fsw	fa7,16(sp)
    3bf0:	e672                	fsw	ft8,12(sp)
    3bf2:	e476                	fsw	ft9,8(sp)
    3bf4:	e27a                	fsw	ft10,4(sp)
    3bf6:	e07e                	fsw	ft11,0(sp)
    3bf8:	34011173          	csrrw	sp,mscratch,sp
    3bfc:	e1bfc0ef          	jal	ra,a16 <rt_interrupt_enter>
    3c00:	00009537          	lui	a0,0x9
    3c04:	35050513          	addi	a0,a0,848 # 9350 <ch32_uart_ops+0x14>
    3c08:	cc6fd0ef          	jal	ra,10ce <rt_kprintf>
    3c0c:	e37fc0ef          	jal	ra,a42 <rt_interrupt_leave>
    3c10:	34011173          	csrrw	sp,mscratch,sp
    3c14:	6036                	flw	ft0,76(sp)
    3c16:	60a6                	flw	ft1,72(sp)
    3c18:	6116                	flw	ft2,68(sp)
    3c1a:	6186                	flw	ft3,64(sp)
    3c1c:	7272                	flw	ft4,60(sp)
    3c1e:	72e2                	flw	ft5,56(sp)
    3c20:	7352                	flw	ft6,52(sp)
    3c22:	73c2                	flw	ft7,48(sp)
    3c24:	7532                	flw	fa0,44(sp)
    3c26:	75a2                	flw	fa1,40(sp)
    3c28:	7612                	flw	fa2,36(sp)
    3c2a:	7682                	flw	fa3,32(sp)
    3c2c:	6772                	flw	fa4,28(sp)
    3c2e:	67e2                	flw	fa5,24(sp)
    3c30:	6852                	flw	fa6,20(sp)
    3c32:	68c2                	flw	fa7,16(sp)
    3c34:	6e32                	flw	ft8,12(sp)
    3c36:	6ea2                	flw	ft9,8(sp)
    3c38:	6f12                	flw	ft10,4(sp)
    3c3a:	6f82                	flw	ft11,0(sp)
    3c3c:	6161                	addi	sp,sp,80
    3c3e:	30200073          	mret

00003c42 <update_dac_buffer>:
    3c42:	881fc2ef          	jal	t0,4c2 <__riscv_save_10>
    3c46:	20002437          	lui	s0,0x20002
    3c4a:	7179                	addi	sp,sp,-48
    3c4c:	cfc40793          	addi	a5,s0,-772 # 20001cfc <osc>
    3c50:	f622                	fsw	fs0,44(sp)
    3c52:	f426                	fsw	fs1,40(sp)
    3c54:	ec56                	fsw	fs5,24(sp)
    3c56:	ea5a                	fsw	fs6,20(sp)
    3c58:	e85e                	fsw	fs7,16(sp)
    3c5a:	e662                	fsw	fs8,12(sp)
    3c5c:	0087ab07          	flw	fs6,8(a5)
    3c60:	0047ac07          	flw	fs8,4(a5)
    3c64:	6380                	flw	fs0,0(a5)
    3c66:	0187aa87          	flw	fs5,24(a5)
    3c6a:	0147ab87          	flw	fs7,20(a5)
    3c6e:	6b84                	flw	fs1,16(a5)
    3c70:	000097b7          	lui	a5,0x9
    3c74:	4107a903          	lw	s2,1040(a5) # 9410 <ch32_uart_ops+0xd4>
    3c78:	4147a983          	lw	s3,1044(a5)
    3c7c:	000097b7          	lui	a5,0x9
    3c80:	f24a                	fsw	fs2,36(sp)
    3c82:	4087a907          	flw	fs2,1032(a5) # 9408 <ch32_uart_ops+0xcc>
    3c86:	f04e                	fsw	fs3,32(sp)
    3c88:	ee52                	fsw	fs4,28(sp)
    3c8a:	84aa                	mv	s1,a0
    3c8c:	18050b13          	addi	s6,a0,384
    3c90:	cfc40413          	addi	s0,s0,-772
    3c94:	8a4a                	mv	s4,s2
    3c96:	8ace                	mv	s5,s3
    3c98:	20840553          	fmv.s	fa0,fs0
    3c9c:	01847453          	fadd.s	fs0,fs0,fs8
    3ca0:	424010ef          	jal	ra,50c4 <sinf>
    3ca4:	10ab79d3          	fmul.s	fs3,fs6,fa0
    3ca8:	20840553          	fmv.s	fa0,fs0
    3cac:	42d030ef          	jal	ra,78d8 <__extendsfdf2>
    3cb0:	864a                	mv	a2,s2
    3cb2:	86ce                	mv	a3,s3
    3cb4:	8c2a                	mv	s8,a0
    3cb6:	8cae                	mv	s9,a1
    3cb8:	1d3020ef          	jal	ra,668a <__gedf2>
    3cbc:	00a05c63          	blez	a0,3cd4 <update_dac_buffer+0x92>
    3cc0:	864a                	mv	a2,s2
    3cc2:	86ce                	mv	a3,s3
    3cc4:	8562                	mv	a0,s8
    3cc6:	85e6                	mv	a1,s9
    3cc8:	184030ef          	jal	ra,6e4c <__subdf3>
    3ccc:	4f5030ef          	jal	ra,79c0 <__truncdfsf2>
    3cd0:	20a50453          	fmv.s	fs0,fa0
    3cd4:	20948553          	fmv.s	fa0,fs1
    3cd8:	0174f4d3          	fadd.s	fs1,fs1,fs7
    3cdc:	3e8010ef          	jal	ra,50c4 <sinf>
    3ce0:	10aafa53          	fmul.s	fs4,fs5,fa0
    3ce4:	20948553          	fmv.s	fa0,fs1
    3ce8:	3f1030ef          	jal	ra,78d8 <__extendsfdf2>
    3cec:	8652                	mv	a2,s4
    3cee:	86d6                	mv	a3,s5
    3cf0:	8c2a                	mv	s8,a0
    3cf2:	8cae                	mv	s9,a1
    3cf4:	197020ef          	jal	ra,668a <__gedf2>
    3cf8:	00a05c63          	blez	a0,3d10 <update_dac_buffer+0xce>
    3cfc:	8652                	mv	a2,s4
    3cfe:	86d6                	mv	a3,s5
    3d00:	8562                	mv	a0,s8
    3d02:	85e6                	mv	a1,s9
    3d04:	148030ef          	jal	ra,6e4c <__subdf3>
    3d08:	4b9030ef          	jal	ra,79c0 <__truncdfsf2>
    3d0c:	20a504d3          	fmv.s	fs1,fa0
    3d10:	912a77c3          	fmadd.s	fa5,fs4,fs2,fs2
    3d14:	0491                	addi	s1,s1,4
    3d16:	c01797d3          	fcvt.wu.s	a5,fa5,rtz
    3d1a:	9129f7c3          	fmadd.s	fa5,fs3,fs2,fs2
    3d1e:	07c2                	slli	a5,a5,0x10
    3d20:	c0179753          	fcvt.wu.s	a4,fa5,rtz
    3d24:	0742                	slli	a4,a4,0x10
    3d26:	8341                	srli	a4,a4,0x10
    3d28:	8fd9                	or	a5,a5,a4
    3d2a:	fef4ae23          	sw	a5,-4(s1)
    3d2e:	f76495e3          	bne	s1,s6,3c98 <update_dac_buffer+0x56>
    3d32:	01442e27          	fsw	fs4,28(s0)
    3d36:	01342627          	fsw	fs3,12(s0)
    3d3a:	e804                	fsw	fs1,16(s0)
    3d3c:	e000                	fsw	fs0,0(s0)
    3d3e:	74a2                	flw	fs1,40(sp)
    3d40:	7432                	flw	fs0,44(sp)
    3d42:	7912                	flw	fs2,36(sp)
    3d44:	7982                	flw	fs3,32(sp)
    3d46:	6a72                	flw	fs4,28(sp)
    3d48:	6ae2                	flw	fs5,24(sp)
    3d4a:	6b52                	flw	fs6,20(sp)
    3d4c:	6bc2                	flw	fs7,16(sp)
    3d4e:	6c32                	flw	fs8,12(sp)
    3d50:	6145                	addi	sp,sp,48
    3d52:	fa8fc06f          	j	4fa <__riscv_restore_10>

00003d56 <DMA2_Channel3_IRQHandler>:
    3d56:	40011537          	lui	a0,0x40011
    3d5a:	711d                	addi	sp,sp,-96
    3d5c:	80050513          	addi	a0,a0,-2048 # 40010800 <_eusrstack+0x20000800>
    3d60:	4605                	li	a2,1
    3d62:	04000593          	li	a1,64
    3d66:	cea2                	sw	s0,92(sp)
    3d68:	e682                	fsw	ft0,76(sp)
    3d6a:	e486                	fsw	ft1,72(sp)
    3d6c:	e28a                	fsw	ft2,68(sp)
    3d6e:	e08e                	fsw	ft3,64(sp)
    3d70:	fe12                	fsw	ft4,60(sp)
    3d72:	fc16                	fsw	ft5,56(sp)
    3d74:	fa1a                	fsw	ft6,52(sp)
    3d76:	f81e                	fsw	ft7,48(sp)
    3d78:	f62a                	fsw	fa0,44(sp)
    3d7a:	f42e                	fsw	fa1,40(sp)
    3d7c:	f232                	fsw	fa2,36(sp)
    3d7e:	f036                	fsw	fa3,32(sp)
    3d80:	ee3a                	fsw	fa4,28(sp)
    3d82:	ec3e                	fsw	fa5,24(sp)
    3d84:	ea42                	fsw	fa6,20(sp)
    3d86:	e846                	fsw	fa7,16(sp)
    3d88:	e672                	fsw	ft8,12(sp)
    3d8a:	e476                	fsw	ft9,8(sp)
    3d8c:	e27a                	fsw	ft10,4(sp)
    3d8e:	e07e                	fsw	ft11,0(sp)
    3d90:	10000437          	lui	s0,0x10000
    3d94:	62f000ef          	jal	ra,4bc2 <GPIO_WriteBit>
    3d98:	20040513          	addi	a0,s0,512 # 10000200 <__rt_init_end+0xfff66a4>
    3d9c:	4b3000ef          	jal	ra,4a4e <DMA_GetITStatus>
    3da0:	c12d                	beqz	a0,3e02 <DMA2_Channel3_IRQHandler+0xac>
    3da2:	8b418793          	addi	a5,gp,-1868 # 20000204 <full_count>
    3da6:	4398                	lw	a4,0(a5)
    3da8:	20002537          	lui	a0,0x20002
    3dac:	b7c50513          	addi	a0,a0,-1156 # 20001b7c <dac_buffer+0x180>
    3db0:	0705                	addi	a4,a4,1
    3db2:	c398                	sw	a4,0(a5)
    3db4:	e8fff0ef          	jal	ra,3c42 <update_dac_buffer>
    3db8:	20040513          	addi	a0,s0,512
    3dbc:	49f000ef          	jal	ra,4a5a <DMA_ClearITPendingBit>
    3dc0:	40011537          	lui	a0,0x40011
    3dc4:	4601                	li	a2,0
    3dc6:	04000593          	li	a1,64
    3dca:	80050513          	addi	a0,a0,-2048 # 40010800 <_eusrstack+0x20000800>
    3dce:	5f5000ef          	jal	ra,4bc2 <GPIO_WriteBit>
    3dd2:	4476                	lw	s0,92(sp)
    3dd4:	6036                	flw	ft0,76(sp)
    3dd6:	60a6                	flw	ft1,72(sp)
    3dd8:	6116                	flw	ft2,68(sp)
    3dda:	6186                	flw	ft3,64(sp)
    3ddc:	7272                	flw	ft4,60(sp)
    3dde:	72e2                	flw	ft5,56(sp)
    3de0:	7352                	flw	ft6,52(sp)
    3de2:	73c2                	flw	ft7,48(sp)
    3de4:	7532                	flw	fa0,44(sp)
    3de6:	75a2                	flw	fa1,40(sp)
    3de8:	7612                	flw	fa2,36(sp)
    3dea:	7682                	flw	fa3,32(sp)
    3dec:	6772                	flw	fa4,28(sp)
    3dee:	67e2                	flw	fa5,24(sp)
    3df0:	6852                	flw	fa6,20(sp)
    3df2:	68c2                	flw	fa7,16(sp)
    3df4:	6e32                	flw	ft8,12(sp)
    3df6:	6ea2                	flw	ft9,8(sp)
    3df8:	6f12                	flw	ft10,4(sp)
    3dfa:	6f82                	flw	ft11,0(sp)
    3dfc:	6125                	addi	sp,sp,96
    3dfe:	30200073          	mret
    3e02:	40040513          	addi	a0,s0,1024
    3e06:	449000ef          	jal	ra,4a4e <DMA_GetITStatus>
    3e0a:	d95d                	beqz	a0,3dc0 <DMA2_Channel3_IRQHandler+0x6a>
    3e0c:	8b818793          	addi	a5,gp,-1864 # 20000208 <half_count>
    3e10:	4398                	lw	a4,0(a5)
    3e12:	20002537          	lui	a0,0x20002
    3e16:	9fc50513          	addi	a0,a0,-1540 # 200019fc <dac_buffer>
    3e1a:	0705                	addi	a4,a4,1
    3e1c:	c398                	sw	a4,0(a5)
    3e1e:	e25ff0ef          	jal	ra,3c42 <update_dac_buffer>
    3e22:	40040513          	addi	a0,s0,1024
    3e26:	bf59                	j	3dbc <DMA2_Channel3_IRQHandler+0x66>

00003e28 <DMA1_Channel1_IRQHandler>:
    3e28:	40011537          	lui	a0,0x40011
    3e2c:	715d                	addi	sp,sp,-80
    3e2e:	80050513          	addi	a0,a0,-2048 # 40010800 <_eusrstack+0x20000800>
    3e32:	4605                	li	a2,1
    3e34:	04000593          	li	a1,64
    3e38:	e682                	fsw	ft0,76(sp)
    3e3a:	e486                	fsw	ft1,72(sp)
    3e3c:	e28a                	fsw	ft2,68(sp)
    3e3e:	e08e                	fsw	ft3,64(sp)
    3e40:	fe12                	fsw	ft4,60(sp)
    3e42:	fc16                	fsw	ft5,56(sp)
    3e44:	fa1a                	fsw	ft6,52(sp)
    3e46:	f81e                	fsw	ft7,48(sp)
    3e48:	f62a                	fsw	fa0,44(sp)
    3e4a:	f42e                	fsw	fa1,40(sp)
    3e4c:	f232                	fsw	fa2,36(sp)
    3e4e:	f036                	fsw	fa3,32(sp)
    3e50:	ee3a                	fsw	fa4,28(sp)
    3e52:	ec3e                	fsw	fa5,24(sp)
    3e54:	ea42                	fsw	fa6,20(sp)
    3e56:	e846                	fsw	fa7,16(sp)
    3e58:	e672                	fsw	ft8,12(sp)
    3e5a:	e476                	fsw	ft9,8(sp)
    3e5c:	e27a                	fsw	ft10,4(sp)
    3e5e:	e07e                	fsw	ft11,0(sp)
    3e60:	563000ef          	jal	ra,4bc2 <GPIO_WriteBit>
    3e64:	8b018793          	addi	a5,gp,-1872 # 20000200 <adc_count>
    3e68:	4398                	lw	a4,0(a5)
    3e6a:	4509                	li	a0,2
    3e6c:	0705                	addi	a4,a4,1
    3e6e:	c398                	sw	a4,0(a5)
    3e70:	3df000ef          	jal	ra,4a4e <DMA_GetITStatus>
    3e74:	c521                	beqz	a0,3ebc <DMA1_Channel1_IRQHandler+0x94>
    3e76:	4509                	li	a0,2
    3e78:	3e3000ef          	jal	ra,4a5a <DMA_ClearITPendingBit>
    3e7c:	40011537          	lui	a0,0x40011
    3e80:	4601                	li	a2,0
    3e82:	04000593          	li	a1,64
    3e86:	80050513          	addi	a0,a0,-2048 # 40010800 <_eusrstack+0x20000800>
    3e8a:	539000ef          	jal	ra,4bc2 <GPIO_WriteBit>
    3e8e:	6036                	flw	ft0,76(sp)
    3e90:	60a6                	flw	ft1,72(sp)
    3e92:	6116                	flw	ft2,68(sp)
    3e94:	6186                	flw	ft3,64(sp)
    3e96:	7272                	flw	ft4,60(sp)
    3e98:	72e2                	flw	ft5,56(sp)
    3e9a:	7352                	flw	ft6,52(sp)
    3e9c:	73c2                	flw	ft7,48(sp)
    3e9e:	7532                	flw	fa0,44(sp)
    3ea0:	75a2                	flw	fa1,40(sp)
    3ea2:	7612                	flw	fa2,36(sp)
    3ea4:	7682                	flw	fa3,32(sp)
    3ea6:	6772                	flw	fa4,28(sp)
    3ea8:	67e2                	flw	fa5,24(sp)
    3eaa:	6852                	flw	fa6,20(sp)
    3eac:	68c2                	flw	fa7,16(sp)
    3eae:	6e32                	flw	ft8,12(sp)
    3eb0:	6ea2                	flw	ft9,8(sp)
    3eb2:	6f12                	flw	ft10,4(sp)
    3eb4:	6f82                	flw	ft11,0(sp)
    3eb6:	6161                	addi	sp,sp,80
    3eb8:	30200073          	mret
    3ebc:	4511                	li	a0,4
    3ebe:	391000ef          	jal	ra,4a4e <DMA_GetITStatus>
    3ec2:	dd4d                	beqz	a0,3e7c <DMA1_Channel1_IRQHandler+0x54>
    3ec4:	4511                	li	a0,4
    3ec6:	bf4d                	j	3e78 <DMA1_Channel1_IRQHandler+0x50>

00003ec8 <DMA_Interrupt_Init>:
    3ec8:	e22fc2ef          	jal	t0,4ea <__riscv_save_0>
    3ecc:	1141                	addi	sp,sp,-16
    3ece:	14a00793          	li	a5,330
    3ed2:	847c                	sh	a5,8(sp)
    3ed4:	0028                	addi	a0,sp,8
    3ed6:	4785                	li	a5,1
    3ed8:	c63e                	sw	a5,12(sp)
    3eda:	00011523          	sh	zero,10(sp)
    3ede:	51b000ef          	jal	ra,4bf8 <NVIC_Init>
    3ee2:	47ed                	li	a5,27
    3ee4:	0028                	addi	a0,sp,8
    3ee6:	845c                	sb	a5,8(sp)
    3ee8:	511000ef          	jal	ra,4bf8 <NVIC_Init>
    3eec:	0141                	addi	sp,sp,16
    3eee:	e20fc06f          	j	50e <__riscv_restore_0>

00003ef2 <DACs_Init>:
    3ef2:	df8fc2ef          	jal	t0,4ea <__riscv_save_0>
    3ef6:	1101                	addi	sp,sp,-32
    3ef8:	4585                	li	a1,1
    3efa:	4511                	li	a0,4
    3efc:	c202                	sw	zero,4(sp)
    3efe:	c402                	sw	zero,8(sp)
    3f00:	c602                	sw	zero,12(sp)
    3f02:	c802                	sw	zero,16(sp)
    3f04:	ca02                	sw	zero,20(sp)
    3f06:	cc02                	sw	zero,24(sp)
    3f08:	ce02                	sw	zero,28(sp)
    3f0a:	6b9000ef          	jal	ra,4dc2 <RCC_APB2PeriphClockCmd>
    3f0e:	4585                	li	a1,1
    3f10:	20000537          	lui	a0,0x20000
    3f14:	6cd000ef          	jal	ra,4de0 <RCC_APB1PeriphClockCmd>
    3f18:	40011437          	lui	s0,0x40011
    3f1c:	03000793          	li	a5,48
    3f20:	827c                	sh	a5,4(sp)
    3f22:	004c                	addi	a1,sp,4
    3f24:	478d                	li	a5,3
    3f26:	80040513          	addi	a0,s0,-2048 # 40010800 <_eusrstack+0x20000800>
    3f2a:	c43e                	sw	a5,8(sp)
    3f2c:	c602                	sw	zero,12(sp)
    3f2e:	3cb000ef          	jal	ra,4af8 <GPIO_Init>
    3f32:	04000793          	li	a5,64
    3f36:	827c                	sh	a5,4(sp)
    3f38:	004c                	addi	a1,sp,4
    3f3a:	47c1                	li	a5,16
    3f3c:	80040513          	addi	a0,s0,-2048
    3f40:	c63e                	sw	a5,12(sp)
    3f42:	3b7000ef          	jal	ra,4af8 <GPIO_Init>
    3f46:	47b1                	li	a5,12
    3f48:	080c                	addi	a1,sp,16
    3f4a:	4501                	li	a0,0
    3f4c:	c83e                	sw	a5,16(sp)
    3f4e:	ca02                	sw	zero,20(sp)
    3f50:	cc02                	sw	zero,24(sp)
    3f52:	ce02                	sw	zero,28(sp)
    3f54:	001000ef          	jal	ra,4754 <DAC_Init>
    3f58:	080c                	addi	a1,sp,16
    3f5a:	4541                	li	a0,16
    3f5c:	7f8000ef          	jal	ra,4754 <DAC_Init>
    3f60:	4585                	li	a1,1
    3f62:	4501                	li	a0,0
    3f64:	021000ef          	jal	ra,4784 <DAC_Cmd>
    3f68:	4585                	li	a1,1
    3f6a:	4541                	li	a0,16
    3f6c:	019000ef          	jal	ra,4784 <DAC_Cmd>
    3f70:	4585                	li	a1,1
    3f72:	4501                	li	a0,0
    3f74:	03d000ef          	jal	ra,47b0 <DAC_DMACmd>
    3f78:	4585                	li	a1,1
    3f7a:	4541                	li	a0,16
    3f7c:	035000ef          	jal	ra,47b0 <DAC_DMACmd>
    3f80:	32100613          	li	a2,801
    3f84:	12300593          	li	a1,291
    3f88:	4501                	li	a0,0
    3f8a:	053000ef          	jal	ra,47dc <DAC_SetDualChannelData>
    3f8e:	6105                	addi	sp,sp,32
    3f90:	d7efc06f          	j	50e <__riscv_restore_0>

00003f94 <DAC_DMA_Init>:
    3f94:	d56fc2ef          	jal	t0,4ea <__riscv_save_0>
    3f98:	7179                	addi	sp,sp,-48
    3f9a:	02c00613          	li	a2,44
    3f9e:	4581                	li	a1,0
    3fa0:	0048                	addi	a0,sp,4
    3fa2:	d78fc0ef          	jal	ra,51a <memset>
    3fa6:	4585                	li	a1,1
    3fa8:	4509                	li	a0,2
    3faa:	5fb000ef          	jal	ra,4da4 <RCC_AHBPeriphClockCmd>
    3fae:	0048                	addi	a0,sp,4
    3fb0:	1ed000ef          	jal	ra,499c <DMA_StructInit>
    3fb4:	400077b7          	lui	a5,0x40007
    3fb8:	42078793          	addi	a5,a5,1056 # 40007420 <_eusrstack+0x1fff7420>
    3fbc:	c23e                	sw	a5,4(sp)
    3fbe:	200027b7          	lui	a5,0x20002
    3fc2:	9fc78793          	addi	a5,a5,-1540 # 200019fc <dac_buffer>
    3fc6:	c43e                	sw	a5,8(sp)
    3fc8:	47c1                	li	a5,16
    3fca:	c63e                	sw	a5,12(sp)
    3fcc:	0c000793          	li	a5,192
    3fd0:	c83e                	sw	a5,16(sp)
    3fd2:	08000793          	li	a5,128
    3fd6:	cc3e                	sw	a5,24(sp)
    3fd8:	20000793          	li	a5,512
    3fdc:	ce3e                	sw	a5,28(sp)
    3fde:	6785                	lui	a5,0x1
    3fe0:	80078793          	addi	a5,a5,-2048 # 800 <__stack_size>
    3fe4:	40020437          	lui	s0,0x40020
    3fe8:	d03e                	sw	a5,32(sp)
    3fea:	02000793          	li	a5,32
    3fee:	d23e                	sw	a5,36(sp)
    3ff0:	004c                	addi	a1,sp,4
    3ff2:	678d                	lui	a5,0x3
    3ff4:	43040513          	addi	a0,s0,1072 # 40020430 <_eusrstack+0x20010430>
    3ff8:	d43e                	sw	a5,40(sp)
    3ffa:	ca02                	sw	zero,20(sp)
    3ffc:	d602                	sw	zero,44(sp)
    3ffe:	167000ef          	jal	ra,4964 <DMA_Init>
    4002:	43040513          	addi	a0,s0,1072
    4006:	4605                	li	a2,1
    4008:	4589                	li	a1,2
    400a:	1d5000ef          	jal	ra,49de <DMA_ITConfig>
    400e:	4605                	li	a2,1
    4010:	43040513          	addi	a0,s0,1072
    4014:	4591                	li	a1,4
    4016:	1c9000ef          	jal	ra,49de <DMA_ITConfig>
    401a:	4585                	li	a1,1
    401c:	43040513          	addi	a0,s0,1072
    4020:	1ab000ef          	jal	ra,49ca <DMA_Cmd>
    4024:	6145                	addi	sp,sp,48
    4026:	ce8fc06f          	j	50e <__riscv_restore_0>

0000402a <ADCs_Init>:
    402a:	cc0fc2ef          	jal	t0,4ea <__riscv_save_0>
    402e:	7179                	addi	sp,sp,-48
    4030:	02000613          	li	a2,32
    4034:	4581                	li	a1,0
    4036:	0808                	addi	a0,sp,16
    4038:	c202                	sw	zero,4(sp)
    403a:	c402                	sw	zero,8(sp)
    403c:	c602                	sw	zero,12(sp)
    403e:	cdcfc0ef          	jal	ra,51a <memset>
    4042:	4585                	li	a1,1
    4044:	4511                	li	a0,4
    4046:	57d000ef          	jal	ra,4dc2 <RCC_APB2PeriphClockCmd>
    404a:	4585                	li	a1,1
    404c:	4521                	li	a0,8
    404e:	575000ef          	jal	ra,4dc2 <RCC_APB2PeriphClockCmd>
    4052:	4585                	li	a1,1
    4054:	4541                	li	a0,16
    4056:	56d000ef          	jal	ra,4dc2 <RCC_APB2PeriphClockCmd>
    405a:	4585                	li	a1,1
    405c:	20000513          	li	a0,512
    4060:	563000ef          	jal	ra,4dc2 <RCC_APB2PeriphClockCmd>
    4064:	4585                	li	a1,1
    4066:	40000513          	li	a0,1024
    406a:	559000ef          	jal	ra,4dc2 <RCC_APB2PeriphClockCmd>
    406e:	440d                	li	s0,3
    4070:	03000793          	li	a5,48
    4074:	004c                	addi	a1,sp,4
    4076:	40011537          	lui	a0,0x40011
    407a:	827c                	sh	a5,4(sp)
    407c:	c422                	sw	s0,8(sp)
    407e:	400114b7          	lui	s1,0x40011
    4082:	c602                	sw	zero,12(sp)
    4084:	275000ef          	jal	ra,4af8 <GPIO_Init>
    4088:	47b1                	li	a5,12
    408a:	004c                	addi	a1,sp,4
    408c:	c0048513          	addi	a0,s1,-1024 # 40010c00 <_eusrstack+0x20000c00>
    4090:	827c                	sh	a5,4(sp)
    4092:	c422                	sw	s0,8(sp)
    4094:	c602                	sw	zero,12(sp)
    4096:	263000ef          	jal	ra,4af8 <GPIO_Init>
    409a:	47bd                	li	a5,15
    409c:	004c                	addi	a1,sp,4
    409e:	80048513          	addi	a0,s1,-2048
    40a2:	827c                	sh	a5,4(sp)
    40a4:	c422                	sw	s0,8(sp)
    40a6:	c602                	sw	zero,12(sp)
    40a8:	251000ef          	jal	ra,4af8 <GPIO_Init>
    40ac:	4785                	li	a5,1
    40ae:	40012437          	lui	s0,0x40012
    40b2:	ca3e                	sw	a5,20(sp)
    40b4:	02f10223          	sb	a5,36(sp)
    40b8:	040007b7          	lui	a5,0x4000
    40bc:	d43e                	sw	a5,40(sp)
    40be:	080c                	addi	a1,sp,16
    40c0:	000807b7          	lui	a5,0x80
    40c4:	40040513          	addi	a0,s0,1024 # 40012400 <_eusrstack+0x20002400>
    40c8:	ce3e                	sw	a5,28(sp)
    40ca:	c802                	sw	zero,16(sp)
    40cc:	cc02                	sw	zero,24(sp)
    40ce:	d002                	sw	zero,32(sp)
    40d0:	2b35                	jal	460c <ADC_Init>
    40d2:	40040513          	addi	a0,s0,1024
    40d6:	4585                	li	a1,1
    40d8:	2595                	jal	473c <ADC_ExternalTrigConvCmd>
    40da:	40040513          	addi	a0,s0,1024
    40de:	4685                	li	a3,1
    40e0:	4605                	li	a2,1
    40e2:	4585                	li	a1,1
    40e4:	2345                	jal	4684 <ADC_RegularChannelConfig>
    40e6:	4685                	li	a3,1
    40e8:	4609                	li	a2,2
    40ea:	40040513          	addi	a0,s0,1024
    40ee:	45c1                	li	a1,16
    40f0:	2b51                	jal	4684 <ADC_RegularChannelConfig>
    40f2:	40040513          	addi	a0,s0,1024
    40f6:	4585                	li	a1,1
    40f8:	2bad                	jal	4672 <ADC_DMACmd>
    40fa:	4585                	li	a1,1
    40fc:	40040513          	addi	a0,s0,1024
    4100:	238d                	jal	4662 <ADC_Cmd>
    4102:	6145                	addi	sp,sp,48
    4104:	c0afc06f          	j	50e <__riscv_restore_0>

00004108 <ADC_DMA_Init>:
    4108:	be2fc2ef          	jal	t0,4ea <__riscv_save_0>
    410c:	7179                	addi	sp,sp,-48
    410e:	02c00613          	li	a2,44
    4112:	4581                	li	a1,0
    4114:	0048                	addi	a0,sp,4
    4116:	c04fc0ef          	jal	ra,51a <memset>
    411a:	4585                	li	a1,1
    411c:	4505                	li	a0,1
    411e:	487000ef          	jal	ra,4da4 <RCC_AHBPeriphClockCmd>
    4122:	40020437          	lui	s0,0x40020
    4126:	00840513          	addi	a0,s0,8 # 40020008 <_eusrstack+0x20010008>
    412a:	25f9                	jal	47f8 <DMA_DeInit>
    412c:	400127b7          	lui	a5,0x40012
    4130:	44c78793          	addi	a5,a5,1100 # 4001244c <_eusrstack+0x2000244c>
    4134:	c23e                	sw	a5,4(sp)
    4136:	200017b7          	lui	a5,0x20001
    413a:	6fc78793          	addi	a5,a5,1788 # 200016fc <adc_buffer>
    413e:	c43e                	sw	a5,8(sp)
    4140:	0c000793          	li	a5,192
    4144:	c83e                	sw	a5,16(sp)
    4146:	08000793          	li	a5,128
    414a:	cc3e                	sw	a5,24(sp)
    414c:	10000793          	li	a5,256
    4150:	ce3e                	sw	a5,28(sp)
    4152:	40000793          	li	a5,1024
    4156:	d03e                	sw	a5,32(sp)
    4158:	02000793          	li	a5,32
    415c:	d23e                	sw	a5,36(sp)
    415e:	004c                	addi	a1,sp,4
    4160:	678d                	lui	a5,0x3
    4162:	00840513          	addi	a0,s0,8
    4166:	d43e                	sw	a5,40(sp)
    4168:	c602                	sw	zero,12(sp)
    416a:	ca02                	sw	zero,20(sp)
    416c:	d602                	sw	zero,44(sp)
    416e:	7f6000ef          	jal	ra,4964 <DMA_Init>
    4172:	6145                	addi	sp,sp,48
    4174:	b9afc06f          	j	50e <__riscv_restore_0>

00004178 <Timer_Init>:
    4178:	b72fc2ef          	jal	t0,4ea <__riscv_save_0>
    417c:	1141                	addi	sp,sp,-16
    417e:	4585                	li	a1,1
    4180:	6509                	lui	a0,0x2
    4182:	c202                	sw	zero,4(sp)
    4184:	c402                	sw	zero,8(sp)
    4186:	00011623          	sh	zero,12(sp)
    418a:	439000ef          	jal	ra,4dc2 <RCC_APB2PeriphClockCmd>
    418e:	0048                	addi	a0,sp,4
    4190:	519000ef          	jal	ra,4ea8 <TIM_TimeBaseStructInit>
    4194:	40013437          	lui	s0,0x40013
    4198:	5db00793          	li	a5,1499
    419c:	004c                	addi	a1,sp,4
    419e:	40040513          	addi	a0,s0,1024 # 40013400 <_eusrstack+0x20003400>
    41a2:	c43e                	sw	a5,8(sp)
    41a4:	c202                	sw	zero,4(sp)
    41a6:	459000ef          	jal	ra,4dfe <TIM_TimeBaseInit>
    41aa:	40040513          	addi	a0,s0,1024
    41ae:	02000593          	li	a1,32
    41b2:	525000ef          	jal	ra,4ed6 <TIM_SelectOutputTrigger>
    41b6:	40040513          	addi	a0,s0,1024
    41ba:	4585                	li	a1,1
    41bc:	503000ef          	jal	ra,4ebe <TIM_Cmd>
    41c0:	4585                	li	a1,1
    41c2:	4509                	li	a0,2
    41c4:	41d000ef          	jal	ra,4de0 <RCC_APB1PeriphClockCmd>
    41c8:	0048                	addi	a0,sp,4
    41ca:	4df000ef          	jal	ra,4ea8 <TIM_TimeBaseStructInit>
    41ce:	40000437          	lui	s0,0x40000
    41d2:	004c                	addi	a1,sp,4
    41d4:	40040513          	addi	a0,s0,1024 # 40000400 <_eusrstack+0x1fff0400>
    41d8:	427000ef          	jal	ra,4dfe <TIM_TimeBaseInit>
    41dc:	40040513          	addi	a0,s0,1024
    41e0:	02000593          	li	a1,32
    41e4:	4f3000ef          	jal	ra,4ed6 <TIM_SelectOutputTrigger>
    41e8:	4585                	li	a1,1
    41ea:	40040513          	addi	a0,s0,1024
    41ee:	4d1000ef          	jal	ra,4ebe <TIM_Cmd>
    41f2:	0141                	addi	sp,sp,16
    41f4:	b1afc06f          	j	50e <__riscv_restore_0>

000041f8 <set_freq>:
    41f8:	af2fc2ef          	jal	t0,4ea <__riscv_save_0>
    41fc:	00a57553          	fadd.s	fa0,fa0,fa0
    4200:	842a                	mv	s0,a0
    4202:	6d6030ef          	jal	ra,78d8 <__extendsfdf2>
    4206:	000097b7          	lui	a5,0x9
    420a:	3f87a603          	lw	a2,1016(a5) # 93f8 <ch32_uart_ops+0xbc>
    420e:	3fc7a683          	lw	a3,1020(a5)
    4212:	5e4020ef          	jal	ra,67f6 <__muldf3>
    4216:	000097b7          	lui	a5,0x9
    421a:	4007a603          	lw	a2,1024(a5) # 9400 <ch32_uart_ops+0xc4>
    421e:	4047a683          	lw	a3,1028(a5)
    4222:	47f010ef          	jal	ra,5ea0 <__divdf3>
    4226:	79a030ef          	jal	ra,79c0 <__truncdfsf2>
    422a:	e048                	fsw	fa0,4(s0)
    422c:	ae2fc06f          	j	50e <__riscv_restore_0>

00004230 <main>:
    4230:	200007b7          	lui	a5,0x20000
    4234:	1507a583          	lw	a1,336(a5) # 20000150 <SystemCoreClock>
    4238:	00009537          	lui	a0,0x9
    423c:	711d                	addi	sp,sp,-96
    423e:	3a050513          	addi	a0,a0,928 # 93a0 <ch32_uart_ops+0x64>
    4242:	ce86                	sw	ra,92(sp)
    4244:	cca2                	sw	s0,88(sp)
    4246:	caa6                	sw	s1,84(sp)
    4248:	c8ca                	sw	s2,80(sp)
    424a:	c6ce                	sw	s3,76(sp)
    424c:	c2da                	sw	s6,68(sp)
    424e:	c0de                	sw	s7,64(sp)
    4250:	de62                	sw	s8,60(sp)
    4252:	da6a                	sw	s10,52(sp)
    4254:	d86e                	sw	s11,48(sp)
    4256:	f622                	fsw	fs0,44(sp)
    4258:	f426                	fsw	fs1,40(sp)
    425a:	f24a                	fsw	fs2,36(sp)
    425c:	f04e                	fsw	fs3,32(sp)
    425e:	ee52                	fsw	fs4,28(sp)
    4260:	ec56                	fsw	fs5,24(sp)
    4262:	c4d2                	sw	s4,72(sp)
    4264:	dc66                	sw	s9,56(sp)
    4266:	e69fc0ef          	jal	ra,10ce <rt_kprintf>
    426a:	00009537          	lui	a0,0x9
    426e:	3b050513          	addi	a0,a0,944 # 93b0 <ch32_uart_ops+0x74>
    4272:	e5dfc0ef          	jal	ra,10ce <rt_kprintf>
    4276:	00009737          	lui	a4,0x9
    427a:	38072787          	flw	fa5,896(a4) # 9380 <ch32_uart_ops+0x44>
    427e:	20002437          	lui	s0,0x20002
    4282:	00009737          	lui	a4,0x9
    4286:	cfc40793          	addi	a5,s0,-772 # 20001cfc <osc>
    428a:	38472707          	flw	fa4,900(a4) # 9384 <ch32_uart_ops+0x48>
    428e:	00009737          	lui	a4,0x9
    4292:	e3dc                	fsw	fa5,4(a5)
    4294:	ebdc                	fsw	fa5,20(a5)
    4296:	38872787          	flw	fa5,904(a4) # 9388 <ch32_uart_ops+0x4c>
    429a:	e798                	fsw	fa4,8(a5)
    429c:	000094b7          	lui	s1,0x9
    42a0:	ef9c                	fsw	fa5,24(a5)
    42a2:	c27ff0ef          	jal	ra,3ec8 <DMA_Interrupt_Init>
    42a6:	c4dff0ef          	jal	ra,3ef2 <DACs_Init>
    42aa:	cebff0ef          	jal	ra,3f94 <DAC_DMA_Init>
    42ae:	d7dff0ef          	jal	ra,402a <ADCs_Init>
    42b2:	e57ff0ef          	jal	ra,4108 <ADC_DMA_Init>
    42b6:	ec3ff0ef          	jal	ra,4178 <Timer_Init>
    42ba:	000097b7          	lui	a5,0x9
    42be:	3947a803          	lw	a6,916(a5) # 9394 <ch32_uart_ops+0x58>
    42c2:	3907a783          	lw	a5,912(a5)
    42c6:	00009937          	lui	s2,0x9
    42ca:	000099b7          	lui	s3,0x9
    42ce:	c43e                	sw	a5,8(sp)
    42d0:	000097b7          	lui	a5,0x9
    42d4:	3987ab03          	lw	s6,920(a5) # 9398 <ch32_uart_ops+0x5c>
    42d8:	39c7ab83          	lw	s7,924(a5)
    42dc:	000097b7          	lui	a5,0x9
    42e0:	3787aa07          	flw	fs4,888(a5) # 9378 <ch32_uart_ops+0x3c>
    42e4:	000097b7          	lui	a5,0x9
    42e8:	36c4a407          	flw	fs0,876(s1) # 936c <ch32_uart_ops+0x30>
    42ec:	37092987          	flw	fs3,880(s2) # 9370 <ch32_uart_ops+0x34>
    42f0:	3749a907          	flw	fs2,884(s3) # 9374 <ch32_uart_ops+0x38>
    42f4:	f00004d3          	fmv.w.x	fs1,zero
    42f8:	38c7aa87          	flw	fs5,908(a5) # 938c <ch32_uart_ops+0x50>
    42fc:	4d01                	li	s10,0
    42fe:	4c01                	li	s8,0
    4300:	4d81                	li	s11,0
    4302:	c642                	sw	a6,12(sp)
    4304:	abefc0ef          	jal	ra,5c2 <rt_tick_get>
    4308:	418506b3          	sub	a3,a0,s8
    430c:	474d                	li	a4,19
    430e:	8a2a                	mv	s4,a0
    4310:	04d77263          	bgeu	a4,a3,4354 <main+0x124>
    4314:	200027b7          	lui	a5,0x20002
    4318:	cfc78793          	addi	a5,a5,-772 # 20001cfc <osc>
    431c:	ef84                	fsw	fs1,24(a5)
    431e:	0124f4d3          	fadd.s	fs1,fs1,fs2
    4322:	20948553          	fmv.s	fa0,fs1
    4326:	5b2030ef          	jal	ra,78d8 <__extendsfdf2>
    432a:	4622                	lw	a2,8(sp)
    432c:	46b2                	lw	a3,12(sp)
    432e:	8c2a                	mv	s8,a0
    4330:	8cae                	mv	s9,a1
    4332:	40e020ef          	jal	ra,6740 <__ledf2>
    4336:	00055463          	bgez	a0,433e <main+0x10e>
    433a:	3749a907          	flw	fs2,884(s3)
    433e:	8562                	mv	a0,s8
    4340:	865a                	mv	a2,s6
    4342:	86de                	mv	a3,s7
    4344:	85e6                	mv	a1,s9
    4346:	344020ef          	jal	ra,668a <__gedf2>
    434a:	8c52                	mv	s8,s4
    434c:	00a05463          	blez	a0,4354 <main+0x124>
    4350:	214a0953          	fmv.s	fs2,fs4
    4354:	41aa0733          	sub	a4,s4,s10
    4358:	06300693          	li	a3,99
    435c:	02e6f963          	bgeu	a3,a4,438e <main+0x15e>
    4360:	20840553          	fmv.s	fa0,fs0
    4364:	cfc40513          	addi	a0,s0,-772
    4368:	e91ff0ef          	jal	ra,41f8 <set_freq>
    436c:	01347453          	fadd.s	fs0,fs0,fs3
    4370:	a08a8753          	fle.s	a4,fs5,fs0
    4374:	c709                	beqz	a4,437e <main+0x14e>
    4376:	00009737          	lui	a4,0x9
    437a:	37c72987          	flw	fs3,892(a4) # 937c <ch32_uart_ops+0x40>
    437e:	36c4a787          	flw	fa5,876(s1)
    4382:	8d52                	mv	s10,s4
    4384:	a0f40753          	fle.s	a4,fs0,fa5
    4388:	c319                	beqz	a4,438e <main+0x15e>
    438a:	37092987          	flw	fs3,880(s2)
    438e:	41ba0733          	sub	a4,s4,s11
    4392:	3e700693          	li	a3,999
    4396:	02e6f363          	bgeu	a3,a4,43bc <main+0x18c>
    439a:	3e800593          	li	a1,1000
    439e:	02ba55b3          	divu	a1,s4,a1
    43a2:	8b01a703          	lw	a4,-1872(gp) # 20000200 <adc_count>
    43a6:	8b81a683          	lw	a3,-1864(gp) # 20000208 <half_count>
    43aa:	8b41a603          	lw	a2,-1868(gp) # 20000204 <full_count>
    43ae:	00009537          	lui	a0,0x9
    43b2:	3cc50513          	addi	a0,a0,972 # 93cc <ch32_uart_ops+0x90>
    43b6:	8dd2                	mv	s11,s4
    43b8:	d17fc0ef          	jal	ra,10ce <rt_kprintf>
    43bc:	4515                	li	a0,5
    43be:	e34fd0ef          	jal	ra,19f2 <rt_thread_delay>
    43c2:	b789                	j	4304 <main+0xd4>

000043c4 <SystemInit>:
    43c4:	400217b7          	lui	a5,0x40021
    43c8:	4398                	lw	a4,0(a5)
    43ca:	f8ff06b7          	lui	a3,0xf8ff0
    43ce:	1141                	addi	sp,sp,-16
    43d0:	00176713          	ori	a4,a4,1
    43d4:	c398                	sw	a4,0(a5)
    43d6:	43d8                	lw	a4,4(a5)
    43d8:	00020637          	lui	a2,0x20
    43dc:	8f75                	and	a4,a4,a3
    43de:	c3d8                	sw	a4,4(a5)
    43e0:	4398                	lw	a4,0(a5)
    43e2:	fef706b7          	lui	a3,0xfef70
    43e6:	16fd                	addi	a3,a3,-1
    43e8:	8f75                	and	a4,a4,a3
    43ea:	c398                	sw	a4,0(a5)
    43ec:	4398                	lw	a4,0(a5)
    43ee:	fffc06b7          	lui	a3,0xfffc0
    43f2:	16fd                	addi	a3,a3,-1
    43f4:	8f75                	and	a4,a4,a3
    43f6:	c398                	sw	a4,0(a5)
    43f8:	43d8                	lw	a4,4(a5)
    43fa:	ff8106b7          	lui	a3,0xff810
    43fe:	16fd                	addi	a3,a3,-1
    4400:	8f75                	and	a4,a4,a3
    4402:	c3d8                	sw	a4,4(a5)
    4404:	4398                	lw	a4,0(a5)
    4406:	ec0006b7          	lui	a3,0xec000
    440a:	16fd                	addi	a3,a3,-1
    440c:	8f75                	and	a4,a4,a3
    440e:	c398                	sw	a4,0(a5)
    4410:	00ff0737          	lui	a4,0xff0
    4414:	c798                	sw	a4,8(a5)
    4416:	0207a623          	sw	zero,44(a5) # 4002102c <_eusrstack+0x2001102c>
    441a:	c402                	sw	zero,8(sp)
    441c:	c602                	sw	zero,12(sp)
    441e:	4398                	lw	a4,0(a5)
    4420:	66c1                	lui	a3,0x10
    4422:	8f55                	or	a4,a4,a3
    4424:	c398                	sw	a4,0(a5)
    4426:	400216b7          	lui	a3,0x40021
    442a:	6705                	lui	a4,0x1
    442c:	429c                	lw	a5,0(a3)
    442e:	8ff1                	and	a5,a5,a2
    4430:	c63e                	sw	a5,12(sp)
    4432:	47a2                	lw	a5,8(sp)
    4434:	0785                	addi	a5,a5,1
    4436:	c43e                	sw	a5,8(sp)
    4438:	47b2                	lw	a5,12(sp)
    443a:	e781                	bnez	a5,4442 <SystemInit+0x7e>
    443c:	47a2                	lw	a5,8(sp)
    443e:	fee797e3          	bne	a5,a4,442c <SystemInit+0x68>
    4442:	400217b7          	lui	a5,0x40021
    4446:	439c                	lw	a5,0(a5)
    4448:	00e79713          	slli	a4,a5,0xe
    444c:	06075663          	bgez	a4,44b8 <SystemInit+0xf4>
    4450:	4785                	li	a5,1
    4452:	c63e                	sw	a5,12(sp)
    4454:	4732                	lw	a4,12(sp)
    4456:	4785                	li	a5,1
    4458:	04f71e63          	bne	a4,a5,44b4 <SystemInit+0xf0>
    445c:	400217b7          	lui	a5,0x40021
    4460:	43d8                	lw	a4,4(a5)
    4462:	ffc106b7          	lui	a3,0xffc10
    4466:	16fd                	addi	a3,a3,-1
    4468:	c3d8                	sw	a4,4(a5)
    446a:	43d8                	lw	a4,4(a5)
    446c:	c3d8                	sw	a4,4(a5)
    446e:	43d8                	lw	a4,4(a5)
    4470:	40076713          	ori	a4,a4,1024
    4474:	c3d8                	sw	a4,4(a5)
    4476:	43d8                	lw	a4,4(a5)
    4478:	8f75                	and	a4,a4,a3
    447a:	c3d8                	sw	a4,4(a5)
    447c:	43d8                	lw	a4,4(a5)
    447e:	66c1                	lui	a3,0x10
    4480:	8f55                	or	a4,a4,a3
    4482:	c3d8                	sw	a4,4(a5)
    4484:	4398                	lw	a4,0(a5)
    4486:	010006b7          	lui	a3,0x1000
    448a:	8f55                	or	a4,a4,a3
    448c:	c398                	sw	a4,0(a5)
    448e:	4398                	lw	a4,0(a5)
    4490:	00671693          	slli	a3,a4,0x6
    4494:	fe06dde3          	bgez	a3,448e <SystemInit+0xca>
    4498:	43d8                	lw	a4,4(a5)
    449a:	400216b7          	lui	a3,0x40021
    449e:	9b71                	andi	a4,a4,-4
    44a0:	c3d8                	sw	a4,4(a5)
    44a2:	43d8                	lw	a4,4(a5)
    44a4:	00276713          	ori	a4,a4,2
    44a8:	c3d8                	sw	a4,4(a5)
    44aa:	4721                	li	a4,8
    44ac:	42dc                	lw	a5,4(a3)
    44ae:	8bb1                	andi	a5,a5,12
    44b0:	fee79ee3          	bne	a5,a4,44ac <SystemInit+0xe8>
    44b4:	0141                	addi	sp,sp,16
    44b6:	8082                	ret
    44b8:	c602                	sw	zero,12(sp)
    44ba:	bf69                	j	4454 <SystemInit+0x90>
    44bc:	a001                	j	44bc <SystemInit+0xf8>
    44be:	a001                	j	44be <SystemInit+0xfa>

000044c0 <Ecall_M_Mode_Handler>:
    44c0:	a001                	j	44c0 <Ecall_M_Mode_Handler>

000044c2 <Ecall_U_Mode_Handler>:
    44c2:	a001                	j	44c2 <Ecall_U_Mode_Handler>

000044c4 <Break_Point_Handler>:
    44c4:	a001                	j	44c4 <Break_Point_Handler>
    44c6:	a001                	j	44c6 <Break_Point_Handler+0x2>
    44c8:	a001                	j	44c8 <Break_Point_Handler+0x4>

000044ca <WWDG_IRQHandler>:
    44ca:	a001                	j	44ca <WWDG_IRQHandler>

000044cc <PVD_IRQHandler>:
    44cc:	a001                	j	44cc <PVD_IRQHandler>

000044ce <TAMPER_IRQHandler>:
    44ce:	a001                	j	44ce <TAMPER_IRQHandler>

000044d0 <RTC_IRQHandler>:
    44d0:	a001                	j	44d0 <RTC_IRQHandler>

000044d2 <FLASH_IRQHandler>:
    44d2:	a001                	j	44d2 <FLASH_IRQHandler>

000044d4 <RCC_IRQHandler>:
    44d4:	a001                	j	44d4 <RCC_IRQHandler>
    44d6:	a001                	j	44d6 <RCC_IRQHandler+0x2>
    44d8:	a001                	j	44d8 <RCC_IRQHandler+0x4>
    44da:	a001                	j	44da <RCC_IRQHandler+0x6>
    44dc:	a001                	j	44dc <RCC_IRQHandler+0x8>
    44de:	a001                	j	44de <RCC_IRQHandler+0xa>
    44e0:	a001                	j	44e0 <RCC_IRQHandler+0xc>

000044e2 <DMA1_Channel2_IRQHandler>:
    44e2:	a001                	j	44e2 <DMA1_Channel2_IRQHandler>

000044e4 <DMA1_Channel3_IRQHandler>:
    44e4:	a001                	j	44e4 <DMA1_Channel3_IRQHandler>

000044e6 <DMA1_Channel4_IRQHandler>:
    44e6:	a001                	j	44e6 <DMA1_Channel4_IRQHandler>

000044e8 <DMA1_Channel5_IRQHandler>:
    44e8:	a001                	j	44e8 <DMA1_Channel5_IRQHandler>

000044ea <DMA1_Channel6_IRQHandler>:
    44ea:	a001                	j	44ea <DMA1_Channel6_IRQHandler>

000044ec <DMA1_Channel7_IRQHandler>:
    44ec:	a001                	j	44ec <DMA1_Channel7_IRQHandler>

000044ee <ADC1_2_IRQHandler>:
    44ee:	a001                	j	44ee <ADC1_2_IRQHandler>

000044f0 <USB_HP_CAN1_TX_IRQHandler>:
    44f0:	a001                	j	44f0 <USB_HP_CAN1_TX_IRQHandler>

000044f2 <USB_LP_CAN1_RX0_IRQHandler>:
    44f2:	a001                	j	44f2 <USB_LP_CAN1_RX0_IRQHandler>

000044f4 <CAN1_RX1_IRQHandler>:
    44f4:	a001                	j	44f4 <CAN1_RX1_IRQHandler>

000044f6 <CAN1_SCE_IRQHandler>:
    44f6:	a001                	j	44f6 <CAN1_SCE_IRQHandler>
    44f8:	a001                	j	44f8 <CAN1_SCE_IRQHandler+0x2>

000044fa <TIM1_BRK_IRQHandler>:
    44fa:	a001                	j	44fa <TIM1_BRK_IRQHandler>

000044fc <TIM1_UP_IRQHandler>:
    44fc:	a001                	j	44fc <TIM1_UP_IRQHandler>

000044fe <TIM1_TRG_COM_IRQHandler>:
    44fe:	a001                	j	44fe <TIM1_TRG_COM_IRQHandler>

00004500 <TIM1_CC_IRQHandler>:
    4500:	a001                	j	4500 <TIM1_CC_IRQHandler>

00004502 <TIM2_IRQHandler>:
    4502:	a001                	j	4502 <TIM2_IRQHandler>

00004504 <TIM3_IRQHandler>:
    4504:	a001                	j	4504 <TIM3_IRQHandler>

00004506 <TIM4_IRQHandler>:
    4506:	a001                	j	4506 <TIM4_IRQHandler>

00004508 <I2C1_EV_IRQHandler>:
    4508:	a001                	j	4508 <I2C1_EV_IRQHandler>

0000450a <I2C1_ER_IRQHandler>:
    450a:	a001                	j	450a <I2C1_ER_IRQHandler>

0000450c <I2C2_EV_IRQHandler>:
    450c:	a001                	j	450c <I2C2_EV_IRQHandler>

0000450e <I2C2_ER_IRQHandler>:
    450e:	a001                	j	450e <I2C2_ER_IRQHandler>

00004510 <SPI1_IRQHandler>:
    4510:	a001                	j	4510 <SPI1_IRQHandler>

00004512 <SPI2_IRQHandler>:
    4512:	a001                	j	4512 <SPI2_IRQHandler>
    4514:	a001                	j	4514 <SPI2_IRQHandler+0x2>

00004516 <USART2_IRQHandler>:
    4516:	a001                	j	4516 <USART2_IRQHandler>

00004518 <USART3_IRQHandler>:
    4518:	a001                	j	4518 <USART3_IRQHandler>
    451a:	a001                	j	451a <USART3_IRQHandler+0x2>

0000451c <RTCAlarm_IRQHandler>:
    451c:	a001                	j	451c <RTCAlarm_IRQHandler>

0000451e <USBWakeUp_IRQHandler>:
    451e:	a001                	j	451e <USBWakeUp_IRQHandler>

00004520 <TIM8_BRK_IRQHandler>:
    4520:	a001                	j	4520 <TIM8_BRK_IRQHandler>

00004522 <TIM8_UP_IRQHandler>:
    4522:	a001                	j	4522 <TIM8_UP_IRQHandler>

00004524 <TIM8_TRG_COM_IRQHandler>:
    4524:	a001                	j	4524 <TIM8_TRG_COM_IRQHandler>

00004526 <TIM8_CC_IRQHandler>:
    4526:	a001                	j	4526 <TIM8_CC_IRQHandler>

00004528 <RNG_IRQHandler>:
    4528:	a001                	j	4528 <RNG_IRQHandler>

0000452a <FSMC_IRQHandler>:
    452a:	a001                	j	452a <FSMC_IRQHandler>

0000452c <SDIO_IRQHandler>:
    452c:	a001                	j	452c <SDIO_IRQHandler>

0000452e <TIM5_IRQHandler>:
    452e:	a001                	j	452e <TIM5_IRQHandler>

00004530 <SPI3_IRQHandler>:
    4530:	a001                	j	4530 <SPI3_IRQHandler>

00004532 <UART4_IRQHandler>:
    4532:	a001                	j	4532 <UART4_IRQHandler>

00004534 <UART5_IRQHandler>:
    4534:	a001                	j	4534 <UART5_IRQHandler>

00004536 <TIM6_IRQHandler>:
    4536:	a001                	j	4536 <TIM6_IRQHandler>

00004538 <TIM7_IRQHandler>:
    4538:	a001                	j	4538 <TIM7_IRQHandler>

0000453a <DMA2_Channel1_IRQHandler>:
    453a:	a001                	j	453a <DMA2_Channel1_IRQHandler>

0000453c <DMA2_Channel2_IRQHandler>:
    453c:	a001                	j	453c <DMA2_Channel2_IRQHandler>
    453e:	a001                	j	453e <DMA2_Channel2_IRQHandler+0x2>

00004540 <DMA2_Channel4_IRQHandler>:
    4540:	a001                	j	4540 <DMA2_Channel4_IRQHandler>

00004542 <DMA2_Channel5_IRQHandler>:
    4542:	a001                	j	4542 <DMA2_Channel5_IRQHandler>

00004544 <ETH_IRQHandler>:
    4544:	a001                	j	4544 <ETH_IRQHandler>

00004546 <ETH_WKUP_IRQHandler>:
    4546:	a001                	j	4546 <ETH_WKUP_IRQHandler>

00004548 <CAN2_TX_IRQHandler>:
    4548:	a001                	j	4548 <CAN2_TX_IRQHandler>

0000454a <CAN2_RX0_IRQHandler>:
    454a:	a001                	j	454a <CAN2_RX0_IRQHandler>

0000454c <CAN2_RX1_IRQHandler>:
    454c:	a001                	j	454c <CAN2_RX1_IRQHandler>

0000454e <CAN2_SCE_IRQHandler>:
    454e:	a001                	j	454e <CAN2_SCE_IRQHandler>

00004550 <OTG_FS_IRQHandler>:
    4550:	a001                	j	4550 <OTG_FS_IRQHandler>

00004552 <USBHSWakeup_IRQHandler>:
    4552:	a001                	j	4552 <USBHSWakeup_IRQHandler>

00004554 <USBHS_IRQHandler>:
    4554:	a001                	j	4554 <USBHS_IRQHandler>

00004556 <DVP_IRQHandler>:
    4556:	a001                	j	4556 <DVP_IRQHandler>

00004558 <UART6_IRQHandler>:
    4558:	a001                	j	4558 <UART6_IRQHandler>

0000455a <UART7_IRQHandler>:
    455a:	a001                	j	455a <UART7_IRQHandler>

0000455c <UART8_IRQHandler>:
    455c:	a001                	j	455c <UART8_IRQHandler>

0000455e <TIM9_BRK_IRQHandler>:
    455e:	a001                	j	455e <TIM9_BRK_IRQHandler>

00004560 <TIM9_UP_IRQHandler>:
    4560:	a001                	j	4560 <TIM9_UP_IRQHandler>

00004562 <TIM9_TRG_COM_IRQHandler>:
    4562:	a001                	j	4562 <TIM9_TRG_COM_IRQHandler>

00004564 <TIM9_CC_IRQHandler>:
    4564:	a001                	j	4564 <TIM9_CC_IRQHandler>

00004566 <TIM10_BRK_IRQHandler>:
    4566:	a001                	j	4566 <TIM10_BRK_IRQHandler>

00004568 <TIM10_UP_IRQHandler>:
    4568:	a001                	j	4568 <TIM10_UP_IRQHandler>

0000456a <TIM10_TRG_COM_IRQHandler>:
    456a:	a001                	j	456a <TIM10_TRG_COM_IRQHandler>

0000456c <TIM10_CC_IRQHandler>:
    456c:	a001                	j	456c <TIM10_CC_IRQHandler>

0000456e <DMA2_Channel6_IRQHandler>:
    456e:	a001                	j	456e <DMA2_Channel6_IRQHandler>

00004570 <DMA2_Channel7_IRQHandler>:
    4570:	a001                	j	4570 <DMA2_Channel7_IRQHandler>

00004572 <DMA2_Channel8_IRQHandler>:
    4572:	a001                	j	4572 <DMA2_Channel8_IRQHandler>

00004574 <DMA2_Channel9_IRQHandler>:
    4574:	a001                	j	4574 <DMA2_Channel9_IRQHandler>

00004576 <DMA2_Channel10_IRQHandler>:
    4576:	a001                	j	4576 <DMA2_Channel10_IRQHandler>

00004578 <DMA2_Channel11_IRQHandler>:
    4578:	a001                	j	4578 <DMA2_Channel11_IRQHandler>

0000457a <handle_reset>:
    457a:	34129073          	csrw	mepc,t0
    457e:	1fffc197          	auipc	gp,0x1fffc
    4582:	3d218193          	addi	gp,gp,978 # 20000950 <__global_pointer$>
    4586:	2000c117          	auipc	sp,0x2000c
    458a:	a7a10113          	addi	sp,sp,-1414 # 20010000 <_eusrstack>
    458e:	00005517          	auipc	a0,0x5
    4592:	5ce50513          	addi	a0,a0,1486 # 9b5c <__rt_init_end>
    4596:	1fffc597          	auipc	a1,0x1fffc
    459a:	a6a58593          	addi	a1,a1,-1430 # 20000000 <_data_vma>
    459e:	80818613          	addi	a2,gp,-2040 # 20000158 <_edata>
    45a2:	00c5fa63          	bgeu	a1,a2,45b6 <handle_reset+0x3c>
    45a6:	00052283          	lw	t0,0(a0)
    45aa:	0055a023          	sw	t0,0(a1)
    45ae:	0511                	addi	a0,a0,4
    45b0:	0591                	addi	a1,a1,4
    45b2:	fec5eae3          	bltu	a1,a2,45a6 <handle_reset+0x2c>
    45b6:	80818513          	addi	a0,gp,-2040 # 20000158 <_edata>
    45ba:	1fffd597          	auipc	a1,0x1fffd
    45be:	76258593          	addi	a1,a1,1890 # 20001d1c <_ebss>
    45c2:	00b57763          	bgeu	a0,a1,45d0 <handle_reset+0x56>
    45c6:	00052023          	sw	zero,0(a0)
    45ca:	0511                	addi	a0,a0,4
    45cc:	feb56de3          	bltu	a0,a1,45c6 <handle_reset+0x4c>
    45d0:	42fd                	li	t0,31
    45d2:	bc029073          	csrw	0xbc0,t0
    45d6:	42fd                	li	t0,31
    45d8:	80429073          	csrw	0x804,t0
    45dc:	000082b7          	lui	t0,0x8
    45e0:	80028293          	addi	t0,t0,-2048 # 7800 <__subdf3+0x9b4>
    45e4:	3002a073          	csrs	mstatus,t0
    45e8:	ffffc297          	auipc	t0,0xffffc
    45ec:	a5028293          	addi	t0,t0,-1456 # 38 <_einit>
    45f0:	0032e293          	ori	t0,t0,3
    45f4:	30529073          	csrw	mtvec,t0
    45f8:	dcdff0ef          	jal	ra,43c4 <SystemInit>
    45fc:	ffffc297          	auipc	t0,0xffffc
    4600:	09c28293          	addi	t0,t0,156 # 698 <entry>
    4604:	34129073          	csrw	mepc,t0
    4608:	30200073          	mret

0000460c <ADC_Init>:
    460c:	415c                	lw	a5,4(a0)
    460e:	e0f10737          	lui	a4,0xe0f10
    4612:	eff70713          	addi	a4,a4,-257 # e0f0feff <_eusrstack+0xc0effeff>
    4616:	4d94                	lw	a3,24(a1)
    4618:	8f7d                	and	a4,a4,a5
    461a:	419c                	lw	a5,0(a1)
    461c:	8fd5                	or	a5,a5,a3
    461e:	4dd4                	lw	a3,28(a1)
    4620:	8fd5                	or	a5,a5,a3
    4622:	41d4                	lw	a3,4(a1)
    4624:	06a2                	slli	a3,a3,0x8
    4626:	8fd5                	or	a5,a5,a3
    4628:	8fd9                	or	a5,a5,a4
    462a:	c15c                	sw	a5,4(a0)
    462c:	451c                	lw	a5,8(a0)
    462e:	fff1f737          	lui	a4,0xfff1f
    4632:	7fd70713          	addi	a4,a4,2045 # fff1f7fd <_eusrstack+0xdff0f7fd>
    4636:	45d4                	lw	a3,12(a1)
    4638:	8f7d                	and	a4,a4,a5
    463a:	499c                	lw	a5,16(a1)
    463c:	8fd5                	or	a5,a5,a3
    463e:	4594                	lw	a3,8(a1)
    4640:	0686                	slli	a3,a3,0x1
    4642:	8fd5                	or	a5,a5,a3
    4644:	8fd9                	or	a5,a5,a4
    4646:	c51c                	sw	a5,8(a0)
    4648:	555c                	lw	a5,44(a0)
    464a:	ff100737          	lui	a4,0xff100
    464e:	177d                	addi	a4,a4,-1
    4650:	8f7d                	and	a4,a4,a5
    4652:	29dc                	lbu	a5,20(a1)
    4654:	17fd                	addi	a5,a5,-1
    4656:	0ff7f793          	andi	a5,a5,255
    465a:	07d2                	slli	a5,a5,0x14
    465c:	8fd9                	or	a5,a5,a4
    465e:	d55c                	sw	a5,44(a0)
    4660:	8082                	ret

00004662 <ADC_Cmd>:
    4662:	451c                	lw	a5,8(a0)
    4664:	c589                	beqz	a1,466e <ADC_Cmd+0xc>
    4666:	0017e793          	ori	a5,a5,1
    466a:	c51c                	sw	a5,8(a0)
    466c:	8082                	ret
    466e:	9bf9                	andi	a5,a5,-2
    4670:	bfed                	j	466a <ADC_Cmd+0x8>

00004672 <ADC_DMACmd>:
    4672:	451c                	lw	a5,8(a0)
    4674:	c589                	beqz	a1,467e <ADC_DMACmd+0xc>
    4676:	1007e793          	ori	a5,a5,256
    467a:	c51c                	sw	a5,8(a0)
    467c:	8082                	ret
    467e:	eff7f793          	andi	a5,a5,-257
    4682:	bfe5                	j	467a <ADC_DMACmd+0x8>

00004684 <ADC_RegularChannelConfig>:
    4684:	47a5                	li	a5,9
    4686:	04b7f763          	bgeu	a5,a1,46d4 <ADC_RegularChannelConfig+0x50>
    468a:	478d                	li	a5,3
    468c:	ff658713          	addi	a4,a1,-10
    4690:	02f70733          	mul	a4,a4,a5
    4694:	00c52803          	lw	a6,12(a0)
    4698:	479d                	li	a5,7
    469a:	00e797b3          	sll	a5,a5,a4
    469e:	fff7c793          	not	a5,a5
    46a2:	0107f7b3          	and	a5,a5,a6
    46a6:	00e696b3          	sll	a3,a3,a4
    46aa:	8edd                	or	a3,a3,a5
    46ac:	c554                	sw	a3,12(a0)
    46ae:	4799                	li	a5,6
    46b0:	04c7e363          	bltu	a5,a2,46f6 <ADC_RegularChannelConfig+0x72>
    46b4:	4795                	li	a5,5
    46b6:	167d                	addi	a2,a2,-1
    46b8:	02f60633          	mul	a2,a2,a5
    46bc:	5958                	lw	a4,52(a0)
    46be:	47fd                	li	a5,31
    46c0:	00c797b3          	sll	a5,a5,a2
    46c4:	fff7c793          	not	a5,a5
    46c8:	8ff9                	and	a5,a5,a4
    46ca:	00c59633          	sll	a2,a1,a2
    46ce:	8e5d                	or	a2,a2,a5
    46d0:	d950                	sw	a2,52(a0)
    46d2:	8082                	ret
    46d4:	470d                	li	a4,3
    46d6:	02e58733          	mul	a4,a1,a4
    46da:	01052803          	lw	a6,16(a0)
    46de:	479d                	li	a5,7
    46e0:	00e797b3          	sll	a5,a5,a4
    46e4:	fff7c793          	not	a5,a5
    46e8:	0107f7b3          	and	a5,a5,a6
    46ec:	00e696b3          	sll	a3,a3,a4
    46f0:	8edd                	or	a3,a3,a5
    46f2:	c914                	sw	a3,16(a0)
    46f4:	bf6d                	j	46ae <ADC_RegularChannelConfig+0x2a>
    46f6:	47b1                	li	a5,12
    46f8:	02c7e263          	bltu	a5,a2,471c <ADC_RegularChannelConfig+0x98>
    46fc:	4795                	li	a5,5
    46fe:	1665                	addi	a2,a2,-7
    4700:	02f60633          	mul	a2,a2,a5
    4704:	5918                	lw	a4,48(a0)
    4706:	47fd                	li	a5,31
    4708:	00c797b3          	sll	a5,a5,a2
    470c:	fff7c793          	not	a5,a5
    4710:	8ff9                	and	a5,a5,a4
    4712:	00c59633          	sll	a2,a1,a2
    4716:	8e5d                	or	a2,a2,a5
    4718:	d910                	sw	a2,48(a0)
    471a:	8082                	ret
    471c:	4795                	li	a5,5
    471e:	164d                	addi	a2,a2,-13
    4720:	02f60633          	mul	a2,a2,a5
    4724:	5558                	lw	a4,44(a0)
    4726:	47fd                	li	a5,31
    4728:	00c797b3          	sll	a5,a5,a2
    472c:	fff7c793          	not	a5,a5
    4730:	8ff9                	and	a5,a5,a4
    4732:	00c595b3          	sll	a1,a1,a2
    4736:	8ddd                	or	a1,a1,a5
    4738:	d54c                	sw	a1,44(a0)
    473a:	8082                	ret

0000473c <ADC_ExternalTrigConvCmd>:
    473c:	451c                	lw	a5,8(a0)
    473e:	c591                	beqz	a1,474a <ADC_ExternalTrigConvCmd+0xe>
    4740:	00100737          	lui	a4,0x100
    4744:	8fd9                	or	a5,a5,a4
    4746:	c51c                	sw	a5,8(a0)
    4748:	8082                	ret
    474a:	fff00737          	lui	a4,0xfff00
    474e:	177d                	addi	a4,a4,-1
    4750:	8ff9                	and	a5,a5,a4
    4752:	bfd5                	j	4746 <ADC_ExternalTrigConvCmd+0xa>

00004754 <DAC_Init>:
    4754:	400076b7          	lui	a3,0x40007
    4758:	6705                	lui	a4,0x1
    475a:	4006a783          	lw	a5,1024(a3) # 40007400 <_eusrstack+0x1fff7400>
    475e:	1779                	addi	a4,a4,-2
    4760:	00a71733          	sll	a4,a4,a0
    4764:	fff74713          	not	a4,a4
    4768:	41d0                	lw	a2,4(a1)
    476a:	8f7d                	and	a4,a4,a5
    476c:	419c                	lw	a5,0(a1)
    476e:	8fd1                	or	a5,a5,a2
    4770:	4590                	lw	a2,8(a1)
    4772:	8fd1                	or	a5,a5,a2
    4774:	45d0                	lw	a2,12(a1)
    4776:	8fd1                	or	a5,a5,a2
    4778:	00a797b3          	sll	a5,a5,a0
    477c:	8fd9                	or	a5,a5,a4
    477e:	40f6a023          	sw	a5,1024(a3)
    4782:	8082                	ret

00004784 <DAC_Cmd>:
    4784:	4785                	li	a5,1
    4786:	00a79533          	sll	a0,a5,a0
    478a:	c989                	beqz	a1,479c <DAC_Cmd+0x18>
    478c:	40007737          	lui	a4,0x40007
    4790:	40072783          	lw	a5,1024(a4) # 40007400 <_eusrstack+0x1fff7400>
    4794:	8d5d                	or	a0,a0,a5
    4796:	40a72023          	sw	a0,1024(a4)
    479a:	8082                	ret
    479c:	400077b7          	lui	a5,0x40007
    47a0:	4007a703          	lw	a4,1024(a5) # 40007400 <_eusrstack+0x1fff7400>
    47a4:	fff54513          	not	a0,a0
    47a8:	8d79                	and	a0,a0,a4
    47aa:	40a7a023          	sw	a0,1024(a5)
    47ae:	8082                	ret

000047b0 <DAC_DMACmd>:
    47b0:	6785                	lui	a5,0x1
    47b2:	00a79533          	sll	a0,a5,a0
    47b6:	c989                	beqz	a1,47c8 <DAC_DMACmd+0x18>
    47b8:	40007737          	lui	a4,0x40007
    47bc:	40072783          	lw	a5,1024(a4) # 40007400 <_eusrstack+0x1fff7400>
    47c0:	8d5d                	or	a0,a0,a5
    47c2:	40a72023          	sw	a0,1024(a4)
    47c6:	8082                	ret
    47c8:	400077b7          	lui	a5,0x40007
    47cc:	4007a703          	lw	a4,1024(a5) # 40007400 <_eusrstack+0x1fff7400>
    47d0:	fff54513          	not	a0,a0
    47d4:	8d79                	and	a0,a0,a4
    47d6:	40a7a023          	sw	a0,1024(a5)
    47da:	8082                	ret

000047dc <DAC_SetDualChannelData>:
    47dc:	47a1                	li	a5,8
    47de:	00f51b63          	bne	a0,a5,47f4 <DAC_SetDualChannelData+0x18>
    47e2:	05a2                	slli	a1,a1,0x8
    47e4:	400077b7          	lui	a5,0x40007
    47e8:	42078793          	addi	a5,a5,1056 # 40007420 <_eusrstack+0x1fff7420>
    47ec:	8dd1                	or	a1,a1,a2
    47ee:	953e                	add	a0,a0,a5
    47f0:	c10c                	sw	a1,0(a0)
    47f2:	8082                	ret
    47f4:	05c2                	slli	a1,a1,0x10
    47f6:	b7fd                	j	47e4 <DAC_SetDualChannelData+0x8>

000047f8 <DMA_DeInit>:
    47f8:	411c                	lw	a5,0(a0)
    47fa:	6741                	lui	a4,0x10
    47fc:	1779                	addi	a4,a4,-2
    47fe:	8ff9                	and	a5,a5,a4
    4800:	c11c                	sw	a5,0(a0)
    4802:	00052023          	sw	zero,0(a0)
    4806:	00052223          	sw	zero,4(a0)
    480a:	00052423          	sw	zero,8(a0)
    480e:	400207b7          	lui	a5,0x40020
    4812:	00052623          	sw	zero,12(a0)
    4816:	00878713          	addi	a4,a5,8 # 40020008 <_eusrstack+0x20010008>
    481a:	00e51763          	bne	a0,a4,4828 <DMA_DeInit+0x30>
    481e:	43d8                	lw	a4,4(a5)
    4820:	00f76713          	ori	a4,a4,15
    4824:	c3d8                	sw	a4,4(a5)
    4826:	8082                	ret
    4828:	01c78713          	addi	a4,a5,28
    482c:	00e51663          	bne	a0,a4,4838 <DMA_DeInit+0x40>
    4830:	43d8                	lw	a4,4(a5)
    4832:	0f076713          	ori	a4,a4,240
    4836:	b7fd                	j	4824 <DMA_DeInit+0x2c>
    4838:	03078713          	addi	a4,a5,48
    483c:	00e51863          	bne	a0,a4,484c <DMA_DeInit+0x54>
    4840:	43d8                	lw	a4,4(a5)
    4842:	6685                	lui	a3,0x1
    4844:	f0068693          	addi	a3,a3,-256 # f00 <rt_vsnprintf+0x1ba>
    4848:	8f55                	or	a4,a4,a3
    484a:	bfe9                	j	4824 <DMA_DeInit+0x2c>
    484c:	04478713          	addi	a4,a5,68
    4850:	00e51563          	bne	a0,a4,485a <DMA_DeInit+0x62>
    4854:	43d8                	lw	a4,4(a5)
    4856:	66bd                	lui	a3,0xf
    4858:	bfc5                	j	4848 <DMA_DeInit+0x50>
    485a:	05878713          	addi	a4,a5,88
    485e:	00e51663          	bne	a0,a4,486a <DMA_DeInit+0x72>
    4862:	43d8                	lw	a4,4(a5)
    4864:	000f06b7          	lui	a3,0xf0
    4868:	b7c5                	j	4848 <DMA_DeInit+0x50>
    486a:	06c78713          	addi	a4,a5,108
    486e:	00e51663          	bne	a0,a4,487a <DMA_DeInit+0x82>
    4872:	43d8                	lw	a4,4(a5)
    4874:	00f006b7          	lui	a3,0xf00
    4878:	bfc1                	j	4848 <DMA_DeInit+0x50>
    487a:	08078713          	addi	a4,a5,128
    487e:	00e51663          	bne	a0,a4,488a <DMA_DeInit+0x92>
    4882:	43d8                	lw	a4,4(a5)
    4884:	0f0006b7          	lui	a3,0xf000
    4888:	b7c1                	j	4848 <DMA_DeInit+0x50>
    488a:	40878713          	addi	a4,a5,1032
    488e:	00e51963          	bne	a0,a4,48a0 <DMA_DeInit+0xa8>
    4892:	4047a703          	lw	a4,1028(a5)
    4896:	00f76713          	ori	a4,a4,15
    489a:	40e7a223          	sw	a4,1028(a5)
    489e:	8082                	ret
    48a0:	41c78713          	addi	a4,a5,1052
    48a4:	00e51763          	bne	a0,a4,48b2 <DMA_DeInit+0xba>
    48a8:	4047a703          	lw	a4,1028(a5)
    48ac:	0f076713          	ori	a4,a4,240
    48b0:	b7ed                	j	489a <DMA_DeInit+0xa2>
    48b2:	43078793          	addi	a5,a5,1072
    48b6:	00f51b63          	bne	a0,a5,48cc <DMA_DeInit+0xd4>
    48ba:	400207b7          	lui	a5,0x40020
    48be:	4047a703          	lw	a4,1028(a5) # 40020404 <_eusrstack+0x20010404>
    48c2:	6685                	lui	a3,0x1
    48c4:	f0068693          	addi	a3,a3,-256 # f00 <rt_vsnprintf+0x1ba>
    48c8:	8f55                	or	a4,a4,a3
    48ca:	bfc1                	j	489a <DMA_DeInit+0xa2>
    48cc:	400207b7          	lui	a5,0x40020
    48d0:	44478713          	addi	a4,a5,1092 # 40020444 <_eusrstack+0x20010444>
    48d4:	00e51663          	bne	a0,a4,48e0 <DMA_DeInit+0xe8>
    48d8:	4047a703          	lw	a4,1028(a5)
    48dc:	66bd                	lui	a3,0xf
    48de:	b7ed                	j	48c8 <DMA_DeInit+0xd0>
    48e0:	45878713          	addi	a4,a5,1112
    48e4:	00e51763          	bne	a0,a4,48f2 <DMA_DeInit+0xfa>
    48e8:	4047a703          	lw	a4,1028(a5)
    48ec:	000f06b7          	lui	a3,0xf0
    48f0:	bfe1                	j	48c8 <DMA_DeInit+0xd0>
    48f2:	46c78713          	addi	a4,a5,1132
    48f6:	00e51763          	bne	a0,a4,4904 <DMA_DeInit+0x10c>
    48fa:	4047a703          	lw	a4,1028(a5)
    48fe:	00f006b7          	lui	a3,0xf00
    4902:	b7d9                	j	48c8 <DMA_DeInit+0xd0>
    4904:	48078713          	addi	a4,a5,1152
    4908:	00e51763          	bne	a0,a4,4916 <DMA_DeInit+0x11e>
    490c:	4047a703          	lw	a4,1028(a5)
    4910:	0f0006b7          	lui	a3,0xf000
    4914:	bf55                	j	48c8 <DMA_DeInit+0xd0>
    4916:	49078713          	addi	a4,a5,1168
    491a:	00e51963          	bne	a0,a4,492c <DMA_DeInit+0x134>
    491e:	4d47a703          	lw	a4,1236(a5)
    4922:	00f76713          	ori	a4,a4,15
    4926:	4ce7aa23          	sw	a4,1236(a5)
    492a:	8082                	ret
    492c:	4a078713          	addi	a4,a5,1184
    4930:	00e51763          	bne	a0,a4,493e <DMA_DeInit+0x146>
    4934:	4d47a703          	lw	a4,1236(a5)
    4938:	0f076713          	ori	a4,a4,240
    493c:	b7ed                	j	4926 <DMA_DeInit+0x12e>
    493e:	4b078713          	addi	a4,a5,1200
    4942:	00e51963          	bne	a0,a4,4954 <DMA_DeInit+0x15c>
    4946:	4d47a703          	lw	a4,1236(a5)
    494a:	6685                	lui	a3,0x1
    494c:	f0068693          	addi	a3,a3,-256 # f00 <rt_vsnprintf+0x1ba>
    4950:	8f55                	or	a4,a4,a3
    4952:	bfd1                	j	4926 <DMA_DeInit+0x12e>
    4954:	4c078713          	addi	a4,a5,1216
    4958:	fce519e3          	bne	a0,a4,492a <DMA_DeInit+0x132>
    495c:	4d47a703          	lw	a4,1236(a5)
    4960:	66bd                	lui	a3,0xf
    4962:	b7fd                	j	4950 <DMA_DeInit+0x158>

00004964 <DMA_Init>:
    4964:	411c                	lw	a5,0(a0)
    4966:	7761                	lui	a4,0xffff8
    4968:	073d                	addi	a4,a4,15
    496a:	5194                	lw	a3,32(a1)
    496c:	8f7d                	and	a4,a4,a5
    496e:	459c                	lw	a5,8(a1)
    4970:	8fd5                	or	a5,a5,a3
    4972:	4994                	lw	a3,16(a1)
    4974:	8fd5                	or	a5,a5,a3
    4976:	49d4                	lw	a3,20(a1)
    4978:	8fd5                	or	a5,a5,a3
    497a:	4d94                	lw	a3,24(a1)
    497c:	8fd5                	or	a5,a5,a3
    497e:	4dd4                	lw	a3,28(a1)
    4980:	8fd5                	or	a5,a5,a3
    4982:	51d4                	lw	a3,36(a1)
    4984:	8fd5                	or	a5,a5,a3
    4986:	5594                	lw	a3,40(a1)
    4988:	8fd5                	or	a5,a5,a3
    498a:	8fd9                	or	a5,a5,a4
    498c:	c11c                	sw	a5,0(a0)
    498e:	45dc                	lw	a5,12(a1)
    4990:	c15c                	sw	a5,4(a0)
    4992:	419c                	lw	a5,0(a1)
    4994:	c51c                	sw	a5,8(a0)
    4996:	41dc                	lw	a5,4(a1)
    4998:	c55c                	sw	a5,12(a0)
    499a:	8082                	ret

0000499c <DMA_StructInit>:
    499c:	00052023          	sw	zero,0(a0)
    49a0:	00052223          	sw	zero,4(a0)
    49a4:	00052423          	sw	zero,8(a0)
    49a8:	00052623          	sw	zero,12(a0)
    49ac:	00052823          	sw	zero,16(a0)
    49b0:	00052a23          	sw	zero,20(a0)
    49b4:	00052c23          	sw	zero,24(a0)
    49b8:	00052e23          	sw	zero,28(a0)
    49bc:	02052023          	sw	zero,32(a0)
    49c0:	02052223          	sw	zero,36(a0)
    49c4:	02052423          	sw	zero,40(a0)
    49c8:	8082                	ret

000049ca <DMA_Cmd>:
    49ca:	411c                	lw	a5,0(a0)
    49cc:	c589                	beqz	a1,49d6 <DMA_Cmd+0xc>
    49ce:	0017e793          	ori	a5,a5,1
    49d2:	c11c                	sw	a5,0(a0)
    49d4:	8082                	ret
    49d6:	6741                	lui	a4,0x10
    49d8:	1779                	addi	a4,a4,-2
    49da:	8ff9                	and	a5,a5,a4
    49dc:	bfdd                	j	49d2 <DMA_Cmd+0x8>

000049de <DMA_ITConfig>:
    49de:	411c                	lw	a5,0(a0)
    49e0:	c601                	beqz	a2,49e8 <DMA_ITConfig+0xa>
    49e2:	8ddd                	or	a1,a1,a5
    49e4:	c10c                	sw	a1,0(a0)
    49e6:	8082                	ret
    49e8:	fff5c593          	not	a1,a1
    49ec:	8dfd                	and	a1,a1,a5
    49ee:	bfdd                	j	49e4 <DMA_ITConfig+0x6>

000049f0 <DMA_GetFlagStatus>:
    49f0:	00351793          	slli	a5,a0,0x3
    49f4:	0007da63          	bgez	a5,4a08 <DMA_GetFlagStatus+0x18>
    49f8:	400207b7          	lui	a5,0x40020
    49fc:	4007a783          	lw	a5,1024(a5) # 40020400 <_eusrstack+0x20010400>
    4a00:	8d7d                	and	a0,a0,a5
    4a02:	00a03533          	snez	a0,a0
    4a06:	8082                	ret
    4a08:	00251793          	slli	a5,a0,0x2
    4a0c:	0007d763          	bgez	a5,4a1a <DMA_GetFlagStatus+0x2a>
    4a10:	400207b7          	lui	a5,0x40020
    4a14:	4d07a783          	lw	a5,1232(a5) # 400204d0 <_eusrstack+0x200104d0>
    4a18:	b7e5                	j	4a00 <DMA_GetFlagStatus+0x10>
    4a1a:	400207b7          	lui	a5,0x40020
    4a1e:	439c                	lw	a5,0(a5)
    4a20:	b7c5                	j	4a00 <DMA_GetFlagStatus+0x10>

00004a22 <DMA_ClearFlag>:
    4a22:	00351793          	slli	a5,a0,0x3
    4a26:	0007d763          	bgez	a5,4a34 <DMA_ClearFlag+0x12>
    4a2a:	400207b7          	lui	a5,0x40020
    4a2e:	40a7a223          	sw	a0,1028(a5) # 40020404 <_eusrstack+0x20010404>
    4a32:	8082                	ret
    4a34:	00251793          	slli	a5,a0,0x2
    4a38:	0007d763          	bgez	a5,4a46 <DMA_ClearFlag+0x24>
    4a3c:	400207b7          	lui	a5,0x40020
    4a40:	4ca7aa23          	sw	a0,1236(a5) # 400204d4 <_eusrstack+0x200104d4>
    4a44:	8082                	ret
    4a46:	400207b7          	lui	a5,0x40020
    4a4a:	c3c8                	sw	a0,4(a5)
    4a4c:	8082                	ret

00004a4e <DMA_GetITStatus>:
    4a4e:	a9dfb2ef          	jal	t0,4ea <__riscv_save_0>
    4a52:	f9fff0ef          	jal	ra,49f0 <DMA_GetFlagStatus>
    4a56:	ab9fb06f          	j	50e <__riscv_restore_0>

00004a5a <DMA_ClearITPendingBit>:
    4a5a:	a91fb2ef          	jal	t0,4ea <__riscv_save_0>
    4a5e:	fc5ff0ef          	jal	ra,4a22 <DMA_ClearFlag>
    4a62:	aadfb06f          	j	50e <__riscv_restore_0>

00004a66 <EXTI_Init>:
    4a66:	4158                	lw	a4,4(a0)
    4a68:	00052803          	lw	a6,0(a0)
    4a6c:	454c                	lw	a1,12(a0)
    4a6e:	40010637          	lui	a2,0x40010
    4a72:	40060793          	addi	a5,a2,1024 # 40010400 <_eusrstack+0x20000400>
    4a76:	973e                	add	a4,a4,a5
    4a78:	fff84693          	not	a3,a6
    4a7c:	c5b1                	beqz	a1,4ac8 <EXTI_Init+0x62>
    4a7e:	40062583          	lw	a1,1024(a2)
    4a82:	8df5                	and	a1,a1,a3
    4a84:	40b62023          	sw	a1,1024(a2)
    4a88:	43d0                	lw	a2,4(a5)
    4a8a:	8ef1                	and	a3,a3,a2
    4a8c:	c3d4                	sw	a3,4(a5)
    4a8e:	4314                	lw	a3,0(a4)
    4a90:	0106e6b3          	or	a3,a3,a6
    4a94:	c314                	sw	a3,0(a4)
    4a96:	4118                	lw	a4,0(a0)
    4a98:	4790                	lw	a2,8(a5)
    4a9a:	fff74693          	not	a3,a4
    4a9e:	8e75                	and	a2,a2,a3
    4aa0:	c790                	sw	a2,8(a5)
    4aa2:	47d0                	lw	a2,12(a5)
    4aa4:	8ef1                	and	a3,a3,a2
    4aa6:	c7d4                	sw	a3,12(a5)
    4aa8:	4514                	lw	a3,8(a0)
    4aaa:	4641                	li	a2,16
    4aac:	00c69963          	bne	a3,a2,4abe <EXTI_Init+0x58>
    4ab0:	4794                	lw	a3,8(a5)
    4ab2:	8ed9                	or	a3,a3,a4
    4ab4:	c794                	sw	a3,8(a5)
    4ab6:	47d4                	lw	a3,12(a5)
    4ab8:	8f55                	or	a4,a4,a3
    4aba:	c7d8                	sw	a4,12(a5)
    4abc:	8082                	ret
    4abe:	97b6                	add	a5,a5,a3
    4ac0:	4394                	lw	a3,0(a5)
    4ac2:	8f55                	or	a4,a4,a3
    4ac4:	c398                	sw	a4,0(a5)
    4ac6:	8082                	ret
    4ac8:	431c                	lw	a5,0(a4)
    4aca:	8ff5                	and	a5,a5,a3
    4acc:	c31c                	sw	a5,0(a4)
    4ace:	8082                	ret

00004ad0 <EXTI_GetITStatus>:
    4ad0:	400107b7          	lui	a5,0x40010
    4ad4:	40078713          	addi	a4,a5,1024 # 40010400 <_eusrstack+0x20000400>
    4ad8:	4007a783          	lw	a5,1024(a5)
    4adc:	4b58                	lw	a4,20(a4)
    4ade:	8f69                	and	a4,a4,a0
    4ae0:	c709                	beqz	a4,4aea <EXTI_GetITStatus+0x1a>
    4ae2:	8d7d                	and	a0,a0,a5
    4ae4:	00a03533          	snez	a0,a0
    4ae8:	8082                	ret
    4aea:	4501                	li	a0,0
    4aec:	8082                	ret

00004aee <EXTI_ClearITPendingBit>:
    4aee:	400107b7          	lui	a5,0x40010
    4af2:	40a7aa23          	sw	a0,1044(a5) # 40010414 <_eusrstack+0x20000414>
    4af6:	8082                	ret

00004af8 <GPIO_Init>:
    4af8:	459c                	lw	a5,8(a1)
    4afa:	0107f713          	andi	a4,a5,16
    4afe:	00f7f813          	andi	a6,a5,15
    4b02:	c701                	beqz	a4,4b0a <GPIO_Init+0x12>
    4b04:	41d8                	lw	a4,4(a1)
    4b06:	00e86833          	or	a6,a6,a4
    4b0a:	218e                	lhu	a1,0(a1)
    4b0c:	0ff5f713          	andi	a4,a1,255
    4b10:	c339                	beqz	a4,4b56 <GPIO_Init+0x5e>
    4b12:	4118                	lw	a4,0(a0)
    4b14:	4681                	li	a3,0
    4b16:	4e85                	li	t4,1
    4b18:	4f3d                	li	t5,15
    4b1a:	02800f93          	li	t6,40
    4b1e:	04800293          	li	t0,72
    4b22:	4e21                	li	t3,8
    4b24:	00de9633          	sll	a2,t4,a3
    4b28:	00c5f8b3          	and	a7,a1,a2
    4b2c:	03161163          	bne	a2,a7,4b4e <GPIO_Init+0x56>
    4b30:	00269893          	slli	a7,a3,0x2
    4b34:	011f1333          	sll	t1,t5,a7
    4b38:	fff34313          	not	t1,t1
    4b3c:	00e37733          	and	a4,t1,a4
    4b40:	011818b3          	sll	a7,a6,a7
    4b44:	00e8e733          	or	a4,a7,a4
    4b48:	05f79f63          	bne	a5,t6,4ba6 <GPIO_Init+0xae>
    4b4c:	c950                	sw	a2,20(a0)
    4b4e:	0685                	addi	a3,a3,1
    4b50:	fdc69ae3          	bne	a3,t3,4b24 <GPIO_Init+0x2c>
    4b54:	c118                	sw	a4,0(a0)
    4b56:	0ff00713          	li	a4,255
    4b5a:	04b77563          	bgeu	a4,a1,4ba4 <GPIO_Init+0xac>
    4b5e:	4154                	lw	a3,4(a0)
    4b60:	4621                	li	a2,8
    4b62:	4e85                	li	t4,1
    4b64:	4f3d                	li	t5,15
    4b66:	02800f93          	li	t6,40
    4b6a:	04800293          	li	t0,72
    4b6e:	4e41                	li	t3,16
    4b70:	00ce98b3          	sll	a7,t4,a2
    4b74:	0115f733          	and	a4,a1,a7
    4b78:	02e89263          	bne	a7,a4,4b9c <GPIO_Init+0xa4>
    4b7c:	00261713          	slli	a4,a2,0x2
    4b80:	1701                	addi	a4,a4,-32
    4b82:	00ef1333          	sll	t1,t5,a4
    4b86:	fff34313          	not	t1,t1
    4b8a:	00d376b3          	and	a3,t1,a3
    4b8e:	00e81733          	sll	a4,a6,a4
    4b92:	8ed9                	or	a3,a3,a4
    4b94:	01f79d63          	bne	a5,t6,4bae <GPIO_Init+0xb6>
    4b98:	01152a23          	sw	a7,20(a0)
    4b9c:	0605                	addi	a2,a2,1
    4b9e:	fdc619e3          	bne	a2,t3,4b70 <GPIO_Init+0x78>
    4ba2:	c154                	sw	a3,4(a0)
    4ba4:	8082                	ret
    4ba6:	fa5794e3          	bne	a5,t0,4b4e <GPIO_Init+0x56>
    4baa:	c910                	sw	a2,16(a0)
    4bac:	b74d                	j	4b4e <GPIO_Init+0x56>
    4bae:	fe5797e3          	bne	a5,t0,4b9c <GPIO_Init+0xa4>
    4bb2:	01152823          	sw	a7,16(a0)
    4bb6:	b7dd                	j	4b9c <GPIO_Init+0xa4>

00004bb8 <GPIO_ReadInputDataBit>:
    4bb8:	4508                	lw	a0,8(a0)
    4bba:	8d6d                	and	a0,a0,a1
    4bbc:	00a03533          	snez	a0,a0
    4bc0:	8082                	ret

00004bc2 <GPIO_WriteBit>:
    4bc2:	c219                	beqz	a2,4bc8 <GPIO_WriteBit+0x6>
    4bc4:	c90c                	sw	a1,16(a0)
    4bc6:	8082                	ret
    4bc8:	c94c                	sw	a1,20(a0)
    4bca:	8082                	ret

00004bcc <GPIO_EXTILineConfig>:
    4bcc:	0fc5f713          	andi	a4,a1,252
    4bd0:	0035f793          	andi	a5,a1,3
    4bd4:	400105b7          	lui	a1,0x40010
    4bd8:	95ba                	add	a1,a1,a4
    4bda:	4594                	lw	a3,8(a1)
    4bdc:	078a                	slli	a5,a5,0x2
    4bde:	473d                	li	a4,15
    4be0:	00f71733          	sll	a4,a4,a5
    4be4:	fff74713          	not	a4,a4
    4be8:	8f75                	and	a4,a4,a3
    4bea:	c598                	sw	a4,8(a1)
    4bec:	4598                	lw	a4,8(a1)
    4bee:	00f51533          	sll	a0,a0,a5
    4bf2:	8d59                	or	a0,a0,a4
    4bf4:	c588                	sw	a0,8(a1)
    4bf6:	8082                	ret

00004bf8 <NVIC_Init>:
    4bf8:	8bc18793          	addi	a5,gp,-1860 # 2000020c <NVIC_Priority_Group>
    4bfc:	4394                	lw	a3,0(a5)
    4bfe:	2118                	lbu	a4,0(a0)
    4c00:	e681                	bnez	a3,4c08 <NVIC_Init+0x10>
    4c02:	213c                	lbu	a5,2(a0)
    4c04:	0792                	slli	a5,a5,0x4
    4c06:	a821                	j	4c1e <NVIC_Init+0x26>
    4c08:	4394                	lw	a3,0(a5)
    4c0a:	4605                	li	a2,1
    4c0c:	02c69f63          	bne	a3,a2,4c4a <NVIC_Init+0x52>
    4c10:	213c                	lbu	a5,2(a0)
    4c12:	3110                	lbu	a2,1(a0)
    4c14:	0792                	slli	a5,a5,0x4
    4c16:	00d61463          	bne	a2,a3,4c1e <NVIC_Init+0x26>
    4c1a:	f807e793          	ori	a5,a5,-128
    4c1e:	e000e6b7          	lui	a3,0xe000e
    4c22:	0ff7f793          	andi	a5,a5,255
    4c26:	96ba                	add	a3,a3,a4
    4c28:	40f68023          	sb	a5,1024(a3) # e000e400 <_eusrstack+0xbfffe400>
    4c2c:	4685                	li	a3,1
    4c2e:	00575793          	srli	a5,a4,0x5
    4c32:	00e69733          	sll	a4,a3,a4
    4c36:	4154                	lw	a3,4(a0)
    4c38:	c2a5                	beqz	a3,4c98 <NVIC_Init+0xa0>
    4c3a:	04078793          	addi	a5,a5,64
    4c3e:	078a                	slli	a5,a5,0x2
    4c40:	e000e6b7          	lui	a3,0xe000e
    4c44:	97b6                	add	a5,a5,a3
    4c46:	c398                	sw	a4,0(a5)
    4c48:	8082                	ret
    4c4a:	438c                	lw	a1,0(a5)
    4c4c:	4689                	li	a3,2
    4c4e:	02d59163          	bne	a1,a3,4c70 <NVIC_Init+0x78>
    4c52:	3114                	lbu	a3,1(a0)
    4c54:	213c                	lbu	a5,2(a0)
    4c56:	00d66563          	bltu	a2,a3,4c60 <NVIC_Init+0x68>
    4c5a:	068a                	slli	a3,a3,0x2
    4c5c:	97b6                	add	a5,a5,a3
    4c5e:	b75d                	j	4c04 <NVIC_Init+0xc>
    4c60:	03e68693          	addi	a3,a3,62 # e000e03e <_eusrstack+0xbfffe03e>
    4c64:	068a                	slli	a3,a3,0x2
    4c66:	97b6                	add	a5,a5,a3
    4c68:	0ff7f793          	andi	a5,a5,255
    4c6c:	0792                	slli	a5,a5,0x4
    4c6e:	b775                	j	4c1a <NVIC_Init+0x22>
    4c70:	4390                	lw	a2,0(a5)
    4c72:	468d                	li	a3,3
    4c74:	00d61c63          	bne	a2,a3,4c8c <NVIC_Init+0x94>
    4c78:	3114                	lbu	a3,1(a0)
    4c7a:	213c                	lbu	a5,2(a0)
    4c7c:	00d66463          	bltu	a2,a3,4c84 <NVIC_Init+0x8c>
    4c80:	0686                	slli	a3,a3,0x1
    4c82:	bfe9                	j	4c5c <NVIC_Init+0x64>
    4c84:	07c68693          	addi	a3,a3,124
    4c88:	0686                	slli	a3,a3,0x1
    4c8a:	bff1                	j	4c66 <NVIC_Init+0x6e>
    4c8c:	4394                	lw	a3,0(a5)
    4c8e:	4791                	li	a5,4
    4c90:	f8f69ee3          	bne	a3,a5,4c2c <NVIC_Init+0x34>
    4c94:	311c                	lbu	a5,1(a0)
    4c96:	b7bd                	j	4c04 <NVIC_Init+0xc>
    4c98:	06078793          	addi	a5,a5,96
    4c9c:	b74d                	j	4c3e <NVIC_Init+0x46>

00004c9e <RCC_GetClocksFreq>:
    4c9e:	40021737          	lui	a4,0x40021
    4ca2:	435c                	lw	a5,4(a4)
    4ca4:	4691                	li	a3,4
    4ca6:	8bb1                	andi	a5,a5,12
    4ca8:	00d78563          	beq	a5,a3,4cb2 <RCC_GetClocksFreq+0x14>
    4cac:	46a1                	li	a3,8
    4cae:	06d78263          	beq	a5,a3,4d12 <RCC_GetClocksFreq+0x74>
    4cb2:	007a17b7          	lui	a5,0x7a1
    4cb6:	20078793          	addi	a5,a5,512 # 7a1200 <__rt_init_end+0x7976a4>
    4cba:	c11c                	sw	a5,0(a0)
    4cbc:	40021637          	lui	a2,0x40021
    4cc0:	425c                	lw	a5,4(a2)
    4cc2:	20000737          	lui	a4,0x20000
    4cc6:	14070713          	addi	a4,a4,320 # 20000140 <APBAHBPrescTable>
    4cca:	8391                	srli	a5,a5,0x4
    4ccc:	8bbd                	andi	a5,a5,15
    4cce:	97ba                	add	a5,a5,a4
    4cd0:	2394                	lbu	a3,0(a5)
    4cd2:	411c                	lw	a5,0(a0)
    4cd4:	00d7d7b3          	srl	a5,a5,a3
    4cd8:	c15c                	sw	a5,4(a0)
    4cda:	4254                	lw	a3,4(a2)
    4cdc:	82a1                	srli	a3,a3,0x8
    4cde:	8a9d                	andi	a3,a3,7
    4ce0:	96ba                	add	a3,a3,a4
    4ce2:	2294                	lbu	a3,0(a3)
    4ce4:	00d7d6b3          	srl	a3,a5,a3
    4ce8:	c514                	sw	a3,8(a0)
    4cea:	4254                	lw	a3,4(a2)
    4cec:	82ad                	srli	a3,a3,0xb
    4cee:	8a9d                	andi	a3,a3,7
    4cf0:	9736                	add	a4,a4,a3
    4cf2:	2318                	lbu	a4,0(a4)
    4cf4:	00e7d7b3          	srl	a5,a5,a4
    4cf8:	c55c                	sw	a5,12(a0)
    4cfa:	4258                	lw	a4,4(a2)
    4cfc:	8339                	srli	a4,a4,0xe
    4cfe:	00377693          	andi	a3,a4,3
    4d02:	80418713          	addi	a4,gp,-2044 # 20000154 <ADCPrescTable>
    4d06:	9736                	add	a4,a4,a3
    4d08:	2318                	lbu	a4,0(a4)
    4d0a:	02e7d7b3          	divu	a5,a5,a4
    4d0e:	c91c                	sw	a5,16(a0)
    4d10:	8082                	ret
    4d12:	435c                	lw	a5,4(a4)
    4d14:	4354                	lw	a3,4(a4)
    4d16:	6741                	lui	a4,0x10
    4d18:	83c9                	srli	a5,a5,0x12
    4d1a:	8ef9                	and	a3,a3,a4
    4d1c:	1ffff737          	lui	a4,0x1ffff
    4d20:	70c72703          	lw	a4,1804(a4) # 1ffff70c <__rt_init_end+0x1fff5bb0>
    4d24:	8bbd                	andi	a5,a5,15
    4d26:	0789                	addi	a5,a5,2
    4d28:	01171613          	slli	a2,a4,0x11
    4d2c:	00064863          	bltz	a2,4d3c <RCC_GetClocksFreq+0x9e>
    4d30:	4645                	li	a2,17
    4d32:	4701                	li	a4,0
    4d34:	02c79263          	bne	a5,a2,4d58 <RCC_GetClocksFreq+0xba>
    4d38:	47c9                	li	a5,18
    4d3a:	a839                	j	4d58 <RCC_GetClocksFreq+0xba>
    4d3c:	4709                	li	a4,2
    4d3e:	02e78963          	beq	a5,a4,4d70 <RCC_GetClocksFreq+0xd2>
    4d42:	473d                	li	a4,15
    4d44:	02e78863          	beq	a5,a4,4d74 <RCC_GetClocksFreq+0xd6>
    4d48:	4741                	li	a4,16
    4d4a:	02e78863          	beq	a5,a4,4d7a <RCC_GetClocksFreq+0xdc>
    4d4e:	4645                	li	a2,17
    4d50:	4701                	li	a4,0
    4d52:	00c79363          	bne	a5,a2,4d58 <RCC_GetClocksFreq+0xba>
    4d56:	47c1                	li	a5,16
    4d58:	e685                	bnez	a3,4d80 <RCC_GetClocksFreq+0xe2>
    4d5a:	400246b7          	lui	a3,0x40024
    4d5e:	8006a683          	lw	a3,-2048(a3) # 40023800 <_eusrstack+0x20013800>
    4d62:	8ac1                	andi	a3,a3,16
    4d64:	c68d                	beqz	a3,4d8e <RCC_GetClocksFreq+0xf0>
    4d66:	007a16b7          	lui	a3,0x7a1
    4d6a:	20068693          	addi	a3,a3,512 # 7a1200 <__rt_init_end+0x7976a4>
    4d6e:	a025                	j	4d96 <RCC_GetClocksFreq+0xf8>
    4d70:	4701                	li	a4,0
    4d72:	b7d9                	j	4d38 <RCC_GetClocksFreq+0x9a>
    4d74:	4705                	li	a4,1
    4d76:	47b5                	li	a5,13
    4d78:	b7c5                	j	4d58 <RCC_GetClocksFreq+0xba>
    4d7a:	4701                	li	a4,0
    4d7c:	47bd                	li	a5,15
    4d7e:	bfe9                	j	4d58 <RCC_GetClocksFreq+0xba>
    4d80:	400216b7          	lui	a3,0x40021
    4d84:	42d4                	lw	a3,4(a3)
    4d86:	00e69613          	slli	a2,a3,0xe
    4d8a:	fc065ee3          	bgez	a2,4d66 <RCC_GetClocksFreq+0xc8>
    4d8e:	003d16b7          	lui	a3,0x3d1
    4d92:	90068693          	addi	a3,a3,-1792 # 3d0900 <__rt_init_end+0x3c6da4>
    4d96:	02d787b3          	mul	a5,a5,a3
    4d9a:	c11c                	sw	a5,0(a0)
    4d9c:	d305                	beqz	a4,4cbc <RCC_GetClocksFreq+0x1e>
    4d9e:	411c                	lw	a5,0(a0)
    4da0:	8385                	srli	a5,a5,0x1
    4da2:	bf21                	j	4cba <RCC_GetClocksFreq+0x1c>

00004da4 <RCC_AHBPeriphClockCmd>:
    4da4:	c599                	beqz	a1,4db2 <RCC_AHBPeriphClockCmd+0xe>
    4da6:	40021737          	lui	a4,0x40021
    4daa:	4b5c                	lw	a5,20(a4)
    4dac:	8d5d                	or	a0,a0,a5
    4dae:	cb48                	sw	a0,20(a4)
    4db0:	8082                	ret
    4db2:	400217b7          	lui	a5,0x40021
    4db6:	4bd8                	lw	a4,20(a5)
    4db8:	fff54513          	not	a0,a0
    4dbc:	8d79                	and	a0,a0,a4
    4dbe:	cbc8                	sw	a0,20(a5)
    4dc0:	8082                	ret

00004dc2 <RCC_APB2PeriphClockCmd>:
    4dc2:	c599                	beqz	a1,4dd0 <RCC_APB2PeriphClockCmd+0xe>
    4dc4:	40021737          	lui	a4,0x40021
    4dc8:	4f1c                	lw	a5,24(a4)
    4dca:	8d5d                	or	a0,a0,a5
    4dcc:	cf08                	sw	a0,24(a4)
    4dce:	8082                	ret
    4dd0:	400217b7          	lui	a5,0x40021
    4dd4:	4f98                	lw	a4,24(a5)
    4dd6:	fff54513          	not	a0,a0
    4dda:	8d79                	and	a0,a0,a4
    4ddc:	cf88                	sw	a0,24(a5)
    4dde:	8082                	ret

00004de0 <RCC_APB1PeriphClockCmd>:
    4de0:	c599                	beqz	a1,4dee <RCC_APB1PeriphClockCmd+0xe>
    4de2:	40021737          	lui	a4,0x40021
    4de6:	4f5c                	lw	a5,28(a4)
    4de8:	8d5d                	or	a0,a0,a5
    4dea:	cf48                	sw	a0,28(a4)
    4dec:	8082                	ret
    4dee:	400217b7          	lui	a5,0x40021
    4df2:	4fd8                	lw	a4,28(a5)
    4df4:	fff54513          	not	a0,a0
    4df8:	8d79                	and	a0,a0,a4
    4dfa:	cfc8                	sw	a0,28(a5)
    4dfc:	8082                	ret

00004dfe <TIM_TimeBaseInit>:
    4dfe:	211e                	lhu	a5,0(a0)
    4e00:	40013737          	lui	a4,0x40013
    4e04:	c0070693          	addi	a3,a4,-1024 # 40012c00 <_eusrstack+0x20002c00>
    4e08:	07c2                	slli	a5,a5,0x10
    4e0a:	83c1                	srli	a5,a5,0x10
    4e0c:	04d50063          	beq	a0,a3,4e4c <TIM_TimeBaseInit+0x4e>
    4e10:	400006b7          	lui	a3,0x40000
    4e14:	02d50c63          	beq	a0,a3,4e4c <TIM_TimeBaseInit+0x4e>
    4e18:	40068693          	addi	a3,a3,1024 # 40000400 <_eusrstack+0x1fff0400>
    4e1c:	02d50863          	beq	a0,a3,4e4c <TIM_TimeBaseInit+0x4e>
    4e20:	400016b7          	lui	a3,0x40001
    4e24:	80068613          	addi	a2,a3,-2048 # 40000800 <_eusrstack+0x1fff0800>
    4e28:	02c50263          	beq	a0,a2,4e4c <TIM_TimeBaseInit+0x4e>
    4e2c:	c0068693          	addi	a3,a3,-1024
    4e30:	00d50e63          	beq	a0,a3,4e4c <TIM_TimeBaseInit+0x4e>
    4e34:	40070713          	addi	a4,a4,1024
    4e38:	00e50a63          	beq	a0,a4,4e4c <TIM_TimeBaseInit+0x4e>
    4e3c:	40015737          	lui	a4,0x40015
    4e40:	c0070693          	addi	a3,a4,-1024 # 40014c00 <_eusrstack+0x20004c00>
    4e44:	00d50463          	beq	a0,a3,4e4c <TIM_TimeBaseInit+0x4e>
    4e48:	00e51663          	bne	a0,a4,4e54 <TIM_TimeBaseInit+0x56>
    4e4c:	21ba                	lhu	a4,2(a1)
    4e4e:	f8f7f793          	andi	a5,a5,-113
    4e52:	8fd9                	or	a5,a5,a4
    4e54:	40001737          	lui	a4,0x40001
    4e58:	00e50c63          	beq	a0,a4,4e70 <TIM_TimeBaseInit+0x72>
    4e5c:	40070713          	addi	a4,a4,1024 # 40001400 <_eusrstack+0x1fff1400>
    4e60:	00e50863          	beq	a0,a4,4e70 <TIM_TimeBaseInit+0x72>
    4e64:	cff7f793          	andi	a5,a5,-769
    4e68:	21fa                	lhu	a4,6(a1)
    4e6a:	07c2                	slli	a5,a5,0x10
    4e6c:	83c1                	srli	a5,a5,0x10
    4e6e:	8fd9                	or	a5,a5,a4
    4e70:	a11e                	sh	a5,0(a0)
    4e72:	21de                	lhu	a5,4(a1)
    4e74:	b55e                	sh	a5,44(a0)
    4e76:	219e                	lhu	a5,0(a1)
    4e78:	b51e                	sh	a5,40(a0)
    4e7a:	400137b7          	lui	a5,0x40013
    4e7e:	c0078713          	addi	a4,a5,-1024 # 40012c00 <_eusrstack+0x20002c00>
    4e82:	00e50e63          	beq	a0,a4,4e9e <TIM_TimeBaseInit+0xa0>
    4e86:	40078793          	addi	a5,a5,1024
    4e8a:	00f50a63          	beq	a0,a5,4e9e <TIM_TimeBaseInit+0xa0>
    4e8e:	400157b7          	lui	a5,0x40015
    4e92:	c0078713          	addi	a4,a5,-1024 # 40014c00 <_eusrstack+0x20004c00>
    4e96:	00e50463          	beq	a0,a4,4e9e <TIM_TimeBaseInit+0xa0>
    4e9a:	00f51463          	bne	a0,a5,4ea2 <TIM_TimeBaseInit+0xa4>
    4e9e:	259c                	lbu	a5,8(a1)
    4ea0:	b91e                	sh	a5,48(a0)
    4ea2:	4785                	li	a5,1
    4ea4:	a95e                	sh	a5,20(a0)
    4ea6:	8082                	ret

00004ea8 <TIM_TimeBaseStructInit>:
    4ea8:	57fd                	li	a5,-1
    4eaa:	a15e                	sh	a5,4(a0)
    4eac:	00051023          	sh	zero,0(a0)
    4eb0:	00051323          	sh	zero,6(a0)
    4eb4:	00051123          	sh	zero,2(a0)
    4eb8:	00050423          	sb	zero,8(a0)
    4ebc:	8082                	ret

00004ebe <TIM_Cmd>:
    4ebe:	211e                	lhu	a5,0(a0)
    4ec0:	c589                	beqz	a1,4eca <TIM_Cmd+0xc>
    4ec2:	0017e793          	ori	a5,a5,1
    4ec6:	a11e                	sh	a5,0(a0)
    4ec8:	8082                	ret
    4eca:	07c2                	slli	a5,a5,0x10
    4ecc:	83c1                	srli	a5,a5,0x10
    4ece:	9bf9                	andi	a5,a5,-2
    4ed0:	07c2                	slli	a5,a5,0x10
    4ed2:	83c1                	srli	a5,a5,0x10
    4ed4:	bfcd                	j	4ec6 <TIM_Cmd+0x8>

00004ed6 <TIM_SelectOutputTrigger>:
    4ed6:	215e                	lhu	a5,4(a0)
    4ed8:	07c2                	slli	a5,a5,0x10
    4eda:	83c1                	srli	a5,a5,0x10
    4edc:	f8f7f793          	andi	a5,a5,-113
    4ee0:	07c2                	slli	a5,a5,0x10
    4ee2:	83c1                	srli	a5,a5,0x10
    4ee4:	a15e                	sh	a5,4(a0)
    4ee6:	215e                	lhu	a5,4(a0)
    4ee8:	8ddd                	or	a1,a1,a5
    4eea:	a14e                	sh	a1,4(a0)
    4eec:	8082                	ret

00004eee <USART_Init>:
    4eee:	dfcfb2ef          	jal	t0,4ea <__riscv_save_0>
    4ef2:	2916                	lhu	a3,16(a0)
    4ef4:	77f5                	lui	a5,0xffffd
    4ef6:	17fd                	addi	a5,a5,-1
    4ef8:	8ff5                	and	a5,a5,a3
    4efa:	21f6                	lhu	a3,6(a1)
    4efc:	25da                	lhu	a4,12(a1)
    4efe:	7179                	addi	sp,sp,-48
    4f00:	8fd5                	or	a5,a5,a3
    4f02:	a91e                	sh	a5,16(a0)
    4f04:	2556                	lhu	a3,12(a0)
    4f06:	77fd                	lui	a5,0xfffff
    4f08:	9f378793          	addi	a5,a5,-1549 # ffffe9f3 <_eusrstack+0xdffee9f3>
    4f0c:	8ff5                	and	a5,a5,a3
    4f0e:	21d6                	lhu	a3,4(a1)
    4f10:	842a                	mv	s0,a0
    4f12:	c62e                	sw	a1,12(sp)
    4f14:	8fd5                	or	a5,a5,a3
    4f16:	2596                	lhu	a3,8(a1)
    4f18:	8fd5                	or	a5,a5,a3
    4f1a:	25b6                	lhu	a3,10(a1)
    4f1c:	8fd5                	or	a5,a5,a3
    4f1e:	a55e                	sh	a5,12(a0)
    4f20:	295e                	lhu	a5,20(a0)
    4f22:	07c2                	slli	a5,a5,0x10
    4f24:	83c1                	srli	a5,a5,0x10
    4f26:	cff7f793          	andi	a5,a5,-769
    4f2a:	8fd9                	or	a5,a5,a4
    4f2c:	a95e                	sh	a5,20(a0)
    4f2e:	0868                	addi	a0,sp,28
    4f30:	d6fff0ef          	jal	ra,4c9e <RCC_GetClocksFreq>
    4f34:	400147b7          	lui	a5,0x40014
    4f38:	80078793          	addi	a5,a5,-2048 # 40013800 <_eusrstack+0x20003800>
    4f3c:	45b2                	lw	a1,12(sp)
    4f3e:	04f41a63          	bne	s0,a5,4f92 <USART_Init+0xa4>
    4f42:	57a2                	lw	a5,40(sp)
    4f44:	2456                	lhu	a3,12(s0)
    4f46:	4765                	li	a4,25
    4f48:	02e787b3          	mul	a5,a5,a4
    4f4c:	06c2                	slli	a3,a3,0x10
    4f4e:	86c1                	srai	a3,a3,0x10
    4f50:	4198                	lw	a4,0(a1)
    4f52:	0406d263          	bgez	a3,4f96 <USART_Init+0xa8>
    4f56:	0706                	slli	a4,a4,0x1
    4f58:	2452                	lhu	a2,12(s0)
    4f5a:	0642                	slli	a2,a2,0x10
    4f5c:	02e7d7b3          	divu	a5,a5,a4
    4f60:	06400713          	li	a4,100
    4f64:	8641                	srai	a2,a2,0x10
    4f66:	02e7d6b3          	divu	a3,a5,a4
    4f6a:	02e7f7b3          	remu	a5,a5,a4
    4f6e:	0692                	slli	a3,a3,0x4
    4f70:	02065563          	bgez	a2,4f9a <USART_Init+0xac>
    4f74:	078e                	slli	a5,a5,0x3
    4f76:	03278793          	addi	a5,a5,50
    4f7a:	02e7d7b3          	divu	a5,a5,a4
    4f7e:	0077f713          	andi	a4,a5,7
    4f82:	00d767b3          	or	a5,a4,a3
    4f86:	07c2                	slli	a5,a5,0x10
    4f88:	83c1                	srli	a5,a5,0x10
    4f8a:	a41e                	sh	a5,8(s0)
    4f8c:	6145                	addi	sp,sp,48
    4f8e:	d80fb06f          	j	50e <__riscv_restore_0>
    4f92:	5792                	lw	a5,36(sp)
    4f94:	bf45                	j	4f44 <USART_Init+0x56>
    4f96:	070a                	slli	a4,a4,0x2
    4f98:	b7c1                	j	4f58 <USART_Init+0x6a>
    4f9a:	0792                	slli	a5,a5,0x4
    4f9c:	03278793          	addi	a5,a5,50
    4fa0:	02e7d7b3          	divu	a5,a5,a4
    4fa4:	8bbd                	andi	a5,a5,15
    4fa6:	8fd5                	or	a5,a5,a3
    4fa8:	bff9                	j	4f86 <USART_Init+0x98>

00004faa <USART_Cmd>:
    4faa:	c591                	beqz	a1,4fb6 <USART_Cmd+0xc>
    4fac:	255e                	lhu	a5,12(a0)
    4fae:	6709                	lui	a4,0x2
    4fb0:	8fd9                	or	a5,a5,a4
    4fb2:	a55e                	sh	a5,12(a0)
    4fb4:	8082                	ret
    4fb6:	255a                	lhu	a4,12(a0)
    4fb8:	77f9                	lui	a5,0xffffe
    4fba:	17fd                	addi	a5,a5,-1
    4fbc:	8ff9                	and	a5,a5,a4
    4fbe:	bfd5                	j	4fb2 <USART_Cmd+0x8>

00004fc0 <USART_ITConfig>:
    4fc0:	0ff5f713          	andi	a4,a1,255
    4fc4:	4785                	li	a5,1
    4fc6:	8315                	srli	a4,a4,0x5
    4fc8:	00b795b3          	sll	a1,a5,a1
    4fcc:	00f71963          	bne	a4,a5,4fde <USART_ITConfig+0x1e>
    4fd0:	00c50793          	addi	a5,a0,12
    4fd4:	4398                	lw	a4,0(a5)
    4fd6:	ce01                	beqz	a2,4fee <USART_ITConfig+0x2e>
    4fd8:	8dd9                	or	a1,a1,a4
    4fda:	c38c                	sw	a1,0(a5)
    4fdc:	8082                	ret
    4fde:	4689                	li	a3,2
    4fe0:	01450793          	addi	a5,a0,20
    4fe4:	fed718e3          	bne	a4,a3,4fd4 <USART_ITConfig+0x14>
    4fe8:	01050793          	addi	a5,a0,16
    4fec:	b7e5                	j	4fd4 <USART_ITConfig+0x14>
    4fee:	fff5c593          	not	a1,a1
    4ff2:	8df9                	and	a1,a1,a4
    4ff4:	b7dd                	j	4fda <USART_ITConfig+0x1a>

00004ff6 <USART_GetFlagStatus>:
    4ff6:	210a                	lhu	a0,0(a0)
    4ff8:	8d6d                	and	a0,a0,a1
    4ffa:	00a03533          	snez	a0,a0
    4ffe:	8082                	ret

00005000 <USART_GetITStatus>:
    5000:	0ff5f713          	andi	a4,a1,255
    5004:	4685                	li	a3,1
    5006:	8315                	srli	a4,a4,0x5
    5008:	00b697b3          	sll	a5,a3,a1
    500c:	02d71163          	bne	a4,a3,502e <USART_GetITStatus+0x2e>
    5010:	255a                	lhu	a4,12(a0)
    5012:	8ff9                	and	a5,a5,a4
    5014:	211a                	lhu	a4,0(a0)
    5016:	4501                	li	a0,0
    5018:	0742                	slli	a4,a4,0x10
    501a:	8341                	srli	a4,a4,0x10
    501c:	cb81                	beqz	a5,502c <USART_GetITStatus+0x2c>
    501e:	4505                	li	a0,1
    5020:	81a1                	srli	a1,a1,0x8
    5022:	00b515b3          	sll	a1,a0,a1
    5026:	8f6d                	and	a4,a4,a1
    5028:	00e03533          	snez	a0,a4
    502c:	8082                	ret
    502e:	4689                	li	a3,2
    5030:	00d71463          	bne	a4,a3,5038 <USART_GetITStatus+0x38>
    5034:	291a                	lhu	a4,16(a0)
    5036:	bff1                	j	5012 <USART_GetITStatus+0x12>
    5038:	295a                	lhu	a4,20(a0)
    503a:	bfe1                	j	5012 <USART_GetITStatus+0x12>

0000503c <USART_ClearITPendingBit>:
    503c:	81a1                	srli	a1,a1,0x8
    503e:	4785                	li	a5,1
    5040:	00b797b3          	sll	a5,a5,a1
    5044:	fff7c793          	not	a5,a5
    5048:	07c2                	slli	a5,a5,0x10
    504a:	83c1                	srli	a5,a5,0x10
    504c:	a11e                	sh	a5,0(a0)
    504e:	8082                	ret

00005050 <SysTick_Handler>:
    5050:	715d                	addi	sp,sp,-80
    5052:	e682                	fsw	ft0,76(sp)
    5054:	e486                	fsw	ft1,72(sp)
    5056:	e28a                	fsw	ft2,68(sp)
    5058:	e08e                	fsw	ft3,64(sp)
    505a:	fe12                	fsw	ft4,60(sp)
    505c:	fc16                	fsw	ft5,56(sp)
    505e:	fa1a                	fsw	ft6,52(sp)
    5060:	f81e                	fsw	ft7,48(sp)
    5062:	f62a                	fsw	fa0,44(sp)
    5064:	f42e                	fsw	fa1,40(sp)
    5066:	f232                	fsw	fa2,36(sp)
    5068:	f036                	fsw	fa3,32(sp)
    506a:	ee3a                	fsw	fa4,28(sp)
    506c:	ec3e                	fsw	fa5,24(sp)
    506e:	ea42                	fsw	fa6,20(sp)
    5070:	e846                	fsw	fa7,16(sp)
    5072:	e672                	fsw	ft8,12(sp)
    5074:	e476                	fsw	ft9,8(sp)
    5076:	e27a                	fsw	ft10,4(sp)
    5078:	e07e                	fsw	ft11,0(sp)
    507a:	34011173          	csrrw	sp,mscratch,sp
    507e:	999fb0ef          	jal	ra,a16 <rt_interrupt_enter>
    5082:	e000f7b7          	lui	a5,0xe000f
    5086:	0007a223          	sw	zero,4(a5) # e000f004 <_eusrstack+0xbffff004>
    508a:	d3efb0ef          	jal	ra,5c8 <rt_tick_increase>
    508e:	9b5fb0ef          	jal	ra,a42 <rt_interrupt_leave>
    5092:	34011173          	csrrw	sp,mscratch,sp
    5096:	6036                	flw	ft0,76(sp)
    5098:	60a6                	flw	ft1,72(sp)
    509a:	6116                	flw	ft2,68(sp)
    509c:	6186                	flw	ft3,64(sp)
    509e:	7272                	flw	ft4,60(sp)
    50a0:	72e2                	flw	ft5,56(sp)
    50a2:	7352                	flw	ft6,52(sp)
    50a4:	73c2                	flw	ft7,48(sp)
    50a6:	7532                	flw	fa0,44(sp)
    50a8:	75a2                	flw	fa1,40(sp)
    50aa:	7612                	flw	fa2,36(sp)
    50ac:	7682                	flw	fa3,32(sp)
    50ae:	6772                	flw	fa4,28(sp)
    50b0:	67e2                	flw	fa5,24(sp)
    50b2:	6852                	flw	fa6,20(sp)
    50b4:	68c2                	flw	fa7,16(sp)
    50b6:	6e32                	flw	ft8,12(sp)
    50b8:	6ea2                	flw	ft9,8(sp)
    50ba:	6f12                	flw	ft10,4(sp)
    50bc:	6f82                	flw	ft11,0(sp)
    50be:	6161                	addi	sp,sp,80
    50c0:	30200073          	mret

000050c4 <sinf>:
    50c4:	e00507d3          	fmv.x.w	a5,fa0
    50c8:	1101                	addi	sp,sp,-32
    50ca:	3f4916b7          	lui	a3,0x3f491
    50ce:	00179713          	slli	a4,a5,0x1
    50d2:	ce06                	sw	ra,28(sp)
    50d4:	fd868693          	addi	a3,a3,-40 # 3f490fd8 <_eusrstack+0x1f480fd8>
    50d8:	8305                	srli	a4,a4,0x1
    50da:	02e6db63          	bge	a3,a4,5110 <sinf+0x4c>
    50de:	7f8006b7          	lui	a3,0x7f800
    50e2:	00d74763          	blt	a4,a3,50f0 <sinf+0x2c>
    50e6:	08a57553          	fsub.s	fa0,fa0,fa0
    50ea:	40f2                	lw	ra,28(sp)
    50ec:	6105                	addi	sp,sp,32
    50ee:	8082                	ret
    50f0:	0028                	addi	a0,sp,8
    50f2:	20a9                	jal	513c <__ieee754_rem_pio2f>
    50f4:	890d                	andi	a0,a0,3
    50f6:	4785                	li	a5,1
    50f8:	02f50463          	beq	a0,a5,5120 <sinf+0x5c>
    50fc:	4789                	li	a5,2
    50fe:	65b2                	flw	fa1,12(sp)
    5100:	6522                	flw	fa0,8(sp)
    5102:	02f50763          	beq	a0,a5,5130 <sinf+0x6c>
    5106:	c10d                	beqz	a0,5128 <sinf+0x64>
    5108:	24e5                	jal	53f0 <__kernel_cosf>
    510a:	20a51553          	fneg.s	fa0,fa0
    510e:	bff1                	j	50ea <sinf+0x26>
    5110:	f00005d3          	fmv.w.x	fa1,zero
    5114:	4501                	li	a0,0
    5116:	30d000ef          	jal	ra,5c22 <__kernel_sinf>
    511a:	40f2                	lw	ra,28(sp)
    511c:	6105                	addi	sp,sp,32
    511e:	8082                	ret
    5120:	65b2                	flw	fa1,12(sp)
    5122:	6522                	flw	fa0,8(sp)
    5124:	24f1                	jal	53f0 <__kernel_cosf>
    5126:	b7d1                	j	50ea <sinf+0x26>
    5128:	4505                	li	a0,1
    512a:	2f9000ef          	jal	ra,5c22 <__kernel_sinf>
    512e:	bf75                	j	50ea <sinf+0x26>
    5130:	4505                	li	a0,1
    5132:	2f1000ef          	jal	ra,5c22 <__kernel_sinf>
    5136:	20a51553          	fneg.s	fa0,fa0
    513a:	bf45                	j	50ea <sinf+0x26>

0000513c <__ieee754_rem_pio2f>:
    513c:	e00507d3          	fmv.x.w	a5,fa0
    5140:	1101                	addi	sp,sp,-32
    5142:	cc22                	sw	s0,24(sp)
    5144:	3f491737          	lui	a4,0x3f491
    5148:	00179413          	slli	s0,a5,0x1
    514c:	ca26                	sw	s1,20(sp)
    514e:	ce06                	sw	ra,28(sp)
    5150:	c84a                	sw	s2,16(sp)
    5152:	fd870713          	addi	a4,a4,-40 # 3f490fd8 <_eusrstack+0x1f480fd8>
    5156:	8005                	srli	s0,s0,0x1
    5158:	84aa                	mv	s1,a0
    515a:	0e875563          	bge	a4,s0,5244 <__ieee754_rem_pio2f+0x108>
    515e:	4016d737          	lui	a4,0x4016d
    5162:	be370713          	addi	a4,a4,-1053 # 4016cbe3 <_eusrstack+0x2015cbe3>
    5166:	893e                	mv	s2,a5
    5168:	04874463          	blt	a4,s0,51b0 <__ieee754_rem_pio2f+0x74>
    516c:	00004717          	auipc	a4,0x4
    5170:	2ac72787          	flw	fa5,684(a4) # 9418 <ch32_uart_ops+0xdc>
    5174:	3fc91737          	lui	a4,0x3fc91
    5178:	9841                	andi	s0,s0,-16
    517a:	fd070713          	addi	a4,a4,-48 # 3fc90fd0 <_eusrstack+0x1fc80fd0>
    517e:	22f05363          	blez	a5,53a4 <__ieee754_rem_pio2f+0x268>
    5182:	08f577d3          	fsub.s	fa5,fa0,fa5
    5186:	0ce40f63          	beq	s0,a4,5264 <__ieee754_rem_pio2f+0x128>
    518a:	00004797          	auipc	a5,0x4
    518e:	2927a707          	flw	fa4,658(a5) # 941c <ch32_uart_ops+0xe0>
    5192:	08e7f6d3          	fsub.s	fa3,fa5,fa4
    5196:	4505                	li	a0,1
    5198:	08d7f7d3          	fsub.s	fa5,fa5,fa3
    519c:	e094                	fsw	fa3,0(s1)
    519e:	08e7f7d3          	fsub.s	fa5,fa5,fa4
    51a2:	e0dc                	fsw	fa5,4(s1)
    51a4:	40f2                	lw	ra,28(sp)
    51a6:	4462                	lw	s0,24(sp)
    51a8:	44d2                	lw	s1,20(sp)
    51aa:	4942                	lw	s2,16(sp)
    51ac:	6105                	addi	sp,sp,32
    51ae:	8082                	ret
    51b0:	434917b7          	lui	a5,0x43491
    51b4:	f8078793          	addi	a5,a5,-128 # 43490f80 <_eusrstack+0x23480f80>
    51b8:	0c87df63          	bge	a5,s0,5296 <__ieee754_rem_pio2f+0x15a>
    51bc:	7f8007b7          	lui	a5,0x7f800
    51c0:	08f45c63          	bge	s0,a5,5258 <__ieee754_rem_pio2f+0x11c>
    51c4:	41745613          	srai	a2,s0,0x17
    51c8:	f7a60613          	addi	a2,a2,-134 # 40020f7a <_eusrstack+0x20010f7a>
    51cc:	01761793          	slli	a5,a2,0x17
    51d0:	8c1d                	sub	s0,s0,a5
    51d2:	f00407d3          	fmv.w.x	fa5,s0
    51d6:	00004717          	auipc	a4,0x4
    51da:	26272687          	flw	fa3,610(a4) # 9438 <ch32_uart_ops+0xfc>
    51de:	f0000653          	fmv.w.x	fa2,zero
    51e2:	c00797d3          	fcvt.w.s	a5,fa5,rtz
    51e6:	468d                	li	a3,3
    51e8:	d007f753          	fcvt.s.w	fa4,a5
    51ec:	08e7f7d3          	fsub.s	fa5,fa5,fa4
    51f0:	e23a                	fsw	fa4,4(sp)
    51f2:	10d7f7d3          	fmul.s	fa5,fa5,fa3
    51f6:	c00797d3          	fcvt.w.s	a5,fa5,rtz
    51fa:	d007f753          	fcvt.s.w	fa4,a5
    51fe:	08e7f7d3          	fsub.s	fa5,fa5,fa4
    5202:	e43a                	fsw	fa4,8(sp)
    5204:	10d7f7d3          	fmul.s	fa5,fa5,fa3
    5208:	a0c7a7d3          	feq.s	a5,fa5,fa2
    520c:	e63e                	fsw	fa5,12(sp)
    520e:	c791                	beqz	a5,521a <__ieee754_rem_pio2f+0xde>
    5210:	a0c726d3          	feq.s	a3,fa4,fa2
    5214:	0016b693          	seqz	a3,a3
    5218:	0685                	addi	a3,a3,1
    521a:	00004797          	auipc	a5,0x4
    521e:	2a278793          	addi	a5,a5,674 # 94bc <two_over_pi>
    5222:	4709                	li	a4,2
    5224:	85a6                	mv	a1,s1
    5226:	0048                	addi	a0,sp,4
    5228:	2621                	jal	5530 <__kernel_rem_pio2f>
    522a:	f6095de3          	bgez	s2,51a4 <__ieee754_rem_pio2f+0x68>
    522e:	6098                	flw	fa4,0(s1)
    5230:	60dc                	flw	fa5,4(s1)
    5232:	40a00533          	neg	a0,a0
    5236:	20e71753          	fneg.s	fa4,fa4
    523a:	20f797d3          	fneg.s	fa5,fa5
    523e:	e098                	fsw	fa4,0(s1)
    5240:	e0dc                	fsw	fa5,4(s1)
    5242:	b78d                	j	51a4 <__ieee754_rem_pio2f+0x68>
    5244:	40f2                	lw	ra,28(sp)
    5246:	4462                	lw	s0,24(sp)
    5248:	e088                	fsw	fa0,0(s1)
    524a:	00052223          	sw	zero,4(a0)
    524e:	44d2                	lw	s1,20(sp)
    5250:	4942                	lw	s2,16(sp)
    5252:	4501                	li	a0,0
    5254:	6105                	addi	sp,sp,32
    5256:	8082                	ret
    5258:	08a577d3          	fsub.s	fa5,fa0,fa0
    525c:	4501                	li	a0,0
    525e:	e0dc                	fsw	fa5,4(s1)
    5260:	e09c                	fsw	fa5,0(s1)
    5262:	b789                	j	51a4 <__ieee754_rem_pio2f+0x68>
    5264:	00004797          	auipc	a5,0x4
    5268:	1bc7a707          	flw	fa4,444(a5) # 9420 <ch32_uart_ops+0xe4>
    526c:	08e7f7d3          	fsub.s	fa5,fa5,fa4
    5270:	00004797          	auipc	a5,0x4
    5274:	1b47a707          	flw	fa4,436(a5) # 9424 <ch32_uart_ops+0xe8>
    5278:	40f2                	lw	ra,28(sp)
    527a:	4462                	lw	s0,24(sp)
    527c:	4942                	lw	s2,16(sp)
    527e:	08e7f6d3          	fsub.s	fa3,fa5,fa4
    5282:	4505                	li	a0,1
    5284:	08d7f7d3          	fsub.s	fa5,fa5,fa3
    5288:	e094                	fsw	fa3,0(s1)
    528a:	08e7f7d3          	fsub.s	fa5,fa5,fa4
    528e:	e0dc                	fsw	fa5,4(s1)
    5290:	44d2                	lw	s1,20(sp)
    5292:	6105                	addi	sp,sp,32
    5294:	8082                	ret
    5296:	22f000ef          	jal	ra,5cc4 <fabsf>
    529a:	00004797          	auipc	a5,0x4
    529e:	1927a787          	flw	fa5,402(a5) # 942c <ch32_uart_ops+0xf0>
    52a2:	00004797          	auipc	a5,0x4
    52a6:	1867a687          	flw	fa3,390(a5) # 9428 <ch32_uart_ops+0xec>
    52aa:	78d576c3          	fmadd.s	fa3,fa0,fa3,fa5
    52ae:	00004797          	auipc	a5,0x4
    52b2:	16e7a707          	flw	fa4,366(a5) # 941c <ch32_uart_ops+0xe0>
    52b6:	00004797          	auipc	a5,0x4
    52ba:	1627a787          	flw	fa5,354(a5) # 9418 <ch32_uart_ops+0xdc>
    52be:	47fd                	li	a5,31
    52c0:	c0069553          	fcvt.w.s	a0,fa3,rtz
    52c4:	d00576d3          	fcvt.s.w	fa3,a0
    52c8:	50f6f54b          	fnmsub.s	fa0,fa3,fa5,fa0
    52cc:	10e6f7d3          	fmul.s	fa5,fa3,fa4
    52d0:	04a7c763          	blt	a5,a0,531e <__ieee754_rem_pio2f+0x1e2>
    52d4:	fff50793          	addi	a5,a0,-1
    52d8:	00279713          	slli	a4,a5,0x2
    52dc:	08f57753          	fsub.s	fa4,fa0,fa5
    52e0:	00004797          	auipc	a5,0x4
    52e4:	15c78793          	addi	a5,a5,348 # 943c <npio2_hw>
    52e8:	97ba                	add	a5,a5,a4
    52ea:	4394                	lw	a3,0(a5)
    52ec:	f0047713          	andi	a4,s0,-256
    52f0:	e00707d3          	fmv.x.w	a5,fa4
    52f4:	02d70963          	beq	a4,a3,5326 <__ieee754_rem_pio2f+0x1ea>
    52f8:	c09c                	sw	a5,0(s1)
    52fa:	f0078753          	fmv.w.x	fa4,a5
    52fe:	08e57553          	fsub.s	fa0,fa0,fa4
    5302:	08f57553          	fsub.s	fa0,fa0,fa5
    5306:	e0c8                	fsw	fa0,4(s1)
    5308:	e8095ee3          	bgez	s2,51a4 <__ieee754_rem_pio2f+0x68>
    530c:	20e717d3          	fneg.s	fa5,fa4
    5310:	20a51553          	fneg.s	fa0,fa0
    5314:	40a00533          	neg	a0,a0
    5318:	e09c                	fsw	fa5,0(s1)
    531a:	e0c8                	fsw	fa0,4(s1)
    531c:	b561                	j	51a4 <__ieee754_rem_pio2f+0x68>
    531e:	08f57753          	fsub.s	fa4,fa0,fa5
    5322:	e00707d3          	fmv.x.w	a5,fa4
    5326:	0177d713          	srli	a4,a5,0x17
    532a:	845d                	srai	s0,s0,0x17
    532c:	0ff77713          	andi	a4,a4,255
    5330:	40e40733          	sub	a4,s0,a4
    5334:	46a1                	li	a3,8
    5336:	fce6d1e3          	bge	a3,a4,52f8 <__ieee754_rem_pio2f+0x1bc>
    533a:	00004797          	auipc	a5,0x4
    533e:	0e67a607          	flw	fa2,230(a5) # 9420 <ch32_uart_ops+0xe4>
    5342:	50c6f74b          	fnmsub.s	fa4,fa3,fa2,fa0
    5346:	00004797          	auipc	a5,0x4
    534a:	0de7a787          	flw	fa5,222(a5) # 9424 <ch32_uart_ops+0xe8>
    534e:	46e5                	li	a3,25
    5350:	08e57553          	fsub.s	fa0,fa0,fa4
    5354:	50c6f54b          	fnmsub.s	fa0,fa3,fa2,fa0
    5358:	50f6f7c7          	fmsub.s	fa5,fa3,fa5,fa0
    535c:	08f77653          	fsub.s	fa2,fa4,fa5
    5360:	e00607d3          	fmv.x.w	a5,fa2
    5364:	0177d713          	srli	a4,a5,0x17
    5368:	0ff77713          	andi	a4,a4,255
    536c:	8c19                	sub	s0,s0,a4
    536e:	0086c663          	blt	a3,s0,537a <__ieee754_rem_pio2f+0x23e>
    5372:	e090                	fsw	fa2,0(s1)
    5374:	20e70553          	fmv.s	fa0,fa4
    5378:	b749                	j	52fa <__ieee754_rem_pio2f+0x1be>
    537a:	00004797          	auipc	a5,0x4
    537e:	0b67a607          	flw	fa2,182(a5) # 9430 <ch32_uart_ops+0xf4>
    5382:	70c6f54b          	fnmsub.s	fa0,fa3,fa2,fa4
    5386:	00004797          	auipc	a5,0x4
    538a:	0ae7a787          	flw	fa5,174(a5) # 9434 <ch32_uart_ops+0xf8>
    538e:	08a77753          	fsub.s	fa4,fa4,fa0
    5392:	70c6f74b          	fnmsub.s	fa4,fa3,fa2,fa4
    5396:	70f6f7c7          	fmsub.s	fa5,fa3,fa5,fa4
    539a:	08f57753          	fsub.s	fa4,fa0,fa5
    539e:	e00707d3          	fmv.x.w	a5,fa4
    53a2:	bf99                	j	52f8 <__ieee754_rem_pio2f+0x1bc>
    53a4:	00f577d3          	fadd.s	fa5,fa0,fa5
    53a8:	02e40063          	beq	s0,a4,53c8 <__ieee754_rem_pio2f+0x28c>
    53ac:	00004797          	auipc	a5,0x4
    53b0:	0707a707          	flw	fa4,112(a5) # 941c <ch32_uart_ops+0xe0>
    53b4:	00e7f6d3          	fadd.s	fa3,fa5,fa4
    53b8:	557d                	li	a0,-1
    53ba:	08d7f7d3          	fsub.s	fa5,fa5,fa3
    53be:	e094                	fsw	fa3,0(s1)
    53c0:	00e7f7d3          	fadd.s	fa5,fa5,fa4
    53c4:	e0dc                	fsw	fa5,4(s1)
    53c6:	bbf9                	j	51a4 <__ieee754_rem_pio2f+0x68>
    53c8:	00004797          	auipc	a5,0x4
    53cc:	0587a707          	flw	fa4,88(a5) # 9420 <ch32_uart_ops+0xe4>
    53d0:	00e7f7d3          	fadd.s	fa5,fa5,fa4
    53d4:	00004797          	auipc	a5,0x4
    53d8:	0507a707          	flw	fa4,80(a5) # 9424 <ch32_uart_ops+0xe8>
    53dc:	557d                	li	a0,-1
    53de:	00e7f6d3          	fadd.s	fa3,fa5,fa4
    53e2:	08d7f7d3          	fsub.s	fa5,fa5,fa3
    53e6:	e094                	fsw	fa3,0(s1)
    53e8:	00e7f7d3          	fadd.s	fa5,fa5,fa4
    53ec:	e0dc                	fsw	fa5,4(s1)
    53ee:	bb5d                	j	51a4 <__ieee754_rem_pio2f+0x68>

000053f0 <__kernel_cosf>:
    53f0:	e0050753          	fmv.x.w	a4,fa0
    53f4:	320006b7          	lui	a3,0x32000
    53f8:	00171793          	slli	a5,a4,0x1
    53fc:	8385                	srli	a5,a5,0x1
    53fe:	06d7df63          	bge	a5,a3,547c <__kernel_cosf+0x8c>
    5402:	c00517d3          	fcvt.w.s	a5,fa0,rtz
    5406:	12078063          	beqz	a5,5526 <__kernel_cosf+0x136>
    540a:	10a576d3          	fmul.s	fa3,fa0,fa0
    540e:	00004797          	auipc	a5,0x4
    5412:	3d67a787          	flw	fa5,982(a5) # 97e4 <two_over_pi+0x328>
    5416:	00004797          	auipc	a5,0x4
    541a:	3ca7a507          	flw	fa0,970(a5) # 97e0 <two_over_pi+0x324>
    541e:	00004797          	auipc	a5,0x4
    5422:	3ca7a007          	flw	ft0,970(a5) # 97e8 <two_over_pi+0x32c>
    5426:	00004797          	auipc	a5,0x4
    542a:	3c67a607          	flw	fa2,966(a5) # 97ec <two_over_pi+0x330>
    542e:	78a6f543          	fmadd.s	fa0,fa3,fa0,fa5
    5432:	00004797          	auipc	a5,0x4
    5436:	3be7a707          	flw	fa4,958(a5) # 97f0 <two_over_pi+0x334>
    543a:	00004797          	auipc	a5,0x4
    543e:	3ba7a787          	flw	fa5,954(a5) # 97f4 <two_over_pi+0x338>
    5442:	00a6f543          	fmadd.s	fa0,fa3,fa0,ft0
    5446:	60a6f543          	fmadd.s	fa0,fa3,fa0,fa2
    544a:	70a6f543          	fmadd.s	fa0,fa3,fa0,fa4
    544e:	78a6f7c3          	fmadd.s	fa5,fa3,fa0,fa5
    5452:	10d7f7d3          	fmul.s	fa5,fa5,fa3
    5456:	f0070753          	fmv.w.x	fa4,a4
    545a:	00004797          	auipc	a5,0x4
    545e:	3827a507          	flw	fa0,898(a5) # 97dc <two_over_pi+0x320>
    5462:	10b775d3          	fmul.s	fa1,fa4,fa1
    5466:	00004797          	auipc	a5,0x4
    546a:	fc67a707          	flw	fa4,-58(a5) # 942c <ch32_uart_ops+0xf0>
    546e:	58f6f7c7          	fmsub.s	fa5,fa3,fa5,fa1
    5472:	78e6f7c7          	fmsub.s	fa5,fa3,fa4,fa5
    5476:	08f57553          	fsub.s	fa0,fa0,fa5
    547a:	8082                	ret
    547c:	10a576d3          	fmul.s	fa3,fa0,fa0
    5480:	00004697          	auipc	a3,0x4
    5484:	3646a607          	flw	fa2,868(a3) # 97e4 <two_over_pi+0x328>
    5488:	00004697          	auipc	a3,0x4
    548c:	3586a707          	flw	fa4,856(a3) # 97e0 <two_over_pi+0x324>
    5490:	00004697          	auipc	a3,0x4
    5494:	3586a787          	flw	fa5,856(a3) # 97e8 <two_over_pi+0x32c>
    5498:	00004697          	auipc	a3,0x4
    549c:	3546a007          	flw	ft0,852(a3) # 97ec <two_over_pi+0x330>
    54a0:	60e6f743          	fmadd.s	fa4,fa3,fa4,fa2
    54a4:	00004697          	auipc	a3,0x4
    54a8:	34c6a507          	flw	fa0,844(a3) # 97f0 <two_over_pi+0x334>
    54ac:	00004697          	auipc	a3,0x4
    54b0:	3486a607          	flw	fa2,840(a3) # 97f4 <two_over_pi+0x338>
    54b4:	3e99a6b7          	lui	a3,0x3e99a
    54b8:	99968693          	addi	a3,a3,-1639 # 3e999999 <_eusrstack+0x1e989999>
    54bc:	78d777c3          	fmadd.s	fa5,fa4,fa3,fa5
    54c0:	00d7f7c3          	fmadd.s	fa5,fa5,fa3,ft0
    54c4:	50d7f7c3          	fmadd.s	fa5,fa5,fa3,fa0
    54c8:	60d7f7c3          	fmadd.s	fa5,fa5,fa3,fa2
    54cc:	10d7f7d3          	fmul.s	fa5,fa5,fa3
    54d0:	f8f6d3e3          	bge	a3,a5,5456 <__kernel_cosf+0x66>
    54d4:	3f4806b7          	lui	a3,0x3f480
    54d8:	02f6ce63          	blt	a3,a5,5514 <__kernel_cosf+0x124>
    54dc:	ff0006b7          	lui	a3,0xff000
    54e0:	97b6                	add	a5,a5,a3
    54e2:	f0078653          	fmv.w.x	fa2,a5
    54e6:	00004697          	auipc	a3,0x4
    54ea:	2f66a507          	flw	fa0,758(a3) # 97dc <two_over_pi+0x320>
    54ee:	08c57553          	fsub.s	fa0,fa0,fa2
    54f2:	f0070753          	fmv.w.x	fa4,a4
    54f6:	10b775d3          	fmul.s	fa1,fa4,fa1
    54fa:	00004797          	auipc	a5,0x4
    54fe:	f327a707          	flw	fa4,-206(a5) # 942c <ch32_uart_ops+0xf0>
    5502:	60e6f747          	fmsub.s	fa4,fa3,fa4,fa2
    5506:	58f6f7c7          	fmsub.s	fa5,fa3,fa5,fa1
    550a:	08f777d3          	fsub.s	fa5,fa4,fa5
    550e:	08f57553          	fsub.s	fa0,fa0,fa5
    5512:	8082                	ret
    5514:	00004797          	auipc	a5,0x4
    5518:	2c07a507          	flw	fa0,704(a5) # 97d4 <two_over_pi+0x318>
    551c:	00004797          	auipc	a5,0x4
    5520:	2bc7a607          	flw	fa2,700(a5) # 97d8 <two_over_pi+0x31c>
    5524:	b7f9                	j	54f2 <__kernel_cosf+0x102>
    5526:	00004797          	auipc	a5,0x4
    552a:	2b67a507          	flw	fa0,694(a5) # 97dc <two_over_pi+0x320>
    552e:	8082                	ret

00005530 <__kernel_rem_pio2f>:
    5530:	7121                	addi	sp,sp,-448
    5532:	00271813          	slli	a6,a4,0x2
    5536:	ca3a                	sw	a4,20(sp)
    5538:	00004717          	auipc	a4,0x4
    553c:	2fc70713          	addi	a4,a4,764 # 9834 <init_jk>
    5540:	9742                	add	a4,a4,a6
    5542:	1a812c23          	sw	s0,440(sp)
    5546:	19912a23          	sw	s9,404(sp)
    554a:	19a12823          	sw	s10,400(sp)
    554e:	8432                	mv	s0,a2
    5550:	ce32                	sw	a2,28(sp)
    5552:	1a112e23          	sw	ra,444(sp)
    5556:	1a912a23          	sw	s1,436(sp)
    555a:	1b212823          	sw	s2,432(sp)
    555e:	1b312623          	sw	s3,428(sp)
    5562:	1b412423          	sw	s4,424(sp)
    5566:	1b512223          	sw	s5,420(sp)
    556a:	1b612023          	sw	s6,416(sp)
    556e:	19712e23          	sw	s7,412(sp)
    5572:	19812c23          	sw	s8,408(sp)
    5576:	19b12623          	sw	s11,396(sp)
    557a:	16812e27          	fsw	fs0,380(sp)
    557e:	16912c27          	fsw	fs1,376(sp)
    5582:	17212a27          	fsw	fs2,372(sp)
    5586:	17312827          	fsw	fs3,368(sp)
    558a:	17412627          	fsw	fs4,364(sp)
    558e:	17512427          	fsw	fs5,360(sp)
    5592:	17612227          	fsw	fs6,356(sp)
    5596:	5871                	li	a6,-4
    5598:	c82e                	sw	a1,16(sp)
    559a:	c23e                	sw	a5,4(sp)
    559c:	862a                	mv	a2,a0
    559e:	00072c83          	lw	s9,0(a4)
    55a2:	fff68d13          	addi	s10,a3,-1
    55a6:	63044963          	blt	s0,a6,5bd8 <__kernel_rem_pio2f+0x6a8>
    55aa:	ffd40793          	addi	a5,s0,-3
    55ae:	41f7d493          	srai	s1,a5,0x1f
    55b2:	889d                	andi	s1,s1,7
    55b4:	94be                	add	s1,s1,a5
    55b6:	4034d793          	srai	a5,s1,0x3
    55ba:	00178b13          	addi	s6,a5,1
    55be:	c43e                	sw	a5,8(sp)
    55c0:	003b1793          	slli	a5,s6,0x3
    55c4:	cc3e                	sw	a5,24(sp)
    55c6:	47a2                	lw	a5,8(sp)
    55c8:	4562                	lw	a0,24(sp)
    55ca:	45f2                	lw	a1,28(sp)
    55cc:	01ac8733          	add	a4,s9,s10
    55d0:	41a787b3          	sub	a5,a5,s10
    55d4:	00170813          	addi	a6,a4,1
    55d8:	40a58a33          	sub	s4,a1,a0
    55dc:	983e                	add	a6,a6,a5
    55de:	1888                	addi	a0,sp,112
    55e0:	02074363          	bltz	a4,5606 <__kernel_rem_pio2f+0xd6>
    55e4:	4592                	lw	a1,4(sp)
    55e6:	00279713          	slli	a4,a5,0x2
    55ea:	f00007d3          	fmv.w.x	fa5,zero
    55ee:	972e                	add	a4,a4,a1
    55f0:	0007c563          	bltz	a5,55fa <__kernel_rem_pio2f+0xca>
    55f4:	4318                	lw	a4,0(a4)
    55f6:	d00777d3          	fcvt.s.w	fa5,a4
    55fa:	0511                	addi	a0,a0,4
    55fc:	0785                	addi	a5,a5,1
    55fe:	fef52e27          	fsw	fa5,-4(a0)
    5602:	ff0791e3          	bne	a5,a6,55e4 <__kernel_rem_pio2f+0xb4>
    5606:	002c9d93          	slli	s11,s9,0x2
    560a:	040cc463          	bltz	s9,5652 <__kernel_rem_pio2f+0x122>
    560e:	002d1893          	slli	a7,s10,0x2
    5612:	189c                	addi	a5,sp,112
    5614:	00488513          	addi	a0,a7,4
    5618:	002c9d93          	slli	s11,s9,0x2
    561c:	98be                	add	a7,a7,a5
    561e:	0a5c                	addi	a5,sp,276
    5620:	11010813          	addi	a6,sp,272
    5624:	01b78333          	add	t1,a5,s11
    5628:	9532                	add	a0,a0,a2
    562a:	8746                	mv	a4,a7
    562c:	87b2                	mv	a5,a2
    562e:	f00007d3          	fmv.w.x	fa5,zero
    5632:	000d4a63          	bltz	s10,5646 <__kernel_rem_pio2f+0x116>
    5636:	6394                	flw	fa3,0(a5)
    5638:	6318                	flw	fa4,0(a4)
    563a:	0791                	addi	a5,a5,4
    563c:	1771                	addi	a4,a4,-4
    563e:	78e6f7c3          	fmadd.s	fa5,fa3,fa4,fa5
    5642:	fea79ae3          	bne	a5,a0,5636 <__kernel_rem_pio2f+0x106>
    5646:	00f82027          	fsw	fa5,0(a6)
    564a:	0811                	addi	a6,a6,4
    564c:	0891                	addi	a7,a7,4
    564e:	fc681ee3          	bne	a6,t1,562a <__kernel_rem_pio2f+0xfa>
    5652:	fffc8793          	addi	a5,s9,-1
    5656:	ff8d8993          	addi	s3,s11,-8
    565a:	00279913          	slli	s2,a5,0x2
    565e:	02010a93          	addi	s5,sp,32
    5662:	087c                	addi	a5,sp,28
    5664:	9dbe                	add	s11,s11,a5
    5666:	013a87b3          	add	a5,s5,s3
    566a:	c63e                	sw	a5,12(sp)
    566c:	068a                	slli	a3,a3,0x2
    566e:	00004797          	auipc	a5,0x4
    5672:	1be7a487          	flw	fs1,446(a5) # 982c <PIo2+0x34>
    5676:	00004797          	auipc	a5,0x4
    567a:	1ba7a407          	flw	fs0,442(a5) # 9830 <PIo2+0x38>
    567e:	00004797          	auipc	a5,0x4
    5682:	15e7a907          	flw	fs2,350(a5) # 97dc <two_over_pi+0x320>
    5686:	00004797          	auipc	a5,0x4
    568a:	1a27ab07          	flw	fs6,418(a5) # 9828 <PIo2+0x30>
    568e:	00004797          	auipc	a5,0x4
    5692:	daa7aa87          	flw	fs5,-598(a5) # 9438 <ch32_uart_ops+0xfc>
    5696:	00004797          	auipc	a5,0x4
    569a:	d967a987          	flw	fs3,-618(a5) # 942c <ch32_uart_ops+0xf0>
    569e:	00d60c33          	add	s8,a2,a3
    56a2:	129c                	addi	a5,sp,352
    56a4:	400006b7          	lui	a3,0x40000
    56a8:	89e6                	mv	s3,s9
    56aa:	fff68413          	addi	s0,a3,-1 # 3fffffff <_eusrstack+0x1ffeffff>
    56ae:	993e                	add	s2,s2,a5
    56b0:	00299493          	slli	s1,s3,0x2
    56b4:	129c                	addi	a5,sp,352
    56b6:	97a6                	add	a5,a5,s1
    56b8:	fb07a507          	flw	fa0,-80(a5)
    56bc:	03305f63          	blez	s3,56fa <__kernel_rem_pio2f+0x1ca>
    56c0:	00898533          	add	a0,s3,s0
    56c4:	11010e93          	addi	t4,sp,272
    56c8:	050a                	slli	a0,a0,0x2
    56ca:	9576                	add	a0,a0,t4
    56cc:	8356                	mv	t1,s5
    56ce:	a011                	j	56d2 <__kernel_rem_pio2f+0x1a2>
    56d0:	8572                	mv	a0,t3
    56d2:	116577d3          	fmul.s	fa5,fa0,fs6
    56d6:	6114                	flw	fa3,0(a0)
    56d8:	0311                	addi	t1,t1,4
    56da:	ffc50e13          	addi	t3,a0,-4
    56de:	c00797d3          	fcvt.w.s	a5,fa5,rtz
    56e2:	d007f7d3          	fcvt.s.w	fa5,a5
    56e6:	5157f74b          	fnmsub.s	fa4,fa5,fs5,fa0
    56ea:	00d7f553          	fadd.s	fa0,fa5,fa3
    56ee:	c00717d3          	fcvt.w.s	a5,fa4,rtz
    56f2:	fef32e23          	sw	a5,-4(t1)
    56f6:	fcae9de3          	bne	t4,a0,56d0 <__kernel_rem_pio2f+0x1a0>
    56fa:	8552                	mv	a0,s4
    56fc:	c032                	sw	a2,0(sp)
    56fe:	2559                	jal	5d84 <scalbnf>
    5700:	20a50a53          	fmv.s	fs4,fa0
    5704:	10957553          	fmul.s	fa0,fa0,fs1
    5708:	23e9                	jal	5cd2 <floorf>
    570a:	a085754b          	fnmsub.s	fa0,fa0,fs0,fs4
    570e:	4602                	lw	a2,0(sp)
    5710:	c0051b53          	fcvt.w.s	s6,fa0,rtz
    5714:	d00b7a53          	fcvt.s.w	fs4,s6
    5718:	09457a53          	fsub.s	fs4,fa0,fs4
    571c:	0d405f63          	blez	s4,57fa <__kernel_rem_pio2f+0x2ca>
    5720:	fff98793          	addi	a5,s3,-1
    5724:	078a                	slli	a5,a5,0x2
    5726:	1298                	addi	a4,sp,352
    5728:	97ba                	add	a5,a5,a4
    572a:	ec07a303          	lw	t1,-320(a5)
    572e:	4521                	li	a0,8
    5730:	41450533          	sub	a0,a0,s4
    5734:	40a35e33          	sra	t3,t1,a0
    5738:	00ae1533          	sll	a0,t3,a0
    573c:	40a30333          	sub	t1,t1,a0
    5740:	451d                	li	a0,7
    5742:	41450533          	sub	a0,a0,s4
    5746:	ec67a023          	sw	t1,-320(a5)
    574a:	40a35bb3          	sra	s7,t1,a0
    574e:	9b72                	add	s6,s6,t3
    5750:	0d704263          	bgtz	s7,5814 <__kernel_rem_pio2f+0x2e4>
    5754:	f00007d3          	fmv.w.x	fa5,zero
    5758:	a0fa27d3          	feq.s	a5,fs4,fa5
    575c:	12078963          	beqz	a5,588e <__kernel_rem_pio2f+0x35e>
    5760:	fff98e13          	addi	t3,s3,-1
    5764:	019e4e63          	blt	t3,s9,5780 <__kernel_rem_pio2f+0x250>
    5768:	008987b3          	add	a5,s3,s0
    576c:	078a                	slli	a5,a5,0x2
    576e:	97d6                	add	a5,a5,s5
    5770:	4701                	li	a4,0
    5772:	4388                	lw	a0,0(a5)
    5774:	17f1                	addi	a5,a5,-4
    5776:	8f49                	or	a4,a4,a0
    5778:	ffb79de3          	bne	a5,s11,5772 <__kernel_rem_pio2f+0x242>
    577c:	30071663          	bnez	a4,5a88 <__kernel_rem_pio2f+0x558>
    5780:	ec092783          	lw	a5,-320(s2)
    5784:	2e079d63          	bnez	a5,5a7e <__kernel_rem_pio2f+0x54e>
    5788:	47b2                	lw	a5,12(sp)
    578a:	4705                	li	a4,1
    578c:	17f1                	addi	a5,a5,-4
    578e:	43c8                	lw	a0,4(a5)
    5790:	0705                	addi	a4,a4,1
    5792:	dd6d                	beqz	a0,578c <__kernel_rem_pio2f+0x25c>
    5794:	00198793          	addi	a5,s3,1
    5798:	8e3e                	mv	t3,a5
    579a:	00e988b3          	add	a7,s3,a4
    579e:	4722                	lw	a4,8(sp)
    57a0:	00fd0533          	add	a0,s10,a5
    57a4:	9522                	add	a0,a0,s0
    57a6:	00f70333          	add	t1,a4,a5
    57aa:	4712                	lw	a4,4(sp)
    57ac:	030a                	slli	t1,t1,0x2
    57ae:	078a                	slli	a5,a5,0x2
    57b0:	933a                	add	t1,t1,a4
    57b2:	0a18                	addi	a4,sp,272
    57b4:	050a                	slli	a0,a0,0x2
    57b6:	00f70eb3          	add	t4,a4,a5
    57ba:	189c                	addi	a5,sp,112
    57bc:	953e                	add	a0,a0,a5
    57be:	00032783          	lw	a5,0(t1)
    57c2:	f0000753          	fmv.w.x	fa4,zero
    57c6:	d007f7d3          	fcvt.s.w	fa5,a5
    57ca:	e15c                	fsw	fa5,4(a0)
    57cc:	000d4d63          	bltz	s10,57e6 <__kernel_rem_pio2f+0x2b6>
    57d0:	872a                	mv	a4,a0
    57d2:	87b2                	mv	a5,a2
    57d4:	a019                	j	57da <__kernel_rem_pio2f+0x2aa>
    57d6:	631c                	flw	fa5,0(a4)
    57d8:	1771                	addi	a4,a4,-4
    57da:	6394                	flw	fa3,0(a5)
    57dc:	0791                	addi	a5,a5,4
    57de:	70f6f743          	fmadd.s	fa4,fa3,fa5,fa4
    57e2:	ff879ae3          	bne	a5,s8,57d6 <__kernel_rem_pio2f+0x2a6>
    57e6:	00eea027          	fsw	fa4,0(t4)
    57ea:	0e05                	addi	t3,t3,1
    57ec:	0311                	addi	t1,t1,4
    57ee:	0e91                	addi	t4,t4,4
    57f0:	0511                	addi	a0,a0,4
    57f2:	fdc8d6e3          	bge	a7,t3,57be <__kernel_rem_pio2f+0x28e>
    57f6:	89c6                	mv	s3,a7
    57f8:	bd65                	j	56b0 <__kernel_rem_pio2f+0x180>
    57fa:	260a1663          	bnez	s4,5a66 <__kernel_rem_pio2f+0x536>
    57fe:	fff98793          	addi	a5,s3,-1
    5802:	078a                	slli	a5,a5,0x2
    5804:	1298                	addi	a4,sp,352
    5806:	97ba                	add	a5,a5,a4
    5808:	ec07a303          	lw	t1,-320(a5)
    580c:	40835b93          	srai	s7,t1,0x8
    5810:	f57052e3          	blez	s7,5754 <__kernel_rem_pio2f+0x224>
    5814:	0b05                	addi	s6,s6,1
    5816:	3d305563          	blez	s3,5be0 <__kernel_rem_pio2f+0x6b0>
    581a:	5e02                	lw	t3,32(sp)
    581c:	200e1363          	bnez	t3,5a22 <__kernel_rem_pio2f+0x4f2>
    5820:	4785                	li	a5,1
    5822:	00f98e63          	beq	s3,a5,583e <__kernel_rem_pio2f+0x30e>
    5826:	02410f13          	addi	t5,sp,36
    582a:	000f2e03          	lw	t3,0(t5)
    582e:	00178513          	addi	a0,a5,1
    5832:	0f11                	addi	t5,t5,4
    5834:	1e0e1963          	bnez	t3,5a26 <__kernel_rem_pio2f+0x4f6>
    5838:	87aa                	mv	a5,a0
    583a:	fea998e3          	bne	s3,a0,582a <__kernel_rem_pio2f+0x2fa>
    583e:	03405363          	blez	s4,5864 <__kernel_rem_pio2f+0x334>
    5842:	4785                	li	a5,1
    5844:	36fa0e63          	beq	s4,a5,5bc0 <__kernel_rem_pio2f+0x690>
    5848:	4789                	li	a5,2
    584a:	00fa1d63          	bne	s4,a5,5864 <__kernel_rem_pio2f+0x334>
    584e:	fff98793          	addi	a5,s3,-1
    5852:	078a                	slli	a5,a5,0x2
    5854:	1298                	addi	a4,sp,352
    5856:	97ba                	add	a5,a5,a4
    5858:	ec07a503          	lw	a0,-320(a5)
    585c:	03f57513          	andi	a0,a0,63
    5860:	eca7a023          	sw	a0,-320(a5)
    5864:	4789                	li	a5,2
    5866:	eefb97e3          	bne	s7,a5,5754 <__kernel_rem_pio2f+0x224>
    586a:	09497a53          	fsub.s	fs4,fs2,fs4
    586e:	ee0e03e3          	beqz	t3,5754 <__kernel_rem_pio2f+0x224>
    5872:	21290553          	fmv.s	fa0,fs2
    5876:	8552                	mv	a0,s4
    5878:	c032                	sw	a2,0(sp)
    587a:	2329                	jal	5d84 <scalbnf>
    587c:	08aa7a53          	fsub.s	fs4,fs4,fa0
    5880:	f00007d3          	fmv.w.x	fa5,zero
    5884:	4602                	lw	a2,0(sp)
    5886:	a0fa27d3          	feq.s	a5,fs4,fa5
    588a:	ec079be3          	bnez	a5,5760 <__kernel_rem_pio2f+0x230>
    588e:	47e2                	lw	a5,24(sp)
    5890:	4772                	lw	a4,28(sp)
    5892:	214a0553          	fmv.s	fa0,fs4
    5896:	40e78533          	sub	a0,a5,a4
    589a:	21ed                	jal	5d84 <scalbnf>
    589c:	00004797          	auipc	a5,0x4
    58a0:	b9c7a687          	flw	fa3,-1124(a5) # 9438 <ch32_uart_ops+0xfc>
    58a4:	a0a687d3          	fle.s	a5,fa3,fa0
    58a8:	32078e63          	beqz	a5,5be4 <__kernel_rem_pio2f+0x6b4>
    58ac:	00004797          	auipc	a5,0x4
    58b0:	f7c7a707          	flw	fa4,-132(a5) # 9828 <PIo2+0x30>
    58b4:	10e57753          	fmul.s	fa4,fa0,fa4
    58b8:	00198e13          	addi	t3,s3,1
    58bc:	129c                	addi	a5,sp,352
    58be:	002e1613          	slli	a2,t3,0x2
    58c2:	00978733          	add	a4,a5,s1
    58c6:	963e                	add	a2,a2,a5
    58c8:	c00717d3          	fcvt.w.s	a5,fa4,rtz
    58cc:	0a21                	addi	s4,s4,8
    58ce:	d007f7d3          	fcvt.s.w	fa5,a5
    58d2:	50d7f6cb          	fnmsub.s	fa3,fa5,fa3,fa0
    58d6:	c00797d3          	fcvt.w.s	a5,fa5,rtz
    58da:	c00696d3          	fcvt.w.s	a3,fa3,rtz
    58de:	ecd72023          	sw	a3,-320(a4)
    58e2:	ecf62023          	sw	a5,-320(a2)
    58e6:	21290553          	fmv.s	fa0,fs2
    58ea:	8552                	mv	a0,s4
    58ec:	c072                	sw	t3,0(sp)
    58ee:	2959                	jal	5d84 <scalbnf>
    58f0:	4e02                	lw	t3,0(sp)
    58f2:	1c0e4563          	bltz	t3,5abc <__kernel_rem_pio2f+0x58c>
    58f6:	002e1893          	slli	a7,t3,0x2
    58fa:	11010f13          	addi	t5,sp,272
    58fe:	011f05b3          	add	a1,t5,a7
    5902:	011a8733          	add	a4,s5,a7
    5906:	86ae                	mv	a3,a1
    5908:	00004797          	auipc	a5,0x4
    590c:	f207a707          	flw	fa4,-224(a5) # 9828 <PIo2+0x30>
    5910:	a011                	j	5914 <__kernel_rem_pio2f+0x3e4>
    5912:	8732                	mv	a4,a2
    5914:	431c                	lw	a5,0(a4)
    5916:	16f1                	addi	a3,a3,-4
    5918:	ffc70613          	addi	a2,a4,-4
    591c:	d007f7d3          	fcvt.s.w	fa5,a5
    5920:	10a7f7d3          	fmul.s	fa5,fa5,fa0
    5924:	10e57553          	fmul.s	fa0,fa0,fa4
    5928:	e2dc                	fsw	fa5,4(a3)
    592a:	feea94e3          	bne	s5,a4,5912 <__kernel_rem_pio2f+0x3e2>
    592e:	0c010813          	addi	a6,sp,192
    5932:	8542                	mv	a0,a6
    5934:	4601                	li	a2,0
    5936:	00004797          	auipc	a5,0x4
    593a:	eee7a607          	flw	fa2,-274(a5) # 9824 <PIo2+0x2c>
    593e:	040cc263          	bltz	s9,5982 <__kernel_rem_pio2f+0x452>
    5942:	00004697          	auipc	a3,0x4
    5946:	eba68693          	addi	a3,a3,-326 # 97fc <PIo2+0x4>
    594a:	872e                	mv	a4,a1
    594c:	20c60753          	fmv.s	fa4,fa2
    5950:	f00007d3          	fmv.w.x	fa5,zero
    5954:	4781                	li	a5,0
    5956:	a029                	j	5960 <__kernel_rem_pio2f+0x430>
    5958:	00f64b63          	blt	a2,a5,596e <__kernel_rem_pio2f+0x43e>
    595c:	6298                	flw	fa4,0(a3)
    595e:	0691                	addi	a3,a3,4
    5960:	6314                	flw	fa3,0(a4)
    5962:	0785                	addi	a5,a5,1
    5964:	0711                	addi	a4,a4,4
    5966:	78e6f7c3          	fmadd.s	fa5,fa3,fa4,fa5
    596a:	fefcd7e3          	bge	s9,a5,5958 <__kernel_rem_pio2f+0x428>
    596e:	e11c                	fsw	fa5,0(a0)
    5970:	0605                	addi	a2,a2,1
    5972:	0511                	addi	a0,a0,4
    5974:	ffc58793          	addi	a5,a1,-4 # 4000fffc <_eusrstack+0x1ffffffc>
    5978:	00bf0f63          	beq	t5,a1,5996 <__kernel_rem_pio2f+0x466>
    597c:	85be                	mv	a1,a5
    597e:	fc0cd2e3          	bgez	s9,5942 <__kernel_rem_pio2f+0x412>
    5982:	f00007d3          	fmv.w.x	fa5,zero
    5986:	0605                	addi	a2,a2,1
    5988:	0511                	addi	a0,a0,4
    598a:	fef52e27          	fsw	fa5,-4(a0)
    598e:	ffc58793          	addi	a5,a1,-4
    5992:	febf15e3          	bne	t5,a1,597c <__kernel_rem_pio2f+0x44c>
    5996:	4752                	lw	a4,20(sp)
    5998:	4789                	li	a5,2
    599a:	18e7c063          	blt	a5,a4,5b1a <__kernel_rem_pio2f+0x5ea>
    599e:	98c2                	add	a7,a7,a6
    59a0:	f00007d3          	fmv.w.x	fa5,zero
    59a4:	12e04a63          	bgtz	a4,5ad8 <__kernel_rem_pio2f+0x5a8>
    59a8:	c319                	beqz	a4,59ae <__kernel_rem_pio2f+0x47e>
    59aa:	a005                	j	59ca <__kernel_rem_pio2f+0x49a>
    59ac:	88be                	mv	a7,a5
    59ae:	0008a707          	flw	fa4,0(a7)
    59b2:	ffc88793          	addi	a5,a7,-4
    59b6:	00e7f7d3          	fadd.s	fa5,fa5,fa4
    59ba:	ff1819e3          	bne	a6,a7,59ac <__kernel_rem_pio2f+0x47c>
    59be:	000b8463          	beqz	s7,59c6 <__kernel_rem_pio2f+0x496>
    59c2:	20f797d3          	fneg.s	fa5,fa5
    59c6:	47c2                	lw	a5,16(sp)
    59c8:	e39c                	fsw	fa5,0(a5)
    59ca:	1bc12083          	lw	ra,444(sp)
    59ce:	1b812403          	lw	s0,440(sp)
    59d2:	007b7513          	andi	a0,s6,7
    59d6:	1b412483          	lw	s1,436(sp)
    59da:	1b012903          	lw	s2,432(sp)
    59de:	1ac12983          	lw	s3,428(sp)
    59e2:	1a812a03          	lw	s4,424(sp)
    59e6:	1a412a83          	lw	s5,420(sp)
    59ea:	1a012b03          	lw	s6,416(sp)
    59ee:	19c12b83          	lw	s7,412(sp)
    59f2:	19812c03          	lw	s8,408(sp)
    59f6:	19412c83          	lw	s9,404(sp)
    59fa:	19012d03          	lw	s10,400(sp)
    59fe:	18c12d83          	lw	s11,396(sp)
    5a02:	17c12407          	flw	fs0,380(sp)
    5a06:	17812487          	flw	fs1,376(sp)
    5a0a:	17412907          	flw	fs2,372(sp)
    5a0e:	17012987          	flw	fs3,368(sp)
    5a12:	16c12a07          	flw	fs4,364(sp)
    5a16:	16812a87          	flw	fs5,360(sp)
    5a1a:	16412b07          	flw	fs6,356(sp)
    5a1e:	6139                	addi	sp,sp,448
    5a20:	8082                	ret
    5a22:	4505                	li	a0,1
    5a24:	4781                	li	a5,0
    5a26:	078a                	slli	a5,a5,0x2
    5a28:	1298                	addi	a4,sp,352
    5a2a:	10000f13          	li	t5,256
    5a2e:	97ba                	add	a5,a5,a4
    5a30:	41cf0e33          	sub	t3,t5,t3
    5a34:	edc7a023          	sw	t3,-320(a5)
    5a38:	03355563          	bge	a0,s3,5a62 <__kernel_rem_pio2f+0x532>
    5a3c:	00251793          	slli	a5,a0,0x2
    5a40:	00f70533          	add	a0,a4,a5
    5a44:	ec052503          	lw	a0,-320(a0)
    5a48:	97d6                	add	a5,a5,s5
    5a4a:	009a8f33          	add	t5,s5,s1
    5a4e:	0ff00e13          	li	t3,255
    5a52:	a011                	j	5a56 <__kernel_rem_pio2f+0x526>
    5a54:	4388                	lw	a0,0(a5)
    5a56:	40ae0533          	sub	a0,t3,a0
    5a5a:	c388                	sw	a0,0(a5)
    5a5c:	0791                	addi	a5,a5,4
    5a5e:	ffe79be3          	bne	a5,t5,5a54 <__kernel_rem_pio2f+0x524>
    5a62:	4e05                	li	t3,1
    5a64:	bbe9                	j	583e <__kernel_rem_pio2f+0x30e>
    5a66:	a14987d3          	fle.s	a5,fs3,fs4
    5a6a:	4b81                	li	s7,0
    5a6c:	ce0784e3          	beqz	a5,5754 <__kernel_rem_pio2f+0x224>
    5a70:	0b05                	addi	s6,s6,1
    5a72:	4b89                	li	s7,2
    5a74:	db3043e3          	bgtz	s3,581a <__kernel_rem_pio2f+0x2ea>
    5a78:	09497a53          	fsub.s	fs4,fs2,fs4
    5a7c:	b9e1                	j	5754 <__kernel_rem_pio2f+0x224>
    5a7e:	00198793          	addi	a5,s3,1
    5a82:	8e3e                	mv	t3,a5
    5a84:	88be                	mv	a7,a5
    5a86:	bb21                	j	579e <__kernel_rem_pio2f+0x26e>
    5a88:	002e1793          	slli	a5,t3,0x2
    5a8c:	1298                	addi	a4,sp,352
    5a8e:	97ba                	add	a5,a5,a4
    5a90:	ec07a783          	lw	a5,-320(a5)
    5a94:	1a61                	addi	s4,s4,-8
    5a96:	e40798e3          	bnez	a5,58e6 <__kernel_rem_pio2f+0x3b6>
    5a9a:	00299793          	slli	a5,s3,0x2
    5a9e:	17e1                	addi	a5,a5,-8
    5aa0:	97d6                	add	a5,a5,s5
    5aa2:	17f1                	addi	a5,a5,-4
    5aa4:	43d8                	lw	a4,4(a5)
    5aa6:	1e7d                	addi	t3,t3,-1
    5aa8:	1a61                	addi	s4,s4,-8
    5aaa:	df65                	beqz	a4,5aa2 <__kernel_rem_pio2f+0x572>
    5aac:	21290553          	fmv.s	fa0,fs2
    5ab0:	8552                	mv	a0,s4
    5ab2:	c072                	sw	t3,0(sp)
    5ab4:	2cc1                	jal	5d84 <scalbnf>
    5ab6:	4e02                	lw	t3,0(sp)
    5ab8:	e20e5fe3          	bgez	t3,58f6 <__kernel_rem_pio2f+0x3c6>
    5abc:	4752                	lw	a4,20(sp)
    5abe:	4789                	li	a5,2
    5ac0:	04e7cd63          	blt	a5,a4,5b1a <__kernel_rem_pio2f+0x5ea>
    5ac4:	f00007d3          	fmv.w.x	fa5,zero
    5ac8:	02e04063          	bgtz	a4,5ae8 <__kernel_rem_pio2f+0x5b8>
    5acc:	ee071fe3          	bnez	a4,59ca <__kernel_rem_pio2f+0x49a>
    5ad0:	ee0b8be3          	beqz	s7,59c6 <__kernel_rem_pio2f+0x496>
    5ad4:	b5fd                	j	59c2 <__kernel_rem_pio2f+0x492>
    5ad6:	88be                	mv	a7,a5
    5ad8:	0008a707          	flw	fa4,0(a7)
    5adc:	ffc88793          	addi	a5,a7,-4
    5ae0:	00e7f7d3          	fadd.s	fa5,fa5,fa4
    5ae4:	ff1819e3          	bne	a6,a7,5ad6 <__kernel_rem_pio2f+0x5a6>
    5ae8:	670e                	flw	fa4,192(sp)
    5aea:	08f77753          	fsub.s	fa4,fa4,fa5
    5aee:	100b9363          	bnez	s7,5bf4 <__kernel_rem_pio2f+0x6c4>
    5af2:	47c2                	lw	a5,16(sp)
    5af4:	e39c                	fsw	fa5,0(a5)
    5af6:	01c05f63          	blez	t3,5b14 <__kernel_rem_pio2f+0x5e4>
    5afa:	01d8                	addi	a4,sp,196
    5afc:	4785                	li	a5,1
    5afe:	631c                	flw	fa5,0(a4)
    5b00:	0785                	addi	a5,a5,1
    5b02:	0711                	addi	a4,a4,4
    5b04:	00f77753          	fadd.s	fa4,fa4,fa5
    5b08:	fefe5be3          	bge	t3,a5,5afe <__kernel_rem_pio2f+0x5ce>
    5b0c:	000b8463          	beqz	s7,5b14 <__kernel_rem_pio2f+0x5e4>
    5b10:	20e71753          	fneg.s	fa4,fa4
    5b14:	47c2                	lw	a5,16(sp)
    5b16:	e3d8                	fsw	fa4,4(a5)
    5b18:	bd4d                	j	59ca <__kernel_rem_pio2f+0x49a>
    5b1a:	4752                	lw	a4,20(sp)
    5b1c:	478d                	li	a5,3
    5b1e:	eaf716e3          	bne	a4,a5,59ca <__kernel_rem_pio2f+0x49a>
    5b22:	0fc05d63          	blez	t3,5c1c <__kernel_rem_pio2f+0x6ec>
    5b26:	002e1713          	slli	a4,t3,0x2
    5b2a:	1294                	addi	a3,sp,352
    5b2c:	96ba                	add	a3,a3,a4
    5b2e:	0c010813          	addi	a6,sp,192
    5b32:	ffc70793          	addi	a5,a4,-4
    5b36:	f606a687          	flw	fa3,-160(a3)
    5b3a:	97c2                	add	a5,a5,a6
    5b3c:	a011                	j	5b40 <__kernel_rem_pio2f+0x610>
    5b3e:	87b6                	mv	a5,a3
    5b40:	639c                	flw	fa5,0(a5)
    5b42:	ffc78693          	addi	a3,a5,-4
    5b46:	00d7f753          	fadd.s	fa4,fa5,fa3
    5b4a:	08e7f7d3          	fsub.s	fa5,fa5,fa4
    5b4e:	e398                	fsw	fa4,0(a5)
    5b50:	00d7f7d3          	fadd.s	fa5,fa5,fa3
    5b54:	20e706d3          	fmv.s	fa3,fa4
    5b58:	e3dc                	fsw	fa5,4(a5)
    5b5a:	fef812e3          	bne	a6,a5,5b3e <__kernel_rem_pio2f+0x60e>
    5b5e:	4785                	li	a5,1
    5b60:	0bc7de63          	bge	a5,t3,5c1c <__kernel_rem_pio2f+0x6ec>
    5b64:	002e1793          	slli	a5,t3,0x2
    5b68:	1294                	addi	a3,sp,352
    5b6a:	9736                	add	a4,a4,a3
    5b6c:	17f1                	addi	a5,a5,-4
    5b6e:	f6072687          	flw	fa3,-160(a4)
    5b72:	00f80733          	add	a4,a6,a5
    5b76:	a011                	j	5b7a <__kernel_rem_pio2f+0x64a>
    5b78:	8736                	mv	a4,a3
    5b7a:	631c                	flw	fa5,0(a4)
    5b7c:	ffc70693          	addi	a3,a4,-4
    5b80:	00d7f753          	fadd.s	fa4,fa5,fa3
    5b84:	08e7f7d3          	fsub.s	fa5,fa5,fa4
    5b88:	e318                	fsw	fa4,0(a4)
    5b8a:	00d7f7d3          	fadd.s	fa5,fa5,fa3
    5b8e:	20e706d3          	fmv.s	fa3,fa4
    5b92:	e35c                	fsw	fa5,4(a4)
    5b94:	fed812e3          	bne	a6,a3,5b78 <__kernel_rem_pio2f+0x648>
    5b98:	f00007d3          	fmv.w.x	fa5,zero
    5b9c:	0791                	addi	a5,a5,4
    5b9e:	983e                	add	a6,a6,a5
    5ba0:	00082707          	flw	fa4,0(a6)
    5ba4:	1871                	addi	a6,a6,-4
    5ba6:	00e7f7d3          	fadd.s	fa5,fa5,fa4
    5baa:	ff071be3          	bne	a4,a6,5ba0 <__kernel_rem_pio2f+0x670>
    5bae:	668e                	flw	fa3,192(sp)
    5bb0:	671e                	flw	fa4,196(sp)
    5bb2:	040b9a63          	bnez	s7,5c06 <__kernel_rem_pio2f+0x6d6>
    5bb6:	47c2                	lw	a5,16(sp)
    5bb8:	e394                	fsw	fa3,0(a5)
    5bba:	e3d8                	fsw	fa4,4(a5)
    5bbc:	e79c                	fsw	fa5,8(a5)
    5bbe:	b531                	j	59ca <__kernel_rem_pio2f+0x49a>
    5bc0:	fff98793          	addi	a5,s3,-1
    5bc4:	078a                	slli	a5,a5,0x2
    5bc6:	1298                	addi	a4,sp,352
    5bc8:	97ba                	add	a5,a5,a4
    5bca:	ec07a503          	lw	a0,-320(a5)
    5bce:	07f57513          	andi	a0,a0,127
    5bd2:	eca7a023          	sw	a0,-320(a5)
    5bd6:	b179                	j	5864 <__kernel_rem_pio2f+0x334>
    5bd8:	47a1                	li	a5,8
    5bda:	cc3e                	sw	a5,24(sp)
    5bdc:	c402                	sw	zero,8(sp)
    5bde:	b2e5                	j	55c6 <__kernel_rem_pio2f+0x96>
    5be0:	4e01                	li	t3,0
    5be2:	b9b1                	j	583e <__kernel_rem_pio2f+0x30e>
    5be4:	c00517d3          	fcvt.w.s	a5,fa0,rtz
    5be8:	1298                	addi	a4,sp,352
    5bea:	9726                	add	a4,a4,s1
    5bec:	8e4e                	mv	t3,s3
    5bee:	ecf72023          	sw	a5,-320(a4)
    5bf2:	b9d5                	j	58e6 <__kernel_rem_pio2f+0x3b6>
    5bf4:	20f797d3          	fneg.s	fa5,fa5
    5bf8:	47c2                	lw	a5,16(sp)
    5bfa:	e39c                	fsw	fa5,0(a5)
    5bfc:	efc04fe3          	bgtz	t3,5afa <__kernel_rem_pio2f+0x5ca>
    5c00:	20e71753          	fneg.s	fa4,fa4
    5c04:	bf01                	j	5b14 <__kernel_rem_pio2f+0x5e4>
    5c06:	47c2                	lw	a5,16(sp)
    5c08:	20d696d3          	fneg.s	fa3,fa3
    5c0c:	20e71753          	fneg.s	fa4,fa4
    5c10:	20f797d3          	fneg.s	fa5,fa5
    5c14:	e394                	fsw	fa3,0(a5)
    5c16:	e3d8                	fsw	fa4,4(a5)
    5c18:	e79c                	fsw	fa5,8(a5)
    5c1a:	bb45                	j	59ca <__kernel_rem_pio2f+0x49a>
    5c1c:	f00007d3          	fmv.w.x	fa5,zero
    5c20:	b779                	j	5bae <__kernel_rem_pio2f+0x67e>

00005c22 <__kernel_sinf>:
    5c22:	e00507d3          	fmv.x.w	a5,fa0
    5c26:	320006b7          	lui	a3,0x32000
    5c2a:	00179713          	slli	a4,a5,0x1
    5c2e:	8305                	srli	a4,a4,0x1
    5c30:	00d75563          	bge	a4,a3,5c3a <__kernel_sinf+0x18>
    5c34:	c0051753          	fcvt.w.s	a4,fa0,rtz
    5c38:	c749                	beqz	a4,5cc2 <__kernel_sinf+0xa0>
    5c3a:	f00787d3          	fmv.w.x	fa5,a5
    5c3e:	00004717          	auipc	a4,0x4
    5c42:	c0672687          	flw	fa3,-1018(a4) # 9844 <init_jk+0x10>
    5c46:	00004717          	auipc	a4,0x4
    5c4a:	c0272007          	flw	ft0,-1022(a4) # 9848 <init_jk+0x14>
    5c4e:	10f7f753          	fmul.s	fa4,fa5,fa5
    5c52:	00004717          	auipc	a4,0x4
    5c56:	bee72787          	flw	fa5,-1042(a4) # 9840 <init_jk+0xc>
    5c5a:	00004717          	auipc	a4,0x4
    5c5e:	bf272607          	flw	fa2,-1038(a4) # 984c <init_jk+0x18>
    5c62:	f0078553          	fmv.w.x	fa0,a5
    5c66:	68f777c3          	fmadd.s	fa5,fa4,fa5,fa3
    5c6a:	00004717          	auipc	a4,0x4
    5c6e:	be672687          	flw	fa3,-1050(a4) # 9850 <init_jk+0x1c>
    5c72:	10e57553          	fmul.s	fa0,fa0,fa4
    5c76:	00e7f7c3          	fmadd.s	fa5,fa5,fa4,ft0
    5c7a:	60e7f7c3          	fmadd.s	fa5,fa5,fa4,fa2
    5c7e:	68e7f7c3          	fmadd.s	fa5,fa5,fa4,fa3
    5c82:	ed01                	bnez	a0,5c9a <__kernel_sinf+0x78>
    5c84:	00004717          	auipc	a4,0x4
    5c88:	bd072587          	flw	fa1,-1072(a4) # 9854 <init_jk+0x20>
    5c8c:	58f777c3          	fmadd.s	fa5,fa4,fa5,fa1
    5c90:	f0078753          	fmv.w.x	fa4,a5
    5c94:	70a7f543          	fmadd.s	fa0,fa5,fa0,fa4
    5c98:	8082                	ret
    5c9a:	10f577d3          	fmul.s	fa5,fa0,fa5
    5c9e:	00003717          	auipc	a4,0x3
    5ca2:	78e72687          	flw	fa3,1934(a4) # 942c <ch32_uart_ops+0xf0>
    5ca6:	00004717          	auipc	a4,0x4
    5caa:	bb272607          	flw	fa2,-1102(a4) # 9858 <init_jk+0x24>
    5cae:	78d5f7c7          	fmsub.s	fa5,fa1,fa3,fa5
    5cb2:	58e7f7c7          	fmsub.s	fa5,fa5,fa4,fa1
    5cb6:	78c57543          	fmadd.s	fa0,fa0,fa2,fa5
    5cba:	f00787d3          	fmv.w.x	fa5,a5
    5cbe:	08a7f553          	fsub.s	fa0,fa5,fa0
    5cc2:	8082                	ret

00005cc4 <fabsf>:
    5cc4:	e00507d3          	fmv.x.w	a5,fa0
    5cc8:	0786                	slli	a5,a5,0x1
    5cca:	8385                	srli	a5,a5,0x1
    5ccc:	f0078553          	fmv.w.x	fa0,a5
    5cd0:	8082                	ret

00005cd2 <floorf>:
    5cd2:	e00506d3          	fmv.x.w	a3,fa0
    5cd6:	4659                	li	a2,22
    5cd8:	00169713          	slli	a4,a3,0x1
    5cdc:	8305                	srli	a4,a4,0x1
    5cde:	01775793          	srli	a5,a4,0x17
    5ce2:	f8178793          	addi	a5,a5,-127
    5ce6:	85b6                	mv	a1,a3
    5ce8:	08f64163          	blt	a2,a5,5d6a <floorf+0x98>
    5cec:	0407c463          	bltz	a5,5d34 <floorf+0x62>
    5cf0:	00800837          	lui	a6,0x800
    5cf4:	fff80713          	addi	a4,a6,-1 # 7fffff <__rt_init_end+0x7f64a3>
    5cf8:	40f75733          	sra	a4,a4,a5
    5cfc:	00d77533          	and	a0,a4,a3
    5d00:	e0050653          	fmv.x.w	a2,fa0
    5d04:	c50d                	beqz	a0,5d2e <floorf+0x5c>
    5d06:	00004517          	auipc	a0,0x4
    5d0a:	b5a52787          	flw	fa5,-1190(a0) # 9860 <init_jk+0x2c>
    5d0e:	00f577d3          	fadd.s	fa5,fa0,fa5
    5d12:	f0000753          	fmv.w.x	fa4,zero
    5d16:	a0f71553          	flt.s	a0,fa4,fa5
    5d1a:	c911                	beqz	a0,5d2e <floorf+0x5c>
    5d1c:	0006d663          	bgez	a3,5d28 <floorf+0x56>
    5d20:	40f857b3          	sra	a5,a6,a5
    5d24:	00d785b3          	add	a1,a5,a3
    5d28:	fff74613          	not	a2,a4
    5d2c:	8e6d                	and	a2,a2,a1
    5d2e:	f0060553          	fmv.w.x	fa0,a2
    5d32:	8082                	ret
    5d34:	00004797          	auipc	a5,0x4
    5d38:	b2c7a787          	flw	fa5,-1236(a5) # 9860 <init_jk+0x2c>
    5d3c:	00f577d3          	fadd.s	fa5,fa0,fa5
    5d40:	f0000753          	fmv.w.x	fa4,zero
    5d44:	e0050653          	fmv.x.w	a2,fa0
    5d48:	a0f717d3          	flt.s	a5,fa4,fa5
    5d4c:	d3ed                	beqz	a5,5d2e <floorf+0x5c>
    5d4e:	e0070653          	fmv.x.w	a2,fa4
    5d52:	fc06dee3          	bgez	a3,5d2e <floorf+0x5c>
    5d56:	e0050653          	fmv.x.w	a2,fa0
    5d5a:	db71                	beqz	a4,5d2e <floorf+0x5c>
    5d5c:	00004797          	auipc	a5,0x4
    5d60:	b007a787          	flw	fa5,-1280(a5) # 985c <init_jk+0x28>
    5d64:	e0078653          	fmv.x.w	a2,fa5
    5d68:	b7d9                	j	5d2e <floorf+0x5c>
    5d6a:	7f8007b7          	lui	a5,0x7f800
    5d6e:	e0050653          	fmv.x.w	a2,fa0
    5d72:	faf76ee3          	bltu	a4,a5,5d2e <floorf+0x5c>
    5d76:	00a577d3          	fadd.s	fa5,fa0,fa0
    5d7a:	e0078653          	fmv.x.w	a2,fa5
    5d7e:	f0060553          	fmv.w.x	fa0,a2
    5d82:	8082                	ret

00005d84 <scalbnf>:
    5d84:	e0050753          	fmv.x.w	a4,fa0
    5d88:	00171793          	slli	a5,a4,0x1
    5d8c:	8385                	srli	a5,a5,0x1
    5d8e:	c3b9                	beqz	a5,5dd4 <scalbnf+0x50>
    5d90:	7f800637          	lui	a2,0x7f800
    5d94:	02c7f963          	bgeu	a5,a2,5dc6 <scalbnf+0x42>
    5d98:	00c776b3          	and	a3,a4,a2
    5d9c:	ee9d                	bnez	a3,5dda <scalbnf+0x56>
    5d9e:	00004797          	auipc	a5,0x4
    5da2:	ac67a787          	flw	fa5,-1338(a5) # 9864 <init_jk+0x30>
    5da6:	10f577d3          	fmul.s	fa5,fa0,fa5
    5daa:	77d1                	lui	a5,0xffff4
    5dac:	cb078793          	addi	a5,a5,-848 # ffff3cb0 <_eusrstack+0xdffe3cb0>
    5db0:	e0078753          	fmv.x.w	a4,fa5
    5db4:	08f54663          	blt	a0,a5,5e40 <scalbnf+0xbc>
    5db8:	41775793          	srai	a5,a4,0x17
    5dbc:	0ff7f793          	andi	a5,a5,255
    5dc0:	86ba                	mv	a3,a4
    5dc2:	179d                	addi	a5,a5,-25
    5dc4:	a829                	j	5dde <scalbnf+0x5a>
    5dc6:	00a577d3          	fadd.s	fa5,fa0,fa0
    5dca:	e00787d3          	fmv.x.w	a5,fa5
    5dce:	f0078553          	fmv.w.x	fa0,a5
    5dd2:	8082                	ret
    5dd4:	e00507d3          	fmv.x.w	a5,fa0
    5dd8:	bfdd                	j	5dce <scalbnf+0x4a>
    5dda:	86ba                	mv	a3,a4
    5ddc:	83dd                	srli	a5,a5,0x17
    5dde:	1101                	addi	sp,sp,-32
    5de0:	ce06                	sw	ra,28(sp)
    5de2:	e622                	fsw	fs0,12(sp)
    5de4:	97aa                	add	a5,a5,a0
    5de6:	0fe00613          	li	a2,254
    5dea:	00f64c63          	blt	a2,a5,5e02 <scalbnf+0x7e>
    5dee:	02f04d63          	bgtz	a5,5e28 <scalbnf+0xa4>
    5df2:	5629                	li	a2,-22
    5df4:	06c7d163          	bge	a5,a2,5e56 <scalbnf+0xd2>
    5df8:	67b1                	lui	a5,0xc
    5dfa:	35078793          	addi	a5,a5,848 # c350 <__rt_init_end+0x27f4>
    5dfe:	06a7de63          	bge	a5,a0,5e7a <scalbnf+0xf6>
    5e02:	00004797          	auipc	a5,0x4
    5e06:	a5e7a407          	flw	fs0,-1442(a5) # 9860 <init_jk+0x2c>
    5e0a:	20840553          	fmv.s	fa0,fs0
    5e0e:	f00705d3          	fmv.w.x	fa1,a4
    5e12:	288d                	jal	5e84 <copysignf>
    5e14:	108577d3          	fmul.s	fa5,fa0,fs0
    5e18:	40f2                	lw	ra,28(sp)
    5e1a:	6432                	flw	fs0,12(sp)
    5e1c:	6105                	addi	sp,sp,32
    5e1e:	e00787d3          	fmv.x.w	a5,fa5
    5e22:	f0078553          	fmv.w.x	fa0,a5
    5e26:	8082                	ret
    5e28:	80800737          	lui	a4,0x80800
    5e2c:	177d                	addi	a4,a4,-1
    5e2e:	8f75                	and	a4,a4,a3
    5e30:	07de                	slli	a5,a5,0x17
    5e32:	8fd9                	or	a5,a5,a4
    5e34:	40f2                	lw	ra,28(sp)
    5e36:	6432                	flw	fs0,12(sp)
    5e38:	f0078553          	fmv.w.x	fa0,a5
    5e3c:	6105                	addi	sp,sp,32
    5e3e:	8082                	ret
    5e40:	f0070753          	fmv.w.x	fa4,a4
    5e44:	00004797          	auipc	a5,0x4
    5e48:	a247a787          	flw	fa5,-1500(a5) # 9868 <init_jk+0x34>
    5e4c:	10f777d3          	fmul.s	fa5,fa4,fa5
    5e50:	e00787d3          	fmv.x.w	a5,fa5
    5e54:	bfad                	j	5dce <scalbnf+0x4a>
    5e56:	80800737          	lui	a4,0x80800
    5e5a:	177d                	addi	a4,a4,-1
    5e5c:	07e5                	addi	a5,a5,25
    5e5e:	8ef9                	and	a3,a3,a4
    5e60:	07de                	slli	a5,a5,0x17
    5e62:	8fd5                	or	a5,a5,a3
    5e64:	f0078753          	fmv.w.x	fa4,a5
    5e68:	00004717          	auipc	a4,0x4
    5e6c:	a0472787          	flw	fa5,-1532(a4) # 986c <init_jk+0x38>
    5e70:	10f777d3          	fmul.s	fa5,fa4,fa5
    5e74:	e00787d3          	fmv.x.w	a5,fa5
    5e78:	bf75                	j	5e34 <scalbnf+0xb0>
    5e7a:	00004797          	auipc	a5,0x4
    5e7e:	9ee7a407          	flw	fs0,-1554(a5) # 9868 <init_jk+0x34>
    5e82:	b761                	j	5e0a <scalbnf+0x86>

00005e84 <copysignf>:
    5e84:	e00507d3          	fmv.x.w	a5,fa0
    5e88:	e00586d3          	fmv.x.w	a3,fa1
    5e8c:	80000737          	lui	a4,0x80000
    5e90:	fff74613          	not	a2,a4
    5e94:	8ff1                	and	a5,a5,a2
    5e96:	8f75                	and	a4,a4,a3
    5e98:	8fd9                	or	a5,a5,a4
    5e9a:	f0078553          	fmv.w.x	fa0,a5
    5e9e:	8082                	ret

00005ea0 <__divdf3>:
    5ea0:	7139                	addi	sp,sp,-64
    5ea2:	da26                	sw	s1,52(sp)
    5ea4:	de06                	sw	ra,60(sp)
    5ea6:	dc22                	sw	s0,56(sp)
    5ea8:	d84a                	sw	s2,48(sp)
    5eaa:	d64e                	sw	s3,44(sp)
    5eac:	d452                	sw	s4,40(sp)
    5eae:	d256                	sw	s5,36(sp)
    5eb0:	d05a                	sw	s6,32(sp)
    5eb2:	ce5e                	sw	s7,28(sp)
    5eb4:	cc62                	sw	s8,24(sp)
    5eb6:	ca66                	sw	s9,20(sp)
    5eb8:	84aa                	mv	s1,a0
    5eba:	00202b73          	frrm	s6
    5ebe:	0145d513          	srli	a0,a1,0x14
    5ec2:	00c59413          	slli	s0,a1,0xc
    5ec6:	7ff57513          	andi	a0,a0,2047
    5eca:	8031                	srli	s0,s0,0xc
    5ecc:	01f5da13          	srli	s4,a1,0x1f
    5ed0:	c979                	beqz	a0,5fa6 <__divdf3+0x106>
    5ed2:	7ff00793          	li	a5,2047
    5ed6:	10f50d63          	beq	a0,a5,5ff0 <__divdf3+0x150>
    5eda:	01d4db93          	srli	s7,s1,0x1d
    5ede:	040e                	slli	s0,s0,0x3
    5ee0:	008be433          	or	s0,s7,s0
    5ee4:	00800bb7          	lui	s7,0x800
    5ee8:	00349c13          	slli	s8,s1,0x3
    5eec:	01746bb3          	or	s7,s0,s7
    5ef0:	c0150993          	addi	s3,a0,-1023
    5ef4:	4481                	li	s1,0
    5ef6:	4c81                	li	s9,0
    5ef8:	4901                	li	s2,0
    5efa:	0146d793          	srli	a5,a3,0x14
    5efe:	00c69413          	slli	s0,a3,0xc
    5f02:	7ff7f793          	andi	a5,a5,2047
    5f06:	85b2                	mv	a1,a2
    5f08:	8031                	srli	s0,s0,0xc
    5f0a:	01f6da93          	srli	s5,a3,0x1f
    5f0e:	c3a5                	beqz	a5,5f6e <__divdf3+0xce>
    5f10:	7ff00713          	li	a4,2047
    5f14:	04e78063          	beq	a5,a4,5f54 <__divdf3+0xb4>
    5f18:	00341513          	slli	a0,s0,0x3
    5f1c:	01d65413          	srli	s0,a2,0x1d
    5f20:	8c49                	or	s0,s0,a0
    5f22:	c0178793          	addi	a5,a5,-1023
    5f26:	00800537          	lui	a0,0x800
    5f2a:	00361593          	slli	a1,a2,0x3
    5f2e:	8c49                	or	s0,s0,a0
    5f30:	40f989b3          	sub	s3,s3,a5
    5f34:	4601                	li	a2,0
    5f36:	015a46b3          	xor	a3,s4,s5
    5f3a:	47bd                	li	a5,15
    5f3c:	8836                	mv	a6,a3
    5f3e:	1c97e663          	bltu	a5,s1,610a <__divdf3+0x26a>
    5f42:	00004717          	auipc	a4,0x4
    5f46:	92e70713          	addi	a4,a4,-1746 # 9870 <init_jk+0x3c>
    5f4a:	048a                	slli	s1,s1,0x2
    5f4c:	94ba                	add	s1,s1,a4
    5f4e:	409c                	lw	a5,0(s1)
    5f50:	97ba                	add	a5,a5,a4
    5f52:	8782                	jr	a5
    5f54:	8e41                	or	a2,a2,s0
    5f56:	80198993          	addi	s3,s3,-2047
    5f5a:	ce79                	beqz	a2,6038 <__divdf3+0x198>
    5f5c:	00c41793          	slli	a5,s0,0xc
    5f60:	0034e493          	ori	s1,s1,3
    5f64:	460d                	li	a2,3
    5f66:	fc07c8e3          	bltz	a5,5f36 <__divdf3+0x96>
    5f6a:	4941                	li	s2,16
    5f6c:	b7e9                	j	5f36 <__divdf3+0x96>
    5f6e:	00c467b3          	or	a5,s0,a2
    5f72:	cfcd                	beqz	a5,602c <__divdf3+0x18c>
    5f74:	36040363          	beqz	s0,62da <__divdf3+0x43a>
    5f78:	8522                	mv	a0,s0
    5f7a:	c432                	sw	a2,8(sp)
    5f7c:	563010ef          	jal	ra,7cde <__clzsi2>
    5f80:	4622                	lw	a2,8(sp)
    5f82:	ff550713          	addi	a4,a0,-11 # 7ffff5 <__rt_init_end+0x7f6499>
    5f86:	47f5                	li	a5,29
    5f88:	ff850593          	addi	a1,a0,-8
    5f8c:	8f99                	sub	a5,a5,a4
    5f8e:	00b41433          	sll	s0,s0,a1
    5f92:	00f657b3          	srl	a5,a2,a5
    5f96:	8c5d                	or	s0,s0,a5
    5f98:	00b615b3          	sll	a1,a2,a1
    5f9c:	954e                	add	a0,a0,s3
    5f9e:	3f350993          	addi	s3,a0,1011
    5fa2:	4601                	li	a2,0
    5fa4:	bf49                	j	5f36 <__divdf3+0x96>
    5fa6:	00946bb3          	or	s7,s0,s1
    5faa:	060b8b63          	beqz	s7,6020 <__divdf3+0x180>
    5fae:	c636                	sw	a3,12(sp)
    5fb0:	c432                	sw	a2,8(sp)
    5fb2:	30040263          	beqz	s0,62b6 <__divdf3+0x416>
    5fb6:	8522                	mv	a0,s0
    5fb8:	527010ef          	jal	ra,7cde <__clzsi2>
    5fbc:	4622                	lw	a2,8(sp)
    5fbe:	46b2                	lw	a3,12(sp)
    5fc0:	89aa                	mv	s3,a0
    5fc2:	ff550713          	addi	a4,a0,-11
    5fc6:	4bf5                	li	s7,29
    5fc8:	ff898c13          	addi	s8,s3,-8
    5fcc:	40eb8bb3          	sub	s7,s7,a4
    5fd0:	01841433          	sll	s0,s0,s8
    5fd4:	0174dbb3          	srl	s7,s1,s7
    5fd8:	008bebb3          	or	s7,s7,s0
    5fdc:	01849c33          	sll	s8,s1,s8
    5fe0:	c0d00513          	li	a0,-1011
    5fe4:	413509b3          	sub	s3,a0,s3
    5fe8:	4481                	li	s1,0
    5fea:	4c81                	li	s9,0
    5fec:	4901                	li	s2,0
    5fee:	b731                	j	5efa <__divdf3+0x5a>
    5ff0:	00946bb3          	or	s7,s0,s1
    5ff4:	000b8f63          	beqz	s7,6012 <__divdf3+0x172>
    5ff8:	00c41793          	slli	a5,s0,0xc
    5ffc:	8c26                	mv	s8,s1
    5ffe:	8ba2                	mv	s7,s0
    6000:	44b1                	li	s1,12
    6002:	7ff00993          	li	s3,2047
    6006:	4c8d                	li	s9,3
    6008:	4941                	li	s2,16
    600a:	ee07d8e3          	bgez	a5,5efa <__divdf3+0x5a>
    600e:	4901                	li	s2,0
    6010:	b5ed                	j	5efa <__divdf3+0x5a>
    6012:	44a1                	li	s1,8
    6014:	4c01                	li	s8,0
    6016:	7ff00993          	li	s3,2047
    601a:	4c89                	li	s9,2
    601c:	4901                	li	s2,0
    601e:	bdf1                	j	5efa <__divdf3+0x5a>
    6020:	4491                	li	s1,4
    6022:	4c01                	li	s8,0
    6024:	4981                	li	s3,0
    6026:	4c85                	li	s9,1
    6028:	4901                	li	s2,0
    602a:	bdc1                	j	5efa <__divdf3+0x5a>
    602c:	0014e493          	ori	s1,s1,1
    6030:	4401                	li	s0,0
    6032:	4581                	li	a1,0
    6034:	4605                	li	a2,1
    6036:	b701                	j	5f36 <__divdf3+0x96>
    6038:	0024e493          	ori	s1,s1,2
    603c:	4401                	li	s0,0
    603e:	4581                	li	a1,0
    6040:	4609                	li	a2,2
    6042:	bdd5                	j	5f36 <__divdf3+0x96>
    6044:	4681                	li	a3,0
    6046:	7ff00713          	li	a4,2047
    604a:	000807b7          	lui	a5,0x80
    604e:	4401                	li	s0,0
    6050:	07b2                	slli	a5,a5,0xc
    6052:	0752                	slli	a4,a4,0x14
    6054:	83b1                	srli	a5,a5,0xc
    6056:	06fe                	slli	a3,a3,0x1f
    6058:	8fd9                	or	a5,a5,a4
    605a:	8fd5                	or	a5,a5,a3
    605c:	8522                	mv	a0,s0
    605e:	85be                	mv	a1,a5
    6060:	0a091263          	bnez	s2,6104 <__divdf3+0x264>
    6064:	50f2                	lw	ra,60(sp)
    6066:	5462                	lw	s0,56(sp)
    6068:	54d2                	lw	s1,52(sp)
    606a:	5942                	lw	s2,48(sp)
    606c:	59b2                	lw	s3,44(sp)
    606e:	5a22                	lw	s4,40(sp)
    6070:	5a92                	lw	s5,36(sp)
    6072:	5b02                	lw	s6,32(sp)
    6074:	4bf2                	lw	s7,28(sp)
    6076:	4c62                	lw	s8,24(sp)
    6078:	4cd2                	lw	s9,20(sp)
    607a:	6121                	addi	sp,sp,64
    607c:	8082                	ret
    607e:	4701                	li	a4,0
    6080:	4781                	li	a5,0
    6082:	4401                	li	s0,0
    6084:	b7f1                	j	6050 <__divdf3+0x1b0>
    6086:	8852                	mv	a6,s4
    6088:	845e                	mv	s0,s7
    608a:	85e2                	mv	a1,s8
    608c:	8666                	mv	a2,s9
    608e:	4789                	li	a5,2
    6090:	52f60163          	beq	a2,a5,65b2 <__divdf3+0x712>
    6094:	478d                	li	a5,3
    6096:	faf607e3          	beq	a2,a5,6044 <__divdf3+0x1a4>
    609a:	4785                	li	a5,1
    609c:	4cf60063          	beq	a2,a5,655c <__divdf3+0x6bc>
    60a0:	3ff98613          	addi	a2,s3,1023
    60a4:	28c05a63          	blez	a2,6338 <__divdf3+0x498>
    60a8:	0075f793          	andi	a5,a1,7
    60ac:	42079463          	bnez	a5,64d4 <__divdf3+0x634>
    60b0:	818d                	srli	a1,a1,0x3
    60b2:	86c2                	mv	a3,a6
    60b4:	00741793          	slli	a5,s0,0x7
    60b8:	0007d863          	bgez	a5,60c8 <__divdf3+0x228>
    60bc:	ff0007b7          	lui	a5,0xff000
    60c0:	17fd                	addi	a5,a5,-1
    60c2:	8c7d                	and	s0,s0,a5
    60c4:	40098613          	addi	a2,s3,1024
    60c8:	7fe00793          	li	a5,2046
    60cc:	2ec7cb63          	blt	a5,a2,63c2 <__divdf3+0x522>
    60d0:	01d41713          	slli	a4,s0,0x1d
    60d4:	00941793          	slli	a5,s0,0x9
    60d8:	83b1                	srli	a5,a5,0xc
    60da:	00b76433          	or	s0,a4,a1
    60de:	7ff67713          	andi	a4,a2,2047
    60e2:	b7bd                	j	6050 <__divdf3+0x1b0>
    60e4:	7ff00713          	li	a4,2047
    60e8:	4781                	li	a5,0
    60ea:	4401                	li	s0,0
    60ec:	b795                	j	6050 <__divdf3+0x1b0>
    60ee:	8856                	mv	a6,s5
    60f0:	bf79                	j	608e <__divdf3+0x1ee>
    60f2:	00896913          	ori	s2,s2,8
    60f6:	7ff00793          	li	a5,2047
    60fa:	06fe                	slli	a3,a3,0x1f
    60fc:	07d2                	slli	a5,a5,0x14
    60fe:	8fd5                	or	a5,a5,a3
    6100:	4501                	li	a0,0
    6102:	85be                	mv	a1,a5
    6104:	00192073          	csrs	fflags,s2
    6108:	bfb1                	j	6064 <__divdf3+0x1c4>
    610a:	21746e63          	bltu	s0,s7,6326 <__divdf3+0x486>
    610e:	208b8a63          	beq	s7,s0,6322 <__divdf3+0x482>
    6112:	87e2                	mv	a5,s8
    6114:	19fd                	addi	s3,s3,-1
    6116:	4c01                	li	s8,0
    6118:	0422                	slli	s0,s0,0x8
    611a:	0185d893          	srli	a7,a1,0x18
    611e:	0088e8b3          	or	a7,a7,s0
    6122:	0108d313          	srli	t1,a7,0x10
    6126:	026bd433          	divu	s0,s7,t1
    612a:	01089e13          	slli	t3,a7,0x10
    612e:	010e5e13          	srli	t3,t3,0x10
    6132:	0107d713          	srli	a4,a5,0x10
    6136:	00859e93          	slli	t4,a1,0x8
    613a:	026bfbb3          	remu	s7,s7,t1
    613e:	028e0633          	mul	a2,t3,s0
    6142:	0bc2                	slli	s7,s7,0x10
    6144:	01776733          	or	a4,a4,s7
    6148:	00c77b63          	bgeu	a4,a2,615e <__divdf3+0x2be>
    614c:	9746                	add	a4,a4,a7
    614e:	fff40593          	addi	a1,s0,-1
    6152:	2d176a63          	bltu	a4,a7,6426 <__divdf3+0x586>
    6156:	2cc77863          	bgeu	a4,a2,6426 <__divdf3+0x586>
    615a:	1479                	addi	s0,s0,-2
    615c:	9746                	add	a4,a4,a7
    615e:	8f11                	sub	a4,a4,a2
    6160:	02675533          	divu	a0,a4,t1
    6164:	07c2                	slli	a5,a5,0x10
    6166:	83c1                	srli	a5,a5,0x10
    6168:	02677733          	remu	a4,a4,t1
    616c:	02ae02b3          	mul	t0,t3,a0
    6170:	0742                	slli	a4,a4,0x10
    6172:	8fd9                	or	a5,a5,a4
    6174:	0057fb63          	bgeu	a5,t0,618a <__divdf3+0x2ea>
    6178:	97c6                	add	a5,a5,a7
    617a:	fff50713          	addi	a4,a0,-1
    617e:	2b17e263          	bltu	a5,a7,6422 <__divdf3+0x582>
    6182:	2a57f063          	bgeu	a5,t0,6422 <__divdf3+0x582>
    6186:	1579                	addi	a0,a0,-2
    6188:	97c6                	add	a5,a5,a7
    618a:	0442                	slli	s0,s0,0x10
    618c:	63c1                	lui	t2,0x10
    618e:	8c49                	or	s0,s0,a0
    6190:	fff38513          	addi	a0,t2,-1 # ffff <__rt_init_end+0x64a3>
    6194:	00a47633          	and	a2,s0,a0
    6198:	01045593          	srli	a1,s0,0x10
    619c:	010edf13          	srli	t5,t4,0x10
    61a0:	00aef533          	and	a0,t4,a0
    61a4:	02c50fb3          	mul	t6,a0,a2
    61a8:	405787b3          	sub	a5,a5,t0
    61ac:	02cf0633          	mul	a2,t5,a2
    61b0:	010fd713          	srli	a4,t6,0x10
    61b4:	02a582b3          	mul	t0,a1,a0
    61b8:	9616                	add	a2,a2,t0
    61ba:	9732                	add	a4,a4,a2
    61bc:	03e585b3          	mul	a1,a1,t5
    61c0:	00577363          	bgeu	a4,t0,61c6 <__divdf3+0x326>
    61c4:	959e                	add	a1,a1,t2
    61c6:	62c1                	lui	t0,0x10
    61c8:	12fd                	addi	t0,t0,-1
    61ca:	01075613          	srli	a2,a4,0x10
    61ce:	00577733          	and	a4,a4,t0
    61d2:	0742                	slli	a4,a4,0x10
    61d4:	005fffb3          	and	t6,t6,t0
    61d8:	962e                	add	a2,a2,a1
    61da:	977e                	add	a4,a4,t6
    61dc:	12c7e463          	bltu	a5,a2,6304 <__divdf3+0x464>
    61e0:	12c78063          	beq	a5,a2,6300 <__divdf3+0x460>
    61e4:	40ec0733          	sub	a4,s8,a4
    61e8:	8f91                	sub	a5,a5,a2
    61ea:	00ec3c33          	sltu	s8,s8,a4
    61ee:	418787b3          	sub	a5,a5,s8
    61f2:	3ff98613          	addi	a2,s3,1023
    61f6:	2af88f63          	beq	a7,a5,64b4 <__divdf3+0x614>
    61fa:	0267d5b3          	divu	a1,a5,t1
    61fe:	01075693          	srli	a3,a4,0x10
    6202:	0267f7b3          	remu	a5,a5,t1
    6206:	02be0fb3          	mul	t6,t3,a1
    620a:	07c2                	slli	a5,a5,0x10
    620c:	8fd5                	or	a5,a5,a3
    620e:	01f7fb63          	bgeu	a5,t6,6224 <__divdf3+0x384>
    6212:	97c6                	add	a5,a5,a7
    6214:	fff58693          	addi	a3,a1,-1
    6218:	2f17e063          	bltu	a5,a7,64f8 <__divdf3+0x658>
    621c:	2df7fe63          	bgeu	a5,t6,64f8 <__divdf3+0x658>
    6220:	15f9                	addi	a1,a1,-2
    6222:	97c6                	add	a5,a5,a7
    6224:	41f787b3          	sub	a5,a5,t6
    6228:	0267d6b3          	divu	a3,a5,t1
    622c:	0742                	slli	a4,a4,0x10
    622e:	8341                	srli	a4,a4,0x10
    6230:	0267f7b3          	remu	a5,a5,t1
    6234:	02de0e33          	mul	t3,t3,a3
    6238:	07c2                	slli	a5,a5,0x10
    623a:	8fd9                	or	a5,a5,a4
    623c:	01c7fb63          	bgeu	a5,t3,6252 <__divdf3+0x3b2>
    6240:	97c6                	add	a5,a5,a7
    6242:	fff68713          	addi	a4,a3,-1 # 31ffffff <_eusrstack+0x11feffff>
    6246:	2b17eb63          	bltu	a5,a7,64fc <__divdf3+0x65c>
    624a:	2bc7f963          	bgeu	a5,t3,64fc <__divdf3+0x65c>
    624e:	16f9                	addi	a3,a3,-2
    6250:	97c6                	add	a5,a5,a7
    6252:	05c2                	slli	a1,a1,0x10
    6254:	8dd5                	or	a1,a1,a3
    6256:	01059693          	slli	a3,a1,0x10
    625a:	0105df93          	srli	t6,a1,0x10
    625e:	82c1                	srli	a3,a3,0x10
    6260:	02a68333          	mul	t1,a3,a0
    6264:	41c787b3          	sub	a5,a5,t3
    6268:	02df06b3          	mul	a3,t5,a3
    626c:	01035713          	srli	a4,t1,0x10
    6270:	02af8533          	mul	a0,t6,a0
    6274:	96aa                	add	a3,a3,a0
    6276:	9736                	add	a4,a4,a3
    6278:	03ff0f33          	mul	t5,t5,t6
    627c:	00a77463          	bgeu	a4,a0,6284 <__divdf3+0x3e4>
    6280:	66c1                	lui	a3,0x10
    6282:	9f36                	add	t5,t5,a3
    6284:	6541                	lui	a0,0x10
    6286:	157d                	addi	a0,a0,-1
    6288:	01075693          	srli	a3,a4,0x10
    628c:	8f69                	and	a4,a4,a0
    628e:	0742                	slli	a4,a4,0x10
    6290:	00a37333          	and	t1,t1,a0
    6294:	9f36                	add	t5,t5,a3
    6296:	971a                	add	a4,a4,t1
    6298:	17e7fa63          	bgeu	a5,t5,640c <__divdf3+0x56c>
    629c:	97c6                	add	a5,a5,a7
    629e:	fff58693          	addi	a3,a1,-1
    62a2:	2d17e263          	bltu	a5,a7,6566 <__divdf3+0x6c6>
    62a6:	27e7eb63          	bltu	a5,t5,651c <__divdf3+0x67c>
    62aa:	35e78a63          	beq	a5,t5,65fe <__divdf3+0x75e>
    62ae:	85b6                	mv	a1,a3
    62b0:	0015e593          	ori	a1,a1,1
    62b4:	bbc5                	j	60a4 <__divdf3+0x204>
    62b6:	8526                	mv	a0,s1
    62b8:	227010ef          	jal	ra,7cde <__clzsi2>
    62bc:	01550713          	addi	a4,a0,21 # 10015 <__rt_init_end+0x64b9>
    62c0:	45f1                	li	a1,28
    62c2:	02050993          	addi	s3,a0,32
    62c6:	4622                	lw	a2,8(sp)
    62c8:	46b2                	lw	a3,12(sp)
    62ca:	cee5dee3          	bge	a1,a4,5fc6 <__divdf3+0x126>
    62ce:	ff850413          	addi	s0,a0,-8
    62d2:	00849bb3          	sll	s7,s1,s0
    62d6:	4c01                	li	s8,0
    62d8:	b321                	j	5fe0 <__divdf3+0x140>
    62da:	8532                	mv	a0,a2
    62dc:	c432                	sw	a2,8(sp)
    62de:	201010ef          	jal	ra,7cde <__clzsi2>
    62e2:	01550713          	addi	a4,a0,21
    62e6:	46f1                	li	a3,28
    62e8:	87aa                	mv	a5,a0
    62ea:	4622                	lw	a2,8(sp)
    62ec:	02050513          	addi	a0,a0,32
    62f0:	c8e6dbe3          	bge	a3,a4,5f86 <__divdf3+0xe6>
    62f4:	ff878413          	addi	s0,a5,-8 # fefffff8 <_eusrstack+0xdefefff8>
    62f8:	4581                	li	a1,0
    62fa:	00861433          	sll	s0,a2,s0
    62fe:	b979                	j	5f9c <__divdf3+0xfc>
    6300:	eeec72e3          	bgeu	s8,a4,61e4 <__divdf3+0x344>
    6304:	9c76                	add	s8,s8,t4
    6306:	01dc35b3          	sltu	a1,s8,t4
    630a:	95c6                	add	a1,a1,a7
    630c:	97ae                	add	a5,a5,a1
    630e:	fff40593          	addi	a1,s0,-1
    6312:	10f8f263          	bgeu	a7,a5,6416 <__divdf3+0x576>
    6316:	18c7e863          	bltu	a5,a2,64a6 <__divdf3+0x606>
    631a:	18f60463          	beq	a2,a5,64a2 <__divdf3+0x602>
    631e:	842e                	mv	s0,a1
    6320:	b5d1                	j	61e4 <__divdf3+0x344>
    6322:	debc68e3          	bltu	s8,a1,6112 <__divdf3+0x272>
    6326:	01fb9713          	slli	a4,s7,0x1f
    632a:	001c5793          	srli	a5,s8,0x1
    632e:	001bdb93          	srli	s7,s7,0x1
    6332:	8fd9                	or	a5,a5,a4
    6334:	0c7e                	slli	s8,s8,0x1f
    6336:	b3cd                	j	6118 <__divdf3+0x278>
    6338:	86c2                	mv	a3,a6
    633a:	e635                	bnez	a2,63a6 <__divdf3+0x506>
    633c:	0075f613          	andi	a2,a1,7
    6340:	88a2                	mv	a7,s0
    6342:	24061263          	bnez	a2,6586 <__divdf3+0x6e6>
    6346:	8061                	srli	s0,s0,0x18
    6348:	00144413          	xori	s0,s0,1
    634c:	00147613          	andi	a2,s0,1
    6350:	4785                	li	a5,1
    6352:	41e98513          	addi	a0,s3,1054
    6356:	00a89733          	sll	a4,a7,a0
    635a:	00f5d433          	srl	s0,a1,a5
    635e:	00a595b3          	sll	a1,a1,a0
    6362:	8c59                	or	s0,s0,a4
    6364:	00b035b3          	snez	a1,a1
    6368:	8c4d                	or	s0,s0,a1
    636a:	00747593          	andi	a1,s0,7
    636e:	00f8d733          	srl	a4,a7,a5
    6372:	c999                	beqz	a1,6388 <__divdf3+0x4e8>
    6374:	4789                	li	a5,2
    6376:	00196913          	ori	s2,s2,1
    637a:	2efb0663          	beq	s6,a5,6666 <__divdf3+0x7c6>
    637e:	478d                	li	a5,3
    6380:	2cfb0863          	beq	s6,a5,6650 <__divdf3+0x7b0>
    6384:	280b0563          	beqz	s6,660e <__divdf3+0x76e>
    6388:	00871793          	slli	a5,a4,0x8
    638c:	2207dd63          	bgez	a5,65c6 <__divdf3+0x726>
    6390:	00196913          	ori	s2,s2,1
    6394:	4785                	li	a5,1
    6396:	d60602e3          	beqz	a2,60fa <__divdf3+0x25a>
    639a:	4605                	li	a2,1
    639c:	4781                	li	a5,0
    639e:	4401                	li	s0,0
    63a0:	00296913          	ori	s2,s2,2
    63a4:	a081                	j	63e4 <__divdf3+0x544>
    63a6:	4785                	li	a5,1
    63a8:	8f91                	sub	a5,a5,a2
    63aa:	03800713          	li	a4,56
    63ae:	08f75c63          	bge	a4,a5,6446 <__divdf3+0x5a6>
    63b2:	8c4d                	or	s0,s0,a1
    63b4:	14041663          	bnez	s0,6500 <__divdf3+0x660>
    63b8:	00296913          	ori	s2,s2,2
    63bc:	4601                	li	a2,0
    63be:	4781                	li	a5,0
    63c0:	a015                	j	63e4 <__divdf3+0x544>
    63c2:	4789                	li	a5,2
    63c4:	0cfb0c63          	beq	s6,a5,649c <__divdf3+0x5fc>
    63c8:	478d                	li	a5,3
    63ca:	06fb0063          	beq	s6,a5,642a <__divdf3+0x58a>
    63ce:	060b0063          	beqz	s6,642e <__divdf3+0x58e>
    63d2:	00100437          	lui	s0,0x100
    63d6:	fff40793          	addi	a5,s0,-1 # fffff <__rt_init_end+0xf64a3>
    63da:	7fe00613          	li	a2,2046
    63de:	547d                	li	s0,-1
    63e0:	00596913          	ori	s2,s2,5
    63e4:	00c79713          	slli	a4,a5,0xc
    63e8:	8331                	srli	a4,a4,0xc
    63ea:	01461793          	slli	a5,a2,0x14
    63ee:	06fe                	slli	a3,a3,0x1f
    63f0:	8fd9                	or	a5,a5,a4
    63f2:	8fd5                	or	a5,a5,a3
    63f4:	8522                	mv	a0,s0
    63f6:	85be                	mv	a1,a5
    63f8:	00192073          	csrs	fflags,s2
    63fc:	b1a5                	j	6064 <__divdf3+0x1c4>
    63fe:	4501                	li	a0,0
    6400:	7ff805b7          	lui	a1,0x7ff80
    6404:	4941                	li	s2,16
    6406:	00192073          	csrs	fflags,s2
    640a:	b9a9                	j	6064 <__divdf3+0x1c4>
    640c:	ebe792e3          	bne	a5,t5,62b0 <__divdf3+0x410>
    6410:	c8070ae3          	beqz	a4,60a4 <__divdf3+0x204>
    6414:	b561                	j	629c <__divdf3+0x3fc>
    6416:	f0f894e3          	bne	a7,a5,631e <__divdf3+0x47e>
    641a:	efdc7ee3          	bgeu	s8,t4,6316 <__divdf3+0x476>
    641e:	842e                	mv	s0,a1
    6420:	b3d1                	j	61e4 <__divdf3+0x344>
    6422:	853a                	mv	a0,a4
    6424:	b39d                	j	618a <__divdf3+0x2ea>
    6426:	842e                	mv	s0,a1
    6428:	bb1d                	j	615e <__divdf3+0x2be>
    642a:	fa0814e3          	bnez	a6,63d2 <__divdf3+0x532>
    642e:	7ff00613          	li	a2,2047
    6432:	4781                	li	a5,0
    6434:	4401                	li	s0,0
    6436:	b76d                	j	63e0 <__divdf3+0x540>
    6438:	4785                	li	a5,1
    643a:	8f91                	sub	a5,a5,a2
    643c:	03800713          	li	a4,56
    6440:	0cf74063          	blt	a4,a5,6500 <__divdf3+0x660>
    6444:	55fd                	li	a1,-1
    6446:	477d                	li	a4,31
    6448:	22f75e63          	bge	a4,a5,6684 <__divdf3+0x7e4>
    644c:	5705                	li	a4,-31
    644e:	8f11                	sub	a4,a4,a2
    6450:	02000613          	li	a2,32
    6454:	00e45733          	srl	a4,s0,a4
    6458:	00c78763          	beq	a5,a2,6466 <__divdf3+0x5c6>
    645c:	43e98513          	addi	a0,s3,1086
    6460:	00a41433          	sll	s0,s0,a0
    6464:	8dc1                	or	a1,a1,s0
    6466:	00b03433          	snez	s0,a1
    646a:	8c59                	or	s0,s0,a4
    646c:	00747793          	andi	a5,s0,7
    6470:	cb99                	beqz	a5,6486 <__divdf3+0x5e6>
    6472:	4789                	li	a5,2
    6474:	00196913          	ori	s2,s2,1
    6478:	1efb0563          	beq	s6,a5,6662 <__divdf3+0x7c2>
    647c:	478d                	li	a5,3
    647e:	1cfb0763          	beq	s6,a5,664c <__divdf3+0x7ac>
    6482:	180b0463          	beqz	s6,660a <__divdf3+0x76a>
    6486:	800d                	srli	s0,s0,0x3
    6488:	4781                	li	a5,0
    648a:	00197613          	andi	a2,s2,1
    648e:	4701                	li	a4,0
    6490:	bc0600e3          	beqz	a2,6050 <__divdf3+0x1b0>
    6494:	4601                	li	a2,0
    6496:	00296913          	ori	s2,s2,2
    649a:	b7a9                	j	63e4 <__divdf3+0x544>
    649c:	f2080be3          	beqz	a6,63d2 <__divdf3+0x532>
    64a0:	b779                	j	642e <__divdf3+0x58e>
    64a2:	e6ec7ee3          	bgeu	s8,a4,631e <__divdf3+0x47e>
    64a6:	9c76                	add	s8,s8,t4
    64a8:	01dc35b3          	sltu	a1,s8,t4
    64ac:	95c6                	add	a1,a1,a7
    64ae:	1479                	addi	s0,s0,-2
    64b0:	97ae                	add	a5,a5,a1
    64b2:	bb0d                	j	61e4 <__divdf3+0x344>
    64b4:	08c05363          	blez	a2,653a <__divdf3+0x69a>
    64b8:	4789                	li	a5,2
    64ba:	00196913          	ori	s2,s2,1
    64be:	0afb0e63          	beq	s6,a5,657a <__divdf3+0x6da>
    64c2:	478d                	li	a5,3
    64c4:	0afb0563          	beq	s6,a5,656e <__divdf3+0x6ce>
    64c8:	0e0b0b63          	beqz	s6,65be <__divdf3+0x71e>
    64cc:	200005b7          	lui	a1,0x20000
    64d0:	15fd                	addi	a1,a1,-1
    64d2:	b6cd                	j	60b4 <__divdf3+0x214>
    64d4:	4789                	li	a5,2
    64d6:	00196913          	ori	s2,s2,1
    64da:	0afb0163          	beq	s6,a5,657c <__divdf3+0x6dc>
    64de:	478d                	li	a5,3
    64e0:	08fb0863          	beq	s6,a5,6570 <__divdf3+0x6d0>
    64e4:	bc0b16e3          	bnez	s6,60b0 <__divdf3+0x210>
    64e8:	00f5f793          	andi	a5,a1,15
    64ec:	4711                	li	a4,4
    64ee:	86c2                	mv	a3,a6
    64f0:	16e79e63          	bne	a5,a4,666c <__divdf3+0x7cc>
    64f4:	818d                	srli	a1,a1,0x3
    64f6:	be7d                	j	60b4 <__divdf3+0x214>
    64f8:	85b6                	mv	a1,a3
    64fa:	b32d                	j	6224 <__divdf3+0x384>
    64fc:	86ba                	mv	a3,a4
    64fe:	bb91                	j	6252 <__divdf3+0x3b2>
    6500:	4789                	li	a5,2
    6502:	00196913          	ori	s2,s2,1
    6506:	01003433          	snez	s0,a6
    650a:	eafb07e3          	beq	s6,a5,63b8 <__divdf3+0x518>
    650e:	478d                	li	a5,3
    6510:	4401                	li	s0,0
    6512:	eafb13e3          	bne	s6,a5,63b8 <__divdf3+0x518>
    6516:	00183413          	seqz	s0,a6
    651a:	bd79                	j	63b8 <__divdf3+0x518>
    651c:	001e9693          	slli	a3,t4,0x1
    6520:	01d6beb3          	sltu	t4,a3,t4
    6524:	98f6                	add	a7,a7,t4
    6526:	97c6                	add	a5,a5,a7
    6528:	15f9                	addi	a1,a1,-2
    652a:	8eb6                	mv	t4,a3
    652c:	d9e792e3          	bne	a5,t5,62b0 <__divdf3+0x410>
    6530:	b7d70ae3          	beq	a4,t4,60a4 <__divdf3+0x204>
    6534:	0015e593          	ori	a1,a1,1
    6538:	b6b5                	j	60a4 <__divdf3+0x204>
    653a:	ee061fe3          	bnez	a2,6438 <__divdf3+0x598>
    653e:	4789                	li	a5,2
    6540:	00196913          	ori	s2,s2,1
    6544:	0efb0d63          	beq	s6,a5,663e <__divdf3+0x79e>
    6548:	478d                	li	a5,3
    654a:	0cfb0e63          	beq	s6,a5,6626 <__divdf3+0x786>
    654e:	120b0763          	beqz	s6,667c <__divdf3+0x7dc>
    6552:	88a2                	mv	a7,s0
    6554:	55fd                	li	a1,-1
    6556:	c0100993          	li	s3,-1023
    655a:	b3f5                	j	6346 <__divdf3+0x4a6>
    655c:	86c2                	mv	a3,a6
    655e:	4701                	li	a4,0
    6560:	4781                	li	a5,0
    6562:	4401                	li	s0,0
    6564:	b4f5                	j	6050 <__divdf3+0x1b0>
    6566:	85b6                	mv	a1,a3
    6568:	fde784e3          	beq	a5,t5,6530 <__divdf3+0x690>
    656c:	b391                	j	62b0 <__divdf3+0x410>
    656e:	55fd                	li	a1,-1
    6570:	06080e63          	beqz	a6,65ec <__divdf3+0x74c>
    6574:	818d                	srli	a1,a1,0x3
    6576:	4685                	li	a3,1
    6578:	be35                	j	60b4 <__divdf3+0x214>
    657a:	55fd                	li	a1,-1
    657c:	04081f63          	bnez	a6,65da <__divdf3+0x73a>
    6580:	818d                	srli	a1,a1,0x3
    6582:	4681                	li	a3,0
    6584:	be05                	j	60b4 <__divdf3+0x214>
    6586:	4789                	li	a5,2
    6588:	00196913          	ori	s2,s2,1
    658c:	0afb0d63          	beq	s6,a5,6646 <__divdf3+0x7a6>
    6590:	478d                	li	a5,3
    6592:	08fb0d63          	beq	s6,a5,662c <__divdf3+0x78c>
    6596:	da0b18e3          	bnez	s6,6346 <__divdf3+0x4a6>
    659a:	00f5f793          	andi	a5,a1,15
    659e:	4711                	li	a4,4
    65a0:	dae783e3          	beq	a5,a4,6346 <__divdf3+0x4a6>
    65a4:	ffc5b793          	sltiu	a5,a1,-4
    65a8:	0017c793          	xori	a5,a5,1
    65ac:	88a2                	mv	a7,s0
    65ae:	943e                	add	s0,s0,a5
    65b0:	bb59                	j	6346 <__divdf3+0x4a6>
    65b2:	86c2                	mv	a3,a6
    65b4:	7ff00713          	li	a4,2047
    65b8:	4781                	li	a5,0
    65ba:	4401                	li	s0,0
    65bc:	bc51                	j	6050 <__divdf3+0x1b0>
    65be:	4785                	li	a5,1
    65c0:	4581                	li	a1,0
    65c2:	943e                	add	s0,s0,a5
    65c4:	bcc5                	j	60b4 <__divdf3+0x214>
    65c6:	00971793          	slli	a5,a4,0x9
    65ca:	800d                	srli	s0,s0,0x3
    65cc:	0776                	slli	a4,a4,0x1d
    65ce:	83b1                	srli	a5,a5,0xc
    65d0:	8c59                	or	s0,s0,a4
    65d2:	ea061ce3          	bnez	a2,648a <__divdf3+0x5ea>
    65d6:	4701                	li	a4,0
    65d8:	bca5                	j	6050 <__divdf3+0x1b0>
    65da:	00858793          	addi	a5,a1,8 # 20000008 <_data_vma+0x8>
    65de:	00b7b5b3          	sltu	a1,a5,a1
    65e2:	942e                	add	s0,s0,a1
    65e4:	4685                	li	a3,1
    65e6:	0037d593          	srli	a1,a5,0x3
    65ea:	b4e9                	j	60b4 <__divdf3+0x214>
    65ec:	00858793          	addi	a5,a1,8
    65f0:	00b7b5b3          	sltu	a1,a5,a1
    65f4:	942e                	add	s0,s0,a1
    65f6:	4681                	li	a3,0
    65f8:	0037d593          	srli	a1,a5,0x3
    65fc:	bc65                	j	60b4 <__divdf3+0x214>
    65fe:	f0eeefe3          	bltu	t4,a4,651c <__divdf3+0x67c>
    6602:	85b6                	mv	a1,a3
    6604:	f3d718e3          	bne	a4,t4,6534 <__divdf3+0x694>
    6608:	bc71                	j	60a4 <__divdf3+0x204>
    660a:	4605                	li	a2,1
    660c:	4701                	li	a4,0
    660e:	00f47793          	andi	a5,s0,15
    6612:	4591                	li	a1,4
    6614:	d6b78ae3          	beq	a5,a1,6388 <__divdf3+0x4e8>
    6618:	00440793          	addi	a5,s0,4
    661c:	0087b433          	sltu	s0,a5,s0
    6620:	9722                	add	a4,a4,s0
    6622:	843e                	mv	s0,a5
    6624:	b395                	j	6388 <__divdf3+0x4e8>
    6626:	55fd                	li	a1,-1
    6628:	c0100993          	li	s3,-1023
    662c:	88a2                	mv	a7,s0
    662e:	d0081ce3          	bnez	a6,6346 <__divdf3+0x4a6>
    6632:	ff85b793          	sltiu	a5,a1,-8
    6636:	0017c793          	xori	a5,a5,1
    663a:	943e                	add	s0,s0,a5
    663c:	b329                	j	6346 <__divdf3+0x4a6>
    663e:	88a2                	mv	a7,s0
    6640:	55fd                	li	a1,-1
    6642:	c0100993          	li	s3,-1023
    6646:	d00800e3          	beqz	a6,6346 <__divdf3+0x4a6>
    664a:	b7e5                	j	6632 <__divdf3+0x792>
    664c:	4605                	li	a2,1
    664e:	4701                	li	a4,0
    6650:	d2081ce3          	bnez	a6,6388 <__divdf3+0x4e8>
    6654:	00840793          	addi	a5,s0,8
    6658:	0087b433          	sltu	s0,a5,s0
    665c:	9722                	add	a4,a4,s0
    665e:	843e                	mv	s0,a5
    6660:	b325                	j	6388 <__divdf3+0x4e8>
    6662:	4605                	li	a2,1
    6664:	4701                	li	a4,0
    6666:	d20801e3          	beqz	a6,6388 <__divdf3+0x4e8>
    666a:	b7ed                	j	6654 <__divdf3+0x7b4>
    666c:	ffc5b793          	sltiu	a5,a1,-4
    6670:	0017c793          	xori	a5,a5,1
    6674:	0591                	addi	a1,a1,4
    6676:	818d                	srli	a1,a1,0x3
    6678:	943e                	add	s0,s0,a5
    667a:	bc2d                	j	60b4 <__divdf3+0x214>
    667c:	55fd                	li	a1,-1
    667e:	c0100993          	li	s3,-1023
    6682:	b70d                	j	65a4 <__divdf3+0x704>
    6684:	88a2                	mv	a7,s0
    6686:	4605                	li	a2,1
    6688:	b1e9                	j	6352 <__divdf3+0x4b2>

0000668a <__gedf2>:
    668a:	002027f3          	frrm	a5
    668e:	001007b7          	lui	a5,0x100
    6692:	0145d713          	srli	a4,a1,0x14
    6696:	17fd                	addi	a5,a5,-1
    6698:	0146d813          	srli	a6,a3,0x14
    669c:	7ff77713          	andi	a4,a4,2047
    66a0:	7ff00893          	li	a7,2047
    66a4:	00b7f333          	and	t1,a5,a1
    66a8:	8e2a                	mv	t3,a0
    66aa:	8ff5                	and	a5,a5,a3
    66ac:	81fd                	srli	a1,a1,0x1f
    66ae:	8eb2                	mv	t4,a2
    66b0:	7ff87813          	andi	a6,a6,2047
    66b4:	82fd                	srli	a3,a3,0x1f
    66b6:	03170a63          	beq	a4,a7,66ea <__gedf2+0x60>
    66ba:	03180063          	beq	a6,a7,66da <__gedf2+0x50>
    66be:	eb1d                	bnez	a4,66f4 <__gedf2+0x6a>
    66c0:	00a368b3          	or	a7,t1,a0
    66c4:	00081463          	bnez	a6,66cc <__gedf2+0x42>
    66c8:	8e5d                	or	a2,a2,a5
    66ca:	ca39                	beqz	a2,6720 <__gedf2+0x96>
    66cc:	04088763          	beqz	a7,671a <__gedf2+0x90>
    66d0:	02d58a63          	beq	a1,a3,6704 <__gedf2+0x7a>
    66d4:	4505                	li	a0,1
    66d6:	e1a1                	bnez	a1,6716 <__gedf2+0x8c>
    66d8:	8082                	ret
    66da:	00c7e8b3          	or	a7,a5,a2
    66de:	fe0880e3          	beqz	a7,66be <__gedf2+0x34>
    66e2:	00186073          	csrsi	fflags,16
    66e6:	5579                	li	a0,-2
    66e8:	8082                	ret
    66ea:	00a36533          	or	a0,t1,a0
    66ee:	f975                	bnez	a0,66e2 <__gedf2+0x58>
    66f0:	02e80c63          	beq	a6,a4,6728 <__gedf2+0x9e>
    66f4:	00081463          	bnez	a6,66fc <__gedf2+0x72>
    66f8:	8e5d                	or	a2,a2,a5
    66fa:	de69                	beqz	a2,66d4 <__gedf2+0x4a>
    66fc:	fcd59ce3          	bne	a1,a3,66d4 <__gedf2+0x4a>
    6700:	fce84ae3          	blt	a6,a4,66d4 <__gedf2+0x4a>
    6704:	01074863          	blt	a4,a6,6714 <__gedf2+0x8a>
    6708:	fc67e6e3          	bltu	a5,t1,66d4 <__gedf2+0x4a>
    670c:	02f30363          	beq	t1,a5,6732 <__gedf2+0xa8>
    6710:	00f37f63          	bgeu	t1,a5,672e <__gedf2+0xa4>
    6714:	e581                	bnez	a1,671c <__gedf2+0x92>
    6716:	557d                	li	a0,-1
    6718:	8082                	ret
    671a:	def5                	beqz	a3,6716 <__gedf2+0x8c>
    671c:	4505                	li	a0,1
    671e:	8082                	ret
    6720:	4501                	li	a0,0
    6722:	fa0899e3          	bnez	a7,66d4 <__gedf2+0x4a>
    6726:	8082                	ret
    6728:	8e5d                	or	a2,a2,a5
    672a:	da69                	beqz	a2,66fc <__gedf2+0x72>
    672c:	bf5d                	j	66e2 <__gedf2+0x58>
    672e:	4501                	li	a0,0
    6730:	8082                	ret
    6732:	fbcee1e3          	bltu	t4,t3,66d4 <__gedf2+0x4a>
    6736:	4501                	li	a0,0
    6738:	fbde70e3          	bgeu	t3,t4,66d8 <__gedf2+0x4e>
    673c:	f1e5                	bnez	a1,671c <__gedf2+0x92>
    673e:	bfe1                	j	6716 <__gedf2+0x8c>

00006740 <__ledf2>:
    6740:	002027f3          	frrm	a5
    6744:	001007b7          	lui	a5,0x100
    6748:	0145d713          	srli	a4,a1,0x14
    674c:	17fd                	addi	a5,a5,-1
    674e:	0146d813          	srli	a6,a3,0x14
    6752:	7ff77713          	andi	a4,a4,2047
    6756:	7ff00893          	li	a7,2047
    675a:	00b7f333          	and	t1,a5,a1
    675e:	8e2a                	mv	t3,a0
    6760:	8ff5                	and	a5,a5,a3
    6762:	81fd                	srli	a1,a1,0x1f
    6764:	8eb2                	mv	t4,a2
    6766:	7ff87813          	andi	a6,a6,2047
    676a:	82fd                	srli	a3,a3,0x1f
    676c:	03170f63          	beq	a4,a7,67aa <__ledf2+0x6a>
    6770:	01180d63          	beq	a6,a7,678a <__ledf2+0x4a>
    6774:	e321                	bnez	a4,67b4 <__ledf2+0x74>
    6776:	00a368b3          	or	a7,t1,a0
    677a:	02081063          	bnez	a6,679a <__ledf2+0x5a>
    677e:	8e5d                	or	a2,a2,a5
    6780:	ee09                	bnez	a2,679a <__ledf2+0x5a>
    6782:	4501                	li	a0,0
    6784:	00089f63          	bnez	a7,67a2 <__ledf2+0x62>
    6788:	8082                	ret
    678a:	00c7e8b3          	or	a7,a5,a2
    678e:	fe0883e3          	beqz	a7,6774 <__ledf2+0x34>
    6792:	00186073          	csrsi	fflags,16
    6796:	4509                	li	a0,2
    6798:	8082                	ret
    679a:	02088f63          	beqz	a7,67d8 <__ledf2+0x98>
    679e:	02d58363          	beq	a1,a3,67c4 <__ledf2+0x84>
    67a2:	4505                	li	a0,1
    67a4:	d1f5                	beqz	a1,6788 <__ledf2+0x48>
    67a6:	557d                	li	a0,-1
    67a8:	8082                	ret
    67aa:	00a36533          	or	a0,t1,a0
    67ae:	f175                	bnez	a0,6792 <__ledf2+0x52>
    67b0:	02e80763          	beq	a6,a4,67de <__ledf2+0x9e>
    67b4:	00081463          	bnez	a6,67bc <__ledf2+0x7c>
    67b8:	8e5d                	or	a2,a2,a5
    67ba:	d665                	beqz	a2,67a2 <__ledf2+0x62>
    67bc:	fed593e3          	bne	a1,a3,67a2 <__ledf2+0x62>
    67c0:	fee841e3          	blt	a6,a4,67a2 <__ledf2+0x62>
    67c4:	01074863          	blt	a4,a6,67d4 <__ledf2+0x94>
    67c8:	fc67ede3          	bltu	a5,t1,67a2 <__ledf2+0x62>
    67cc:	00f30e63          	beq	t1,a5,67e8 <__ledf2+0xa8>
    67d0:	00f37a63          	bgeu	t1,a5,67e4 <__ledf2+0xa4>
    67d4:	e199                	bnez	a1,67da <__ledf2+0x9a>
    67d6:	bfc1                	j	67a6 <__ledf2+0x66>
    67d8:	d6f9                	beqz	a3,67a6 <__ledf2+0x66>
    67da:	4505                	li	a0,1
    67dc:	8082                	ret
    67de:	8e5d                	or	a2,a2,a5
    67e0:	de71                	beqz	a2,67bc <__ledf2+0x7c>
    67e2:	bf45                	j	6792 <__ledf2+0x52>
    67e4:	4501                	li	a0,0
    67e6:	8082                	ret
    67e8:	fbceede3          	bltu	t4,t3,67a2 <__ledf2+0x62>
    67ec:	4501                	li	a0,0
    67ee:	f9de7de3          	bgeu	t3,t4,6788 <__ledf2+0x48>
    67f2:	f5e5                	bnez	a1,67da <__ledf2+0x9a>
    67f4:	bf4d                	j	67a6 <__ledf2+0x66>

000067f6 <__muldf3>:
    67f6:	7139                	addi	sp,sp,-64
    67f8:	d452                	sw	s4,40(sp)
    67fa:	de06                	sw	ra,60(sp)
    67fc:	dc22                	sw	s0,56(sp)
    67fe:	da26                	sw	s1,52(sp)
    6800:	d84a                	sw	s2,48(sp)
    6802:	d64e                	sw	s3,44(sp)
    6804:	d256                	sw	s5,36(sp)
    6806:	d05a                	sw	s6,32(sp)
    6808:	ce5e                	sw	s7,28(sp)
    680a:	cc62                	sw	s8,24(sp)
    680c:	ca66                	sw	s9,20(sp)
    680e:	8a2a                	mv	s4,a0
    6810:	00202b73          	frrm	s6
    6814:	0145d913          	srli	s2,a1,0x14
    6818:	00c59993          	slli	s3,a1,0xc
    681c:	7ff97913          	andi	s2,s2,2047
    6820:	00c9d993          	srli	s3,s3,0xc
    6824:	01f5db93          	srli	s7,a1,0x1f
    6828:	12090e63          	beqz	s2,6964 <__muldf3+0x16e>
    682c:	7ff00793          	li	a5,2047
    6830:	16f90d63          	beq	s2,a5,69aa <__muldf3+0x1b4>
    6834:	01d55413          	srli	s0,a0,0x1d
    6838:	098e                	slli	s3,s3,0x3
    683a:	013469b3          	or	s3,s0,s3
    683e:	00800437          	lui	s0,0x800
    6842:	0089e433          	or	s0,s3,s0
    6846:	00351493          	slli	s1,a0,0x3
    684a:	c0190913          	addi	s2,s2,-1023
    684e:	4a01                	li	s4,0
    6850:	4c81                	li	s9,0
    6852:	4a81                	li	s5,0
    6854:	0146d793          	srli	a5,a3,0x14
    6858:	00c69993          	slli	s3,a3,0xc
    685c:	7ff7f793          	andi	a5,a5,2047
    6860:	85b2                	mv	a1,a2
    6862:	00c9d993          	srli	s3,s3,0xc
    6866:	01f6dc13          	srli	s8,a3,0x1f
    686a:	cfd5                	beqz	a5,6926 <__muldf3+0x130>
    686c:	7ff00713          	li	a4,2047
    6870:	04e78463          	beq	a5,a4,68b8 <__muldf3+0xc2>
    6874:	00399513          	slli	a0,s3,0x3
    6878:	01d65993          	srli	s3,a2,0x1d
    687c:	00a9e9b3          	or	s3,s3,a0
    6880:	c0178793          	addi	a5,a5,-1023 # ffc01 <__rt_init_end+0xf60a5>
    6884:	00800537          	lui	a0,0x800
    6888:	00a9e9b3          	or	s3,s3,a0
    688c:	00361593          	slli	a1,a2,0x3
    6890:	993e                	add	s2,s2,a5
    6892:	4801                	li	a6,0
    6894:	018bc633          	xor	a2,s7,s8
    6898:	47bd                	li	a5,15
    689a:	86b2                	mv	a3,a2
    689c:	00190713          	addi	a4,s2,1
    68a0:	1747ef63          	bltu	a5,s4,6a1e <__muldf3+0x228>
    68a4:	00003517          	auipc	a0,0x3
    68a8:	00c50513          	addi	a0,a0,12 # 98b0 <init_jk+0x7c>
    68ac:	0a0a                	slli	s4,s4,0x2
    68ae:	9a2a                	add	s4,s4,a0
    68b0:	000a2783          	lw	a5,0(s4)
    68b4:	97aa                	add	a5,a5,a0
    68b6:	8782                	jr	a5
    68b8:	00c9e633          	or	a2,s3,a2
    68bc:	7ff90913          	addi	s2,s2,2047
    68c0:	12060863          	beqz	a2,69f0 <__muldf3+0x1fa>
    68c4:	00c99793          	slli	a5,s3,0xc
    68c8:	003a6a13          	ori	s4,s4,3
    68cc:	480d                	li	a6,3
    68ce:	fc07c3e3          	bltz	a5,6894 <__muldf3+0x9e>
    68d2:	4ac1                	li	s5,16
    68d4:	b7c1                	j	6894 <__muldf3+0x9e>
    68d6:	86e2                	mv	a3,s8
    68d8:	844e                	mv	s0,s3
    68da:	84ae                	mv	s1,a1
    68dc:	8cc2                	mv	s9,a6
    68de:	4789                	li	a5,2
    68e0:	12fc8963          	beq	s9,a5,6a12 <__muldf3+0x21c>
    68e4:	478d                	li	a5,3
    68e6:	10fc8b63          	beq	s9,a5,69fc <__muldf3+0x206>
    68ea:	4785                	li	a5,1
    68ec:	8636                	mv	a2,a3
    68ee:	4cfc9263          	bne	s9,a5,6db2 <__muldf3+0x5bc>
    68f2:	4701                	li	a4,0
    68f4:	4781                	li	a5,0
    68f6:	4401                	li	s0,0
    68f8:	07b2                	slli	a5,a5,0xc
    68fa:	0752                	slli	a4,a4,0x14
    68fc:	83b1                	srli	a5,a5,0xc
    68fe:	067e                	slli	a2,a2,0x1f
    6900:	8fd9                	or	a5,a5,a4
    6902:	8fd1                	or	a5,a5,a2
    6904:	8522                	mv	a0,s0
    6906:	85be                	mv	a1,a5
    6908:	340a9963          	bnez	s5,6c5a <__muldf3+0x464>
    690c:	50f2                	lw	ra,60(sp)
    690e:	5462                	lw	s0,56(sp)
    6910:	54d2                	lw	s1,52(sp)
    6912:	5942                	lw	s2,48(sp)
    6914:	59b2                	lw	s3,44(sp)
    6916:	5a22                	lw	s4,40(sp)
    6918:	5a92                	lw	s5,36(sp)
    691a:	5b02                	lw	s6,32(sp)
    691c:	4bf2                	lw	s7,28(sp)
    691e:	4c62                	lw	s8,24(sp)
    6920:	4cd2                	lw	s9,20(sp)
    6922:	6121                	addi	sp,sp,64
    6924:	8082                	ret
    6926:	00c9e7b3          	or	a5,s3,a2
    692a:	cfcd                	beqz	a5,69e4 <__muldf3+0x1ee>
    692c:	34098a63          	beqz	s3,6c80 <__muldf3+0x48a>
    6930:	854e                	mv	a0,s3
    6932:	c432                	sw	a2,8(sp)
    6934:	3aa010ef          	jal	ra,7cde <__clzsi2>
    6938:	4622                	lw	a2,8(sp)
    693a:	87aa                	mv	a5,a0
    693c:	ff550693          	addi	a3,a0,-11
    6940:	4775                	li	a4,29
    6942:	ff878593          	addi	a1,a5,-8
    6946:	8f15                	sub	a4,a4,a3
    6948:	00b999b3          	sll	s3,s3,a1
    694c:	00e65733          	srl	a4,a2,a4
    6950:	013769b3          	or	s3,a4,s3
    6954:	00b615b3          	sll	a1,a2,a1
    6958:	40f90933          	sub	s2,s2,a5
    695c:	c0d90913          	addi	s2,s2,-1011
    6960:	4801                	li	a6,0
    6962:	bf0d                	j	6894 <__muldf3+0x9e>
    6964:	00a9e433          	or	s0,s3,a0
    6968:	c825                	beqz	s0,69d8 <__muldf3+0x1e2>
    696a:	c636                	sw	a3,12(sp)
    696c:	c432                	sw	a2,8(sp)
    696e:	2e098963          	beqz	s3,6c60 <__muldf3+0x46a>
    6972:	854e                	mv	a0,s3
    6974:	36a010ef          	jal	ra,7cde <__clzsi2>
    6978:	4622                	lw	a2,8(sp)
    697a:	46b2                	lw	a3,12(sp)
    697c:	87aa                	mv	a5,a0
    697e:	ff550713          	addi	a4,a0,-11
    6982:	4475                	li	s0,29
    6984:	ff878493          	addi	s1,a5,-8
    6988:	8c19                	sub	s0,s0,a4
    698a:	009999b3          	sll	s3,s3,s1
    698e:	008a5433          	srl	s0,s4,s0
    6992:	01346433          	or	s0,s0,s3
    6996:	009a14b3          	sll	s1,s4,s1
    699a:	c0d00913          	li	s2,-1011
    699e:	40f90933          	sub	s2,s2,a5
    69a2:	4a01                	li	s4,0
    69a4:	4c81                	li	s9,0
    69a6:	4a81                	li	s5,0
    69a8:	b575                	j	6854 <__muldf3+0x5e>
    69aa:	00a9e433          	or	s0,s3,a0
    69ae:	cc11                	beqz	s0,69ca <__muldf3+0x1d4>
    69b0:	00c99793          	slli	a5,s3,0xc
    69b4:	84aa                	mv	s1,a0
    69b6:	844e                	mv	s0,s3
    69b8:	4a31                	li	s4,12
    69ba:	7ff00913          	li	s2,2047
    69be:	4c8d                	li	s9,3
    69c0:	4ac1                	li	s5,16
    69c2:	e807d9e3          	bgez	a5,6854 <__muldf3+0x5e>
    69c6:	4a81                	li	s5,0
    69c8:	b571                	j	6854 <__muldf3+0x5e>
    69ca:	4a21                	li	s4,8
    69cc:	4481                	li	s1,0
    69ce:	7ff00913          	li	s2,2047
    69d2:	4c89                	li	s9,2
    69d4:	4a81                	li	s5,0
    69d6:	bdbd                	j	6854 <__muldf3+0x5e>
    69d8:	4a11                	li	s4,4
    69da:	4481                	li	s1,0
    69dc:	4901                	li	s2,0
    69de:	4c85                	li	s9,1
    69e0:	4a81                	li	s5,0
    69e2:	bd8d                	j	6854 <__muldf3+0x5e>
    69e4:	001a6a13          	ori	s4,s4,1
    69e8:	4981                	li	s3,0
    69ea:	4581                	li	a1,0
    69ec:	4805                	li	a6,1
    69ee:	b55d                	j	6894 <__muldf3+0x9e>
    69f0:	002a6a13          	ori	s4,s4,2
    69f4:	4981                	li	s3,0
    69f6:	4581                	li	a1,0
    69f8:	4809                	li	a6,2
    69fa:	bd69                	j	6894 <__muldf3+0x9e>
    69fc:	4601                	li	a2,0
    69fe:	7ff00713          	li	a4,2047
    6a02:	000807b7          	lui	a5,0x80
    6a06:	4401                	li	s0,0
    6a08:	bdc5                	j	68f8 <__muldf3+0x102>
    6a0a:	4789                	li	a5,2
    6a0c:	86de                	mv	a3,s7
    6a0e:	ecfc9be3          	bne	s9,a5,68e4 <__muldf3+0xee>
    6a12:	8636                	mv	a2,a3
    6a14:	7ff00713          	li	a4,2047
    6a18:	4781                	li	a5,0
    6a1a:	4401                	li	s0,0
    6a1c:	bdf1                	j	68f8 <__muldf3+0x102>
    6a1e:	6341                	lui	t1,0x10
    6a20:	fff30793          	addi	a5,t1,-1 # ffff <__rt_init_end+0x64a3>
    6a24:	0104d513          	srli	a0,s1,0x10
    6a28:	0105de13          	srli	t3,a1,0x10
    6a2c:	8cfd                	and	s1,s1,a5
    6a2e:	8dfd                	and	a1,a1,a5
    6a30:	029587b3          	mul	a5,a1,s1
    6a34:	02b508b3          	mul	a7,a0,a1
    6a38:	0107d393          	srli	t2,a5,0x10
    6a3c:	029e0833          	mul	a6,t3,s1
    6a40:	9846                	add	a6,a6,a7
    6a42:	93c2                	add	t2,t2,a6
    6a44:	03c50833          	mul	a6,a0,t3
    6a48:	0113f363          	bgeu	t2,a7,6a4e <__muldf3+0x258>
    6a4c:	981a                	add	a6,a6,t1
    6a4e:	6341                	lui	t1,0x10
    6a50:	fff30e93          	addi	t4,t1,-1 # ffff <__rt_init_end+0x64a3>
    6a54:	0109d293          	srli	t0,s3,0x10
    6a58:	01d9f9b3          	and	s3,s3,t4
    6a5c:	01d3f8b3          	and	a7,t2,t4
    6a60:	01d7f7b3          	and	a5,a5,t4
    6a64:	08c2                	slli	a7,a7,0x10
    6a66:	03348eb3          	mul	t4,s1,s3
    6a6a:	98be                	add	a7,a7,a5
    6a6c:	0103d393          	srli	t2,t2,0x10
    6a70:	03350fb3          	mul	t6,a0,s3
    6a74:	010edf13          	srli	t5,t4,0x10
    6a78:	029284b3          	mul	s1,t0,s1
    6a7c:	94fe                	add	s1,s1,t6
    6a7e:	94fa                	add	s1,s1,t5
    6a80:	025507b3          	mul	a5,a0,t0
    6a84:	01f4f363          	bgeu	s1,t6,6a8a <__muldf3+0x294>
    6a88:	979a                	add	a5,a5,t1
    6a8a:	6341                	lui	t1,0x10
    6a8c:	fff30b93          	addi	s7,t1,-1 # ffff <__rt_init_end+0x64a3>
    6a90:	01045a13          	srli	s4,s0,0x10
    6a94:	01747533          	and	a0,s0,s7
    6a98:	0174ffb3          	and	t6,s1,s7
    6a9c:	80c1                	srli	s1,s1,0x10
    6a9e:	00f48f33          	add	t5,s1,a5
    6aa2:	02a58433          	mul	s0,a1,a0
    6aa6:	017efeb3          	and	t4,t4,s7
    6aaa:	0fc2                	slli	t6,t6,0x10
    6aac:	9ff6                	add	t6,t6,t4
    6aae:	93fe                	add	t2,t2,t6
    6ab0:	02ae07b3          	mul	a5,t3,a0
    6ab4:	01045e93          	srli	t4,s0,0x10
    6ab8:	02ba05b3          	mul	a1,s4,a1
    6abc:	97ae                	add	a5,a5,a1
    6abe:	9ebe                	add	t4,t4,a5
    6ac0:	034e0e33          	mul	t3,t3,s4
    6ac4:	00bef363          	bgeu	t4,a1,6aca <__muldf3+0x2d4>
    6ac8:	9e1a                	add	t3,t3,t1
    6aca:	67c1                	lui	a5,0x10
    6acc:	fff78593          	addi	a1,a5,-1 # ffff <__rt_init_end+0x64a3>
    6ad0:	00bef333          	and	t1,t4,a1
    6ad4:	8c6d                	and	s0,s0,a1
    6ad6:	0342                	slli	t1,t1,0x10
    6ad8:	9322                	add	t1,t1,s0
    6ada:	010ede93          	srli	t4,t4,0x10
    6ade:	033505b3          	mul	a1,a0,s3
    6ae2:	9e76                	add	t3,t3,t4
    6ae4:	02a28533          	mul	a0,t0,a0
    6ae8:	0105d413          	srli	s0,a1,0x10
    6aec:	033a09b3          	mul	s3,s4,s3
    6af0:	954e                	add	a0,a0,s3
    6af2:	9522                	add	a0,a0,s0
    6af4:	034282b3          	mul	t0,t0,s4
    6af8:	01357363          	bgeu	a0,s3,6afe <__muldf3+0x308>
    6afc:	92be                	add	t0,t0,a5
    6afe:	6ec1                	lui	t4,0x10
    6b00:	1efd                	addi	t4,t4,-1
    6b02:	01d577b3          	and	a5,a0,t4
    6b06:	07c2                	slli	a5,a5,0x10
    6b08:	01d5feb3          	and	t4,a1,t4
    6b0c:	97f6                	add	a5,a5,t4
    6b0e:	007805b3          	add	a1,a6,t2
    6b12:	01f5bfb3          	sltu	t6,a1,t6
    6b16:	97fa                	add	a5,a5,t5
    6b18:	959a                	add	a1,a1,t1
    6b1a:	01f78433          	add	s0,a5,t6
    6b1e:	0065b833          	sltu	a6,a1,t1
    6b22:	01c40eb3          	add	t4,s0,t3
    6b26:	010e8333          	add	t1,t4,a6
    6b2a:	01f43433          	sltu	s0,s0,t6
    6b2e:	01e7b7b3          	sltu	a5,a5,t5
    6b32:	8fc1                	or	a5,a5,s0
    6b34:	01033833          	sltu	a6,t1,a6
    6b38:	01055413          	srli	s0,a0,0x10
    6b3c:	01cebe33          	sltu	t3,t4,t3
    6b40:	943e                	add	s0,s0,a5
    6b42:	010e6833          	or	a6,t3,a6
    6b46:	9442                	add	s0,s0,a6
    6b48:	00959493          	slli	s1,a1,0x9
    6b4c:	9416                	add	s0,s0,t0
    6b4e:	01735513          	srli	a0,t1,0x17
    6b52:	0114e4b3          	or	s1,s1,a7
    6b56:	0426                	slli	s0,s0,0x9
    6b58:	009034b3          	snez	s1,s1
    6b5c:	81dd                	srli	a1,a1,0x17
    6b5e:	8c49                	or	s0,s0,a0
    6b60:	8ccd                	or	s1,s1,a1
    6b62:	0326                	slli	t1,t1,0x9
    6b64:	00741793          	slli	a5,s0,0x7
    6b68:	0064e4b3          	or	s1,s1,t1
    6b6c:	0007db63          	bgez	a5,6b82 <__muldf3+0x38c>
    6b70:	0014d793          	srli	a5,s1,0x1
    6b74:	8885                	andi	s1,s1,1
    6b76:	01f41593          	slli	a1,s0,0x1f
    6b7a:	8cdd                	or	s1,s1,a5
    6b7c:	8ccd                	or	s1,s1,a1
    6b7e:	8005                	srli	s0,s0,0x1
    6b80:	893a                	mv	s2,a4
    6b82:	3ff90713          	addi	a4,s2,1023
    6b86:	04e05963          	blez	a4,6bd8 <__muldf3+0x3e2>
    6b8a:	0074f793          	andi	a5,s1,7
    6b8e:	cb99                	beqz	a5,6ba4 <__muldf3+0x3ae>
    6b90:	4789                	li	a5,2
    6b92:	001aea93          	ori	s5,s5,1
    6b96:	20fb0b63          	beq	s6,a5,6dac <__muldf3+0x5b6>
    6b9a:	478d                	li	a5,3
    6b9c:	1efb0d63          	beq	s6,a5,6d96 <__muldf3+0x5a0>
    6ba0:	1c0b0f63          	beqz	s6,6d7e <__muldf3+0x588>
    6ba4:	00741793          	slli	a5,s0,0x7
    6ba8:	0007d863          	bgez	a5,6bb8 <__muldf3+0x3c2>
    6bac:	ff0007b7          	lui	a5,0xff000
    6bb0:	17fd                	addi	a5,a5,-1
    6bb2:	8c7d                	and	s0,s0,a5
    6bb4:	40090713          	addi	a4,s2,1024
    6bb8:	7fe00793          	li	a5,2046
    6bbc:	10e7c963          	blt	a5,a4,6cce <__muldf3+0x4d8>
    6bc0:	0034d693          	srli	a3,s1,0x3
    6bc4:	00941793          	slli	a5,s0,0x9
    6bc8:	01d41493          	slli	s1,s0,0x1d
    6bcc:	00d4e433          	or	s0,s1,a3
    6bd0:	83b1                	srli	a5,a5,0xc
    6bd2:	7ff77713          	andi	a4,a4,2047
    6bd6:	b30d                	j	68f8 <__muldf3+0x102>
    6bd8:	4785                	li	a5,1
    6bda:	8f99                	sub	a5,a5,a4
    6bdc:	e379                	bnez	a4,6ca2 <__muldf3+0x4ac>
    6bde:	0074f593          	andi	a1,s1,7
    6be2:	8722                	mv	a4,s0
    6be4:	cd81                	beqz	a1,6bfc <__muldf3+0x406>
    6be6:	4709                	li	a4,2
    6be8:	001aea93          	ori	s5,s5,1
    6bec:	20eb0963          	beq	s6,a4,6dfe <__muldf3+0x608>
    6bf0:	470d                	li	a4,3
    6bf2:	1eeb0d63          	beq	s6,a4,6dec <__muldf3+0x5f6>
    6bf6:	8722                	mv	a4,s0
    6bf8:	1c0b0f63          	beqz	s6,6dd6 <__muldf3+0x5e0>
    6bfc:	8361                	srli	a4,a4,0x18
    6bfe:	00174713          	xori	a4,a4,1
    6c02:	00177593          	andi	a1,a4,1
    6c06:	41e90913          	addi	s2,s2,1054
    6c0a:	01249733          	sll	a4,s1,s2
    6c0e:	01241933          	sll	s2,s0,s2
    6c12:	00f4d4b3          	srl	s1,s1,a5
    6c16:	00e03733          	snez	a4,a4
    6c1a:	009964b3          	or	s1,s2,s1
    6c1e:	8cd9                	or	s1,s1,a4
    6c20:	0074f513          	andi	a0,s1,7
    6c24:	00f45733          	srl	a4,s0,a5
    6c28:	c919                	beqz	a0,6c3e <__muldf3+0x448>
    6c2a:	4789                	li	a5,2
    6c2c:	001aea93          	ori	s5,s5,1
    6c30:	1efb0863          	beq	s6,a5,6e20 <__muldf3+0x62a>
    6c34:	478d                	li	a5,3
    6c36:	1cfb0a63          	beq	s6,a5,6e0a <__muldf3+0x614>
    6c3a:	1e0b0863          	beqz	s6,6e2a <__muldf3+0x634>
    6c3e:	00871793          	slli	a5,a4,0x8
    6c42:	1807d063          	bgez	a5,6dc2 <__muldf3+0x5cc>
    6c46:	001aea93          	ori	s5,s5,1
    6c4a:	16059663          	bnez	a1,6db6 <__muldf3+0x5c0>
    6c4e:	067e                	slli	a2,a2,0x1f
    6c50:	001007b7          	lui	a5,0x100
    6c54:	8fd1                	or	a5,a5,a2
    6c56:	4501                	li	a0,0
    6c58:	85be                	mv	a1,a5
    6c5a:	001aa073          	csrs	fflags,s5
    6c5e:	b17d                	j	690c <__muldf3+0x116>
    6c60:	07e010ef          	jal	ra,7cde <__clzsi2>
    6c64:	01550713          	addi	a4,a0,21
    6c68:	45f1                	li	a1,28
    6c6a:	02050793          	addi	a5,a0,32
    6c6e:	4622                	lw	a2,8(sp)
    6c70:	46b2                	lw	a3,12(sp)
    6c72:	d0e5d8e3          	bge	a1,a4,6982 <__muldf3+0x18c>
    6c76:	1561                	addi	a0,a0,-8
    6c78:	00aa1433          	sll	s0,s4,a0
    6c7c:	4481                	li	s1,0
    6c7e:	bb31                	j	699a <__muldf3+0x1a4>
    6c80:	8532                	mv	a0,a2
    6c82:	c432                	sw	a2,8(sp)
    6c84:	05a010ef          	jal	ra,7cde <__clzsi2>
    6c88:	01550693          	addi	a3,a0,21
    6c8c:	4771                	li	a4,28
    6c8e:	02050793          	addi	a5,a0,32
    6c92:	4622                	lw	a2,8(sp)
    6c94:	cad756e3          	bge	a4,a3,6940 <__muldf3+0x14a>
    6c98:	1561                	addi	a0,a0,-8
    6c9a:	4581                	li	a1,0
    6c9c:	00a619b3          	sll	s3,a2,a0
    6ca0:	b965                	j	6958 <__muldf3+0x162>
    6ca2:	03800593          	li	a1,56
    6ca6:	06f5d963          	bge	a1,a5,6d18 <__muldf3+0x522>
    6caa:	8c45                	or	s0,s0,s1
    6cac:	cc01                	beqz	s0,6cc4 <__muldf3+0x4ce>
    6cae:	4789                	li	a5,2
    6cb0:	001aea93          	ori	s5,s5,1
    6cb4:	00d03433          	snez	s0,a3
    6cb8:	00fb0663          	beq	s6,a5,6cc4 <__muldf3+0x4ce>
    6cbc:	478d                	li	a5,3
    6cbe:	4401                	li	s0,0
    6cc0:	18fb0163          	beq	s6,a5,6e42 <__muldf3+0x64c>
    6cc4:	002aea93          	ori	s5,s5,2
    6cc8:	4681                	li	a3,0
    6cca:	4781                	li	a5,0
    6ccc:	a015                	j	6cf0 <__muldf3+0x4fa>
    6cce:	4789                	li	a5,2
    6cd0:	0cfb0c63          	beq	s6,a5,6da8 <__muldf3+0x5b2>
    6cd4:	478d                	li	a5,3
    6cd6:	08fb0e63          	beq	s6,a5,6d72 <__muldf3+0x57c>
    6cda:	080b0d63          	beqz	s6,6d74 <__muldf3+0x57e>
    6cde:	00100437          	lui	s0,0x100
    6ce2:	fff40793          	addi	a5,s0,-1 # fffff <__rt_init_end+0xf64a3>
    6ce6:	7fe00693          	li	a3,2046
    6cea:	547d                	li	s0,-1
    6cec:	005aea93          	ori	s5,s5,5
    6cf0:	00c79713          	slli	a4,a5,0xc
    6cf4:	8331                	srli	a4,a4,0xc
    6cf6:	01469793          	slli	a5,a3,0x14
    6cfa:	067e                	slli	a2,a2,0x1f
    6cfc:	8fd9                	or	a5,a5,a4
    6cfe:	8fd1                	or	a5,a5,a2
    6d00:	8522                	mv	a0,s0
    6d02:	85be                	mv	a1,a5
    6d04:	001aa073          	csrs	fflags,s5
    6d08:	b111                	j	690c <__muldf3+0x116>
    6d0a:	4501                	li	a0,0
    6d0c:	7ff805b7          	lui	a1,0x7ff80
    6d10:	4ac1                	li	s5,16
    6d12:	001aa073          	csrs	fflags,s5
    6d16:	bedd                	j	690c <__muldf3+0x116>
    6d18:	45fd                	li	a1,31
    6d1a:	12f5d763          	bge	a1,a5,6e48 <__muldf3+0x652>
    6d1e:	5585                	li	a1,-31
    6d20:	40e58733          	sub	a4,a1,a4
    6d24:	02000593          	li	a1,32
    6d28:	00e45733          	srl	a4,s0,a4
    6d2c:	00b78763          	beq	a5,a1,6d3a <__muldf3+0x544>
    6d30:	43e90913          	addi	s2,s2,1086
    6d34:	01241433          	sll	s0,s0,s2
    6d38:	8cc1                	or	s1,s1,s0
    6d3a:	009034b3          	snez	s1,s1
    6d3e:	8cd9                	or	s1,s1,a4
    6d40:	0074f793          	andi	a5,s1,7
    6d44:	cb99                	beqz	a5,6d5a <__muldf3+0x564>
    6d46:	4789                	li	a5,2
    6d48:	001aea93          	ori	s5,s5,1
    6d4c:	0cfb0863          	beq	s6,a5,6e1c <__muldf3+0x626>
    6d50:	478d                	li	a5,3
    6d52:	0afb0a63          	beq	s6,a5,6e06 <__muldf3+0x610>
    6d56:	0c0b0863          	beqz	s6,6e26 <__muldf3+0x630>
    6d5a:	0034d413          	srli	s0,s1,0x3
    6d5e:	4781                	li	a5,0
    6d60:	001af693          	andi	a3,s5,1
    6d64:	4701                	li	a4,0
    6d66:	b80689e3          	beqz	a3,68f8 <__muldf3+0x102>
    6d6a:	4681                	li	a3,0
    6d6c:	002aea93          	ori	s5,s5,2
    6d70:	b741                	j	6cf0 <__muldf3+0x4fa>
    6d72:	f6b5                	bnez	a3,6cde <__muldf3+0x4e8>
    6d74:	7ff00693          	li	a3,2047
    6d78:	4781                	li	a5,0
    6d7a:	4401                	li	s0,0
    6d7c:	bf85                	j	6cec <__muldf3+0x4f6>
    6d7e:	00f4f793          	andi	a5,s1,15
    6d82:	4591                	li	a1,4
    6d84:	e2b780e3          	beq	a5,a1,6ba4 <__muldf3+0x3ae>
    6d88:	00448793          	addi	a5,s1,4
    6d8c:	0097b4b3          	sltu	s1,a5,s1
    6d90:	9426                	add	s0,s0,s1
    6d92:	84be                	mv	s1,a5
    6d94:	bd01                	j	6ba4 <__muldf3+0x3ae>
    6d96:	e00697e3          	bnez	a3,6ba4 <__muldf3+0x3ae>
    6d9a:	00848793          	addi	a5,s1,8
    6d9e:	0097b4b3          	sltu	s1,a5,s1
    6da2:	9426                	add	s0,s0,s1
    6da4:	84be                	mv	s1,a5
    6da6:	bbfd                	j	6ba4 <__muldf3+0x3ae>
    6da8:	da9d                	beqz	a3,6cde <__muldf3+0x4e8>
    6daa:	b7e9                	j	6d74 <__muldf3+0x57e>
    6dac:	de068ce3          	beqz	a3,6ba4 <__muldf3+0x3ae>
    6db0:	b7ed                	j	6d9a <__muldf3+0x5a4>
    6db2:	893a                	mv	s2,a4
    6db4:	b3f9                	j	6b82 <__muldf3+0x38c>
    6db6:	4685                	li	a3,1
    6db8:	4781                	li	a5,0
    6dba:	4401                	li	s0,0
    6dbc:	002aea93          	ori	s5,s5,2
    6dc0:	bf05                	j	6cf0 <__muldf3+0x4fa>
    6dc2:	00971793          	slli	a5,a4,0x9
    6dc6:	0034d413          	srli	s0,s1,0x3
    6dca:	0776                	slli	a4,a4,0x1d
    6dcc:	83b1                	srli	a5,a5,0xc
    6dce:	8c59                	or	s0,s0,a4
    6dd0:	f9c1                	bnez	a1,6d60 <__muldf3+0x56a>
    6dd2:	4701                	li	a4,0
    6dd4:	b615                	j	68f8 <__muldf3+0x102>
    6dd6:	00f4f593          	andi	a1,s1,15
    6dda:	4511                	li	a0,4
    6ddc:	e2a580e3          	beq	a1,a0,6bfc <__muldf3+0x406>
    6de0:	ffc4b713          	sltiu	a4,s1,-4
    6de4:	00174713          	xori	a4,a4,1
    6de8:	9722                	add	a4,a4,s0
    6dea:	bd09                	j	6bfc <__muldf3+0x406>
    6dec:	8722                	mv	a4,s0
    6dee:	e00697e3          	bnez	a3,6bfc <__muldf3+0x406>
    6df2:	ff84b713          	sltiu	a4,s1,-8
    6df6:	00174713          	xori	a4,a4,1
    6dfa:	9722                	add	a4,a4,s0
    6dfc:	b501                	j	6bfc <__muldf3+0x406>
    6dfe:	8722                	mv	a4,s0
    6e00:	de068ee3          	beqz	a3,6bfc <__muldf3+0x406>
    6e04:	b7fd                	j	6df2 <__muldf3+0x5fc>
    6e06:	4585                	li	a1,1
    6e08:	4701                	li	a4,0
    6e0a:	e2069ae3          	bnez	a3,6c3e <__muldf3+0x448>
    6e0e:	00848793          	addi	a5,s1,8
    6e12:	0097b4b3          	sltu	s1,a5,s1
    6e16:	9726                	add	a4,a4,s1
    6e18:	84be                	mv	s1,a5
    6e1a:	b515                	j	6c3e <__muldf3+0x448>
    6e1c:	4585                	li	a1,1
    6e1e:	4701                	li	a4,0
    6e20:	e0068fe3          	beqz	a3,6c3e <__muldf3+0x448>
    6e24:	b7ed                	j	6e0e <__muldf3+0x618>
    6e26:	4585                	li	a1,1
    6e28:	4701                	li	a4,0
    6e2a:	00f4f793          	andi	a5,s1,15
    6e2e:	4691                	li	a3,4
    6e30:	e0d787e3          	beq	a5,a3,6c3e <__muldf3+0x448>
    6e34:	00448793          	addi	a5,s1,4
    6e38:	0097b4b3          	sltu	s1,a5,s1
    6e3c:	9726                	add	a4,a4,s1
    6e3e:	84be                	mv	s1,a5
    6e40:	bbfd                	j	6c3e <__muldf3+0x448>
    6e42:	0016b413          	seqz	s0,a3
    6e46:	bdbd                	j	6cc4 <__muldf3+0x4ce>
    6e48:	4585                	li	a1,1
    6e4a:	bb75                	j	6c06 <__muldf3+0x410>

00006e4c <__subdf3>:
    6e4c:	1101                	addi	sp,sp,-32
    6e4e:	ce06                	sw	ra,28(sp)
    6e50:	cc22                	sw	s0,24(sp)
    6e52:	ca26                	sw	s1,20(sp)
    6e54:	c84a                	sw	s2,16(sp)
    6e56:	c64e                	sw	s3,12(sp)
    6e58:	c452                	sw	s4,8(sp)
    6e5a:	002029f3          	frrm	s3
    6e5e:	00100837          	lui	a6,0x100
    6e62:	187d                	addi	a6,a6,-1
    6e64:	00b87733          	and	a4,a6,a1
    6e68:	0146d893          	srli	a7,a3,0x14
    6e6c:	00d87833          	and	a6,a6,a3
    6e70:	0145d413          	srli	s0,a1,0x14
    6e74:	00371e13          	slli	t3,a4,0x3
    6e78:	01d55793          	srli	a5,a0,0x1d
    6e7c:	080e                	slli	a6,a6,0x3
    6e7e:	01d65313          	srli	t1,a2,0x1d
    6e82:	7ff8f893          	andi	a7,a7,2047
    6e86:	7ff00e93          	li	t4,2047
    6e8a:	01f5d493          	srli	s1,a1,0x1f
    6e8e:	01c7e733          	or	a4,a5,t3
    6e92:	7ff47413          	andi	s0,s0,2047
    6e96:	00351e13          	slli	t3,a0,0x3
    6e9a:	82fd                	srli	a3,a3,0x1f
    6e9c:	01036833          	or	a6,t1,a6
    6ea0:	00361593          	slli	a1,a2,0x3
    6ea4:	1dd88263          	beq	a7,t4,7068 <__subdf3+0x21c>
    6ea8:	0016c693          	xori	a3,a3,1
    6eac:	41140333          	sub	t1,s0,a7
    6eb0:	16d48763          	beq	s1,a3,701e <__subdf3+0x1d2>
    6eb4:	1c605363          	blez	t1,707a <__subdf3+0x22e>
    6eb8:	22088463          	beqz	a7,70e0 <__subdf3+0x294>
    6ebc:	008007b7          	lui	a5,0x800
    6ec0:	00f86833          	or	a6,a6,a5
    6ec4:	6dd40263          	beq	s0,t4,7588 <__subdf3+0x73c>
    6ec8:	03800793          	li	a5,56
    6ecc:	3a67cd63          	blt	a5,t1,7286 <__subdf3+0x43a>
    6ed0:	47fd                	li	a5,31
    6ed2:	5267c263          	blt	a5,t1,73f6 <__subdf3+0x5aa>
    6ed6:	02000793          	li	a5,32
    6eda:	406787b3          	sub	a5,a5,t1
    6ede:	0065d933          	srl	s2,a1,t1
    6ee2:	00f81633          	sll	a2,a6,a5
    6ee6:	00f595b3          	sll	a1,a1,a5
    6eea:	01266633          	or	a2,a2,s2
    6eee:	00685333          	srl	t1,a6,t1
    6ef2:	00b03933          	snez	s2,a1
    6ef6:	01266633          	or	a2,a2,s2
    6efa:	40670733          	sub	a4,a4,t1
    6efe:	40ce0933          	sub	s2,t3,a2
    6f02:	012e3633          	sltu	a2,t3,s2
    6f06:	8f11                	sub	a4,a4,a2
    6f08:	00871793          	slli	a5,a4,0x8
    6f0c:	2a07da63          	bgez	a5,71c0 <__subdf3+0x374>
    6f10:	00971a13          	slli	s4,a4,0x9
    6f14:	009a5a13          	srli	s4,s4,0x9
    6f18:	340a0b63          	beqz	s4,726e <__subdf3+0x422>
    6f1c:	8552                	mv	a0,s4
    6f1e:	5c1000ef          	jal	ra,7cde <__clzsi2>
    6f22:	1561                	addi	a0,a0,-8
    6f24:	02000793          	li	a5,32
    6f28:	8f89                	sub	a5,a5,a0
    6f2a:	00aa1733          	sll	a4,s4,a0
    6f2e:	00f957b3          	srl	a5,s2,a5
    6f32:	8fd9                	or	a5,a5,a4
    6f34:	00a91a33          	sll	s4,s2,a0
    6f38:	32854063          	blt	a0,s0,7258 <__subdf3+0x40c>
    6f3c:	8d01                	sub	a0,a0,s0
    6f3e:	00150713          	addi	a4,a0,1
    6f42:	46fd                	li	a3,31
    6f44:	44e6c063          	blt	a3,a4,7384 <__subdf3+0x538>
    6f48:	02000693          	li	a3,32
    6f4c:	8e99                	sub	a3,a3,a4
    6f4e:	00ea5933          	srl	s2,s4,a4
    6f52:	00d79633          	sll	a2,a5,a3
    6f56:	00da16b3          	sll	a3,s4,a3
    6f5a:	01266633          	or	a2,a2,s2
    6f5e:	00d036b3          	snez	a3,a3
    6f62:	00d66933          	or	s2,a2,a3
    6f66:	00e7d733          	srl	a4,a5,a4
    6f6a:	00e967b3          	or	a5,s2,a4
    6f6e:	16078063          	beqz	a5,70ce <__subdf3+0x282>
    6f72:	00797793          	andi	a5,s2,7
    6f76:	00191593          	slli	a1,s2,0x1
    6f7a:	00171613          	slli	a2,a4,0x1
    6f7e:	01f95693          	srli	a3,s2,0x1f
    6f82:	0075f513          	andi	a0,a1,7
    6f86:	96b2                	add	a3,a3,a2
    6f88:	4301                	li	t1,0
    6f8a:	c911                	beqz	a0,6f9e <__subdf3+0x152>
    6f8c:	4609                	li	a2,2
    6f8e:	66c98163          	beq	s3,a2,75f0 <__subdf3+0x7a4>
    6f92:	460d                	li	a2,3
    6f94:	4305                	li	t1,1
    6f96:	64c98563          	beq	s3,a2,75e0 <__subdf3+0x794>
    6f9a:	62098863          	beqz	s3,75ca <__subdf3+0x77e>
    6f9e:	01000637          	lui	a2,0x1000
    6fa2:	8ef1                	and	a3,a3,a2
    6fa4:	0016b513          	seqz	a0,a3
    6fa8:	10078ce3          	beqz	a5,78c0 <__subdf3+0xa74>
    6fac:	4401                	li	s0,0
    6fae:	4789                	li	a5,2
    6fb0:	26f98c63          	beq	s3,a5,7228 <__subdf3+0x3dc>
    6fb4:	478d                	li	a5,3
    6fb6:	28f98863          	beq	s3,a5,7246 <__subdf3+0x3fa>
    6fba:	24098263          	beqz	s3,71fe <__subdf3+0x3b2>
    6fbe:	008005b7          	lui	a1,0x800
    6fc2:	8df9                	and	a1,a1,a4
    6fc4:	4305                	li	t1,1
    6fc6:	c119                	beqz	a0,6fcc <__subdf3+0x180>
    6fc8:	00236313          	ori	t1,t1,2
    6fcc:	4a058363          	beqz	a1,7472 <__subdf3+0x626>
    6fd0:	0405                	addi	s0,s0,1
    6fd2:	7ff00793          	li	a5,2047
    6fd6:	20f40363          	beq	s0,a5,71dc <__subdf3+0x390>
    6fda:	ff8007b7          	lui	a5,0xff800
    6fde:	17fd                	addi	a5,a5,-1
    6fe0:	8ff9                	and	a5,a5,a4
    6fe2:	01d79613          	slli	a2,a5,0x1d
    6fe6:	00395913          	srli	s2,s2,0x3
    6fea:	07a6                	slli	a5,a5,0x9
    6fec:	01266633          	or	a2,a2,s2
    6ff0:	83b1                	srli	a5,a5,0xc
    6ff2:	7ff47413          	andi	s0,s0,2047
    6ff6:	8885                	andi	s1,s1,1
    6ff8:	00c79713          	slli	a4,a5,0xc
    6ffc:	0452                	slli	s0,s0,0x14
    6ffe:	8331                	srli	a4,a4,0xc
    7000:	04fe                	slli	s1,s1,0x1f
    7002:	8f41                	or	a4,a4,s0
    7004:	8f45                	or	a4,a4,s1
    7006:	8532                	mv	a0,a2
    7008:	85ba                	mv	a1,a4
    700a:	2a031463          	bnez	t1,72b2 <__subdf3+0x466>
    700e:	40f2                	lw	ra,28(sp)
    7010:	4462                	lw	s0,24(sp)
    7012:	44d2                	lw	s1,20(sp)
    7014:	4942                	lw	s2,16(sp)
    7016:	49b2                	lw	s3,12(sp)
    7018:	4a22                	lw	s4,8(sp)
    701a:	6105                	addi	sp,sp,32
    701c:	8082                	ret
    701e:	0c605d63          	blez	t1,70f8 <__subdf3+0x2ac>
    7022:	16088c63          	beqz	a7,719a <__subdf3+0x34e>
    7026:	008007b7          	lui	a5,0x800
    702a:	00f86833          	or	a6,a6,a5
    702e:	51d40a63          	beq	s0,t4,7542 <__subdf3+0x6f6>
    7032:	03800793          	li	a5,56
    7036:	3667cc63          	blt	a5,t1,73ae <__subdf3+0x562>
    703a:	47fd                	li	a5,31
    703c:	4667d063          	bge	a5,t1,749c <__subdf3+0x650>
    7040:	fe030613          	addi	a2,t1,-32
    7044:	02000793          	li	a5,32
    7048:	00c85633          	srl	a2,a6,a2
    704c:	00f30a63          	beq	t1,a5,7060 <__subdf3+0x214>
    7050:	04000793          	li	a5,64
    7054:	40678333          	sub	t1,a5,t1
    7058:	00681833          	sll	a6,a6,t1
    705c:	0105e5b3          	or	a1,a1,a6
    7060:	00b035b3          	snez	a1,a1
    7064:	8e4d                	or	a2,a2,a1
    7066:	ae81                	j	73b6 <__subdf3+0x56a>
    7068:	00b867b3          	or	a5,a6,a1
    706c:	80140313          	addi	t1,s0,-2047
    7070:	e399                	bnez	a5,7076 <__subdf3+0x22a>
    7072:	0016c693          	xori	a3,a3,1
    7076:	08d48163          	beq	s1,a3,70f8 <__subdf3+0x2ac>
    707a:	0c031563          	bnez	t1,7144 <__subdf3+0x2f8>
    707e:	00140793          	addi	a5,s0,1
    7082:	7fe7f793          	andi	a5,a5,2046
    7086:	24079263          	bnez	a5,72ca <__subdf3+0x47e>
    708a:	01c76eb3          	or	t4,a4,t3
    708e:	00b867b3          	or	a5,a6,a1
    7092:	5a041263          	bnez	s0,7636 <__subdf3+0x7ea>
    7096:	480e8e63          	beqz	t4,7532 <__subdf3+0x6e6>
    709a:	4a078263          	beqz	a5,753e <__subdf3+0x6f2>
    709e:	40be0533          	sub	a0,t3,a1
    70a2:	00ae37b3          	sltu	a5,t3,a0
    70a6:	41070633          	sub	a2,a4,a6
    70aa:	8e1d                	sub	a2,a2,a5
    70ac:	00861793          	slli	a5,a2,0x8
    70b0:	6a07d463          	bgez	a5,7758 <__subdf3+0x90c>
    70b4:	41c58933          	sub	s2,a1,t3
    70b8:	40e807b3          	sub	a5,a6,a4
    70bc:	0125b5b3          	sltu	a1,a1,s2
    70c0:	40b78733          	sub	a4,a5,a1
    70c4:	00e967b3          	or	a5,s2,a4
    70c8:	84b6                	mv	s1,a3
    70ca:	ea0794e3          	bnez	a5,6f72 <__subdf3+0x126>
    70ce:	4601                	li	a2,0
    70d0:	4401                	li	s0,0
    70d2:	4301                	li	t1,0
    70d4:	07b2                	slli	a5,a5,0xc
    70d6:	83b1                	srli	a5,a5,0xc
    70d8:	7ff47413          	andi	s0,s0,2047
    70dc:	8885                	andi	s1,s1,1
    70de:	bf29                	j	6ff8 <__subdf3+0x1ac>
    70e0:	00b867b3          	or	a5,a6,a1
    70e4:	1a078663          	beqz	a5,7290 <__subdf3+0x444>
    70e8:	fff30793          	addi	a5,t1,-1
    70ec:	48078063          	beqz	a5,756c <__subdf3+0x720>
    70f0:	45d30963          	beq	t1,t4,7542 <__subdf3+0x6f6>
    70f4:	833e                	mv	t1,a5
    70f6:	bbc9                	j	6ec8 <__subdf3+0x7c>
    70f8:	20031063          	bnez	t1,72f8 <__subdf3+0x4ac>
    70fc:	00140693          	addi	a3,s0,1
    7100:	7fe6f793          	andi	a5,a3,2046
    7104:	4e079a63          	bnez	a5,75f8 <__subdf3+0x7ac>
    7108:	01c766b3          	or	a3,a4,t3
    710c:	3e041e63          	bnez	s0,7508 <__subdf3+0x6bc>
    7110:	00b867b3          	or	a5,a6,a1
    7114:	5a068a63          	beqz	a3,76c8 <__subdf3+0x87c>
    7118:	42078363          	beqz	a5,753e <__subdf3+0x6f2>
    711c:	00be0933          	add	s2,t3,a1
    7120:	010707b3          	add	a5,a4,a6
    7124:	01c93633          	sltu	a2,s2,t3
    7128:	00c78733          	add	a4,a5,a2
    712c:	00871793          	slli	a5,a4,0x8
    7130:	e207dde3          	bgez	a5,6f6a <__subdf3+0x11e>
    7134:	ff8007b7          	lui	a5,0xff800
    7138:	17fd                	addi	a5,a5,-1
    713a:	8f7d                	and	a4,a4,a5
    713c:	4405                	li	s0,1
    713e:	00797793          	andi	a5,s2,7
    7142:	a069                	j	71cc <__subdf3+0x380>
    7144:	408887b3          	sub	a5,a7,s0
    7148:	20041363          	bnez	s0,734e <__subdf3+0x502>
    714c:	01c76533          	or	a0,a4,t3
    7150:	c125                	beqz	a0,71b0 <__subdf3+0x364>
    7152:	fff78513          	addi	a0,a5,-1 # ff7fffff <_eusrstack+0xdf7effff>
    7156:	54050f63          	beqz	a0,76b4 <__subdf3+0x868>
    715a:	7ff00313          	li	t1,2047
    715e:	60678663          	beq	a5,t1,776a <__subdf3+0x91e>
    7162:	87aa                	mv	a5,a0
    7164:	03800613          	li	a2,56
    7168:	2af64b63          	blt	a2,a5,741e <__subdf3+0x5d2>
    716c:	467d                	li	a2,31
    716e:	50f64863          	blt	a2,a5,767e <__subdf3+0x832>
    7172:	02000513          	li	a0,32
    7176:	8d1d                	sub	a0,a0,a5
    7178:	00a71633          	sll	a2,a4,a0
    717c:	00fe5333          	srl	t1,t3,a5
    7180:	00ae1533          	sll	a0,t3,a0
    7184:	00666633          	or	a2,a2,t1
    7188:	00a03933          	snez	s2,a0
    718c:	00f757b3          	srl	a5,a4,a5
    7190:	01266633          	or	a2,a2,s2
    7194:	40f80833          	sub	a6,a6,a5
    7198:	a479                	j	7426 <__subdf3+0x5da>
    719a:	00b867b3          	or	a5,a6,a1
    719e:	cbed                	beqz	a5,7290 <__subdf3+0x444>
    71a0:	fff30793          	addi	a5,t1,-1
    71a4:	32078063          	beqz	a5,74c4 <__subdf3+0x678>
    71a8:	4bd30b63          	beq	t1,t4,765e <__subdf3+0x812>
    71ac:	833e                	mv	t1,a5
    71ae:	b551                	j	7032 <__subdf3+0x1e6>
    71b0:	7ff00713          	li	a4,2047
    71b4:	5ee78a63          	beq	a5,a4,77a8 <__subdf3+0x95c>
    71b8:	8742                	mv	a4,a6
    71ba:	892e                	mv	s2,a1
    71bc:	843e                	mv	s0,a5
    71be:	84b6                	mv	s1,a3
    71c0:	00e967b3          	or	a5,s2,a4
    71c4:	da0405e3          	beqz	s0,6f6e <__subdf3+0x122>
    71c8:	00797793          	andi	a5,s2,7
    71cc:	4501                	li	a0,0
    71ce:	de0790e3          	bnez	a5,6fae <__subdf3+0x162>
    71d2:	008005b7          	lui	a1,0x800
    71d6:	8df9                	and	a1,a1,a4
    71d8:	4301                	li	t1,0
    71da:	bbcd                	j	6fcc <__subdf3+0x180>
    71dc:	0c098f63          	beqz	s3,72ba <__subdf3+0x46e>
    71e0:	478d                	li	a5,3
    71e2:	0cf98b63          	beq	s3,a5,72b8 <__subdf3+0x46c>
    71e6:	4789                	li	a5,2
    71e8:	30f98b63          	beq	s3,a5,74fe <__subdf3+0x6b2>
    71ec:	00536313          	ori	t1,t1,5
    71f0:	200007b7          	lui	a5,0x20000
    71f4:	567d                	li	a2,-1
    71f6:	17fd                	addi	a5,a5,-1
    71f8:	7fe00413          	li	s0,2046
    71fc:	bde1                	j	70d4 <__subdf3+0x288>
    71fe:	008005b7          	lui	a1,0x800
    7202:	00f97793          	andi	a5,s2,15
    7206:	4691                	li	a3,4
    7208:	4305                	li	t1,1
    720a:	8df9                	and	a1,a1,a4
    720c:	dad78de3          	beq	a5,a3,6fc6 <__subdf3+0x17a>
    7210:	ffc93793          	sltiu	a5,s2,-4
    7214:	0017c793          	xori	a5,a5,1
    7218:	973e                	add	a4,a4,a5
    721a:	008005b7          	lui	a1,0x800
    721e:	8df9                	and	a1,a1,a4
    7220:	0911                	addi	s2,s2,4
    7222:	da0513e3          	bnez	a0,6fc8 <__subdf3+0x17c>
    7226:	b35d                	j	6fcc <__subdf3+0x180>
    7228:	d8048be3          	beqz	s1,6fbe <__subdf3+0x172>
    722c:	00890793          	addi	a5,s2,8
    7230:	0127b633          	sltu	a2,a5,s2
    7234:	9732                	add	a4,a4,a2
    7236:	008005b7          	lui	a1,0x800
    723a:	8df9                	and	a1,a1,a4
    723c:	893e                	mv	s2,a5
    723e:	4305                	li	t1,1
    7240:	d80514e3          	bnez	a0,6fc8 <__subdf3+0x17c>
    7244:	b361                	j	6fcc <__subdf3+0x180>
    7246:	d0fd                	beqz	s1,722c <__subdf3+0x3e0>
    7248:	4305                	li	t1,1
    724a:	008005b7          	lui	a1,0x800
    724e:	8df9                	and	a1,a1,a4
    7250:	4485                	li	s1,1
    7252:	d6051be3          	bnez	a0,6fc8 <__subdf3+0x17c>
    7256:	bb9d                	j	6fcc <__subdf3+0x180>
    7258:	ff800737          	lui	a4,0xff800
    725c:	177d                	addi	a4,a4,-1
    725e:	8f7d                	and	a4,a4,a5
    7260:	8952                	mv	s2,s4
    7262:	8c09                	sub	s0,s0,a0
    7264:	00e967b3          	or	a5,s2,a4
    7268:	d00403e3          	beqz	s0,6f6e <__subdf3+0x122>
    726c:	bfb1                	j	71c8 <__subdf3+0x37c>
    726e:	854a                	mv	a0,s2
    7270:	26f000ef          	jal	ra,7cde <__clzsi2>
    7274:	ff850793          	addi	a5,a0,-8
    7278:	477d                	li	a4,31
    727a:	0561                	addi	a0,a0,24
    727c:	00f917b3          	sll	a5,s2,a5
    7280:	caa74ce3          	blt	a4,a0,6f38 <__subdf3+0xec>
    7284:	b145                	j	6f24 <__subdf3+0xd8>
    7286:	00b86833          	or	a6,a6,a1
    728a:	01003633          	snez	a2,a6
    728e:	b985                	j	6efe <__subdf3+0xb2>
    7290:	31d30f63          	beq	t1,t4,75ae <__subdf3+0x762>
    7294:	008005b7          	lui	a1,0x800
    7298:	841a                	mv	s0,t1
    729a:	8df9                	and	a1,a1,a4
    729c:	8972                	mv	s2,t3
    729e:	4301                	li	t1,0
    72a0:	b335                	j	6fcc <__subdf3+0x180>
    72a2:	48888863          	beq	a7,s0,7732 <__subdf3+0x8e6>
    72a6:	48079f63          	bnez	a5,7744 <__subdf3+0x8f8>
    72aa:	4501                	li	a0,0
    72ac:	7ff805b7          	lui	a1,0x7ff80
    72b0:	4341                	li	t1,16
    72b2:	00132073          	csrs	fflags,t1
    72b6:	bba1                	j	700e <__subdf3+0x1c2>
    72b8:	f895                	bnez	s1,71ec <__subdf3+0x3a0>
    72ba:	00536313          	ori	t1,t1,5
    72be:	8885                	andi	s1,s1,1
    72c0:	7ff00413          	li	s0,2047
    72c4:	4781                	li	a5,0
    72c6:	4601                	li	a2,0
    72c8:	bb05                	j	6ff8 <__subdf3+0x1ac>
    72ca:	40be0933          	sub	s2,t3,a1
    72ce:	012e37b3          	sltu	a5,t3,s2
    72d2:	41070a33          	sub	s4,a4,a6
    72d6:	40fa0a33          	sub	s4,s4,a5
    72da:	008a1793          	slli	a5,s4,0x8
    72de:	3407c263          	bltz	a5,7622 <__subdf3+0x7d6>
    72e2:	014967b3          	or	a5,s2,s4
    72e6:	c20799e3          	bnez	a5,6f18 <__subdf3+0xcc>
    72ea:	ffe98493          	addi	s1,s3,-2
    72ee:	0014b493          	seqz	s1,s1
    72f2:	4601                	li	a2,0
    72f4:	4401                	li	s0,0
    72f6:	bbf9                	j	70d4 <__subdf3+0x288>
    72f8:	408887b3          	sub	a5,a7,s0
    72fc:	12040e63          	beqz	s0,7438 <__subdf3+0x5ec>
    7300:	00800537          	lui	a0,0x800
    7304:	7ff00693          	li	a3,2047
    7308:	8f49                	or	a4,a4,a0
    730a:	50d88763          	beq	a7,a3,7818 <__subdf3+0x9cc>
    730e:	03800693          	li	a3,56
    7312:	36f6c163          	blt	a3,a5,7674 <__subdf3+0x828>
    7316:	46fd                	li	a3,31
    7318:	46f6c363          	blt	a3,a5,777e <__subdf3+0x932>
    731c:	02000693          	li	a3,32
    7320:	8e9d                	sub	a3,a3,a5
    7322:	00d71633          	sll	a2,a4,a3
    7326:	00fe5533          	srl	a0,t3,a5
    732a:	00de16b3          	sll	a3,t3,a3
    732e:	8e49                	or	a2,a2,a0
    7330:	00d03933          	snez	s2,a3
    7334:	00f757b3          	srl	a5,a4,a5
    7338:	01266633          	or	a2,a2,s2
    733c:	983e                	add	a6,a6,a5
    733e:	00b60933          	add	s2,a2,a1
    7342:	00b937b3          	sltu	a5,s2,a1
    7346:	01078733          	add	a4,a5,a6
    734a:	8446                	mv	s0,a7
    734c:	a895                	j	73c0 <__subdf3+0x574>
    734e:	00800337          	lui	t1,0x800
    7352:	7ff00513          	li	a0,2047
    7356:	00676733          	or	a4,a4,t1
    735a:	e0a895e3          	bne	a7,a0,7164 <__subdf3+0x318>
    735e:	00b865b3          	or	a1,a6,a1
    7362:	20058263          	beqz	a1,7566 <__subdf3+0x71a>
    7366:	060e                	slli	a2,a2,0x3
    7368:	820d                	srli	a2,a2,0x3
    736a:	01d81793          	slli	a5,a6,0x1d
    736e:	00981713          	slli	a4,a6,0x9
    7372:	8e5d                	or	a2,a2,a5
    7374:	84b6                	mv	s1,a3
    7376:	00385793          	srli	a5,a6,0x3
    737a:	4301                	li	t1,0
    737c:	10074663          	bltz	a4,7488 <__subdf3+0x63c>
    7380:	4341                	li	t1,16
    7382:	a219                	j	7488 <__subdf3+0x63c>
    7384:	1505                	addi	a0,a0,-31
    7386:	02000693          	li	a3,32
    738a:	00a7d533          	srl	a0,a5,a0
    738e:	00d70a63          	beq	a4,a3,73a2 <__subdf3+0x556>
    7392:	04000693          	li	a3,64
    7396:	40e68733          	sub	a4,a3,a4
    739a:	00e797b3          	sll	a5,a5,a4
    739e:	00fa6a33          	or	s4,s4,a5
    73a2:	014037b3          	snez	a5,s4
    73a6:	8fc9                	or	a5,a5,a0
    73a8:	893e                	mv	s2,a5
    73aa:	4701                	li	a4,0
    73ac:	b6c9                	j	6f6e <__subdf3+0x122>
    73ae:	00b86833          	or	a6,a6,a1
    73b2:	01003633          	snez	a2,a6
    73b6:	01c60933          	add	s2,a2,t3
    73ba:	01c93633          	sltu	a2,s2,t3
    73be:	9732                	add	a4,a4,a2
    73c0:	00871793          	slli	a5,a4,0x8
    73c4:	de07dee3          	bgez	a5,71c0 <__subdf3+0x374>
    73c8:	0405                	addi	s0,s0,1
    73ca:	7ff00793          	li	a5,2047
    73ce:	08f40363          	beq	s0,a5,7454 <__subdf3+0x608>
    73d2:	ff8007b7          	lui	a5,0xff800
    73d6:	17fd                	addi	a5,a5,-1
    73d8:	8ff9                	and	a5,a5,a4
    73da:	00197613          	andi	a2,s2,1
    73de:	00195713          	srli	a4,s2,0x1
    73e2:	8e59                	or	a2,a2,a4
    73e4:	01f79913          	slli	s2,a5,0x1f
    73e8:	00c96933          	or	s2,s2,a2
    73ec:	0017d713          	srli	a4,a5,0x1
    73f0:	00797793          	andi	a5,s2,7
    73f4:	bbe1                	j	71cc <__subdf3+0x380>
    73f6:	fe030613          	addi	a2,t1,-32 # 7fffe0 <__rt_init_end+0x7f6484>
    73fa:	02000793          	li	a5,32
    73fe:	00c85633          	srl	a2,a6,a2
    7402:	00f30a63          	beq	t1,a5,7416 <__subdf3+0x5ca>
    7406:	04000793          	li	a5,64
    740a:	40678333          	sub	t1,a5,t1
    740e:	00681833          	sll	a6,a6,t1
    7412:	0105e5b3          	or	a1,a1,a6
    7416:	00b035b3          	snez	a1,a1
    741a:	8e4d                	or	a2,a2,a1
    741c:	b4cd                	j	6efe <__subdf3+0xb2>
    741e:	01c76633          	or	a2,a4,t3
    7422:	00c03633          	snez	a2,a2
    7426:	40c58933          	sub	s2,a1,a2
    742a:	0125b7b3          	sltu	a5,a1,s2
    742e:	40f80733          	sub	a4,a6,a5
    7432:	8446                	mv	s0,a7
    7434:	84b6                	mv	s1,a3
    7436:	bcc9                	j	6f08 <__subdf3+0xbc>
    7438:	01c766b3          	or	a3,a4,t3
    743c:	28068963          	beqz	a3,76ce <__subdf3+0x882>
    7440:	fff78693          	addi	a3,a5,-1 # ff7fffff <_eusrstack+0xdf7effff>
    7444:	38068b63          	beqz	a3,77da <__subdf3+0x98e>
    7448:	7ff00513          	li	a0,2047
    744c:	40a78e63          	beq	a5,a0,7868 <__subdf3+0xa1c>
    7450:	87b6                	mv	a5,a3
    7452:	bd75                	j	730e <__subdf3+0x4c2>
    7454:	20098363          	beqz	s3,765a <__subdf3+0x80e>
    7458:	478d                	li	a5,3
    745a:	3ef98b63          	beq	s3,a5,7850 <__subdf3+0xa04>
    745e:	4789                	li	a5,2
    7460:	3cf98f63          	beq	s3,a5,783e <__subdf3+0x9f2>
    7464:	44099063          	bnez	s3,78a4 <__subdf3+0xa58>
    7468:	7fe00413          	li	s0,2046
    746c:	4701                	li	a4,0
    746e:	490d                	li	s2,3
    7470:	4315                	li	t1,5
    7472:	01d71793          	slli	a5,a4,0x1d
    7476:	00395613          	srli	a2,s2,0x3
    747a:	7ff00693          	li	a3,2047
    747e:	8e5d                	or	a2,a2,a5
    7480:	00375793          	srli	a5,a4,0x3
    7484:	c4d418e3          	bne	s0,a3,70d4 <__subdf3+0x288>
    7488:	8fd1                	or	a5,a5,a2
    748a:	e2078ae3          	beqz	a5,72be <__subdf3+0x472>
    748e:	4481                	li	s1,0
    7490:	7ff00413          	li	s0,2047
    7494:	000807b7          	lui	a5,0x80
    7498:	4601                	li	a2,0
    749a:	beb9                	j	6ff8 <__subdf3+0x1ac>
    749c:	02000793          	li	a5,32
    74a0:	406787b3          	sub	a5,a5,t1
    74a4:	0065d933          	srl	s2,a1,t1
    74a8:	00f81633          	sll	a2,a6,a5
    74ac:	00f595b3          	sll	a1,a1,a5
    74b0:	01266633          	or	a2,a2,s2
    74b4:	00685333          	srl	t1,a6,t1
    74b8:	00b03933          	snez	s2,a1
    74bc:	01266633          	or	a2,a2,s2
    74c0:	971a                	add	a4,a4,t1
    74c2:	bdd5                	j	73b6 <__subdf3+0x56a>
    74c4:	00be0933          	add	s2,t3,a1
    74c8:	010707b3          	add	a5,a4,a6
    74cc:	01c93633          	sltu	a2,s2,t3
    74d0:	00c78733          	add	a4,a5,a2
    74d4:	00871793          	slli	a5,a4,0x8
    74d8:	4405                	li	s0,1
    74da:	ce07d7e3          	bgez	a5,71c8 <__subdf3+0x37c>
    74de:	ff8007b7          	lui	a5,0xff800
    74e2:	17fd                	addi	a5,a5,-1
    74e4:	8ff9                	and	a5,a5,a4
    74e6:	00195613          	srli	a2,s2,0x1
    74ea:	01f79913          	slli	s2,a5,0x1f
    74ee:	00c96933          	or	s2,s2,a2
    74f2:	0017d713          	srli	a4,a5,0x1
    74f6:	4409                	li	s0,2
    74f8:	00797793          	andi	a5,s2,7
    74fc:	b9c1                	j	71cc <__subdf3+0x380>
    74fe:	00536313          	ori	t1,t1,5
    7502:	ce0487e3          	beqz	s1,71f0 <__subdf3+0x3a4>
    7506:	bb65                	j	72be <__subdf3+0x472>
    7508:	7ff00793          	li	a5,2047
    750c:	2ef40063          	beq	s0,a5,77ec <__subdf3+0x9a0>
    7510:	1ef88863          	beq	a7,a5,7700 <__subdf3+0x8b4>
    7514:	1e068c63          	beqz	a3,770c <__subdf3+0x8c0>
    7518:	00b86833          	or	a6,a6,a1
    751c:	f60819e3          	bnez	a6,748e <__subdf3+0x642>
    7520:	00351613          	slli	a2,a0,0x3
    7524:	01d71793          	slli	a5,a4,0x1d
    7528:	820d                	srli	a2,a2,0x3
    752a:	8e5d                	or	a2,a2,a5
    752c:	00375793          	srli	a5,a4,0x3
    7530:	bfa1                	j	7488 <__subdf3+0x63c>
    7532:	16078b63          	beqz	a5,76a8 <__subdf3+0x85c>
    7536:	4781                	li	a5,0
    7538:	8742                	mv	a4,a6
    753a:	8e2e                	mv	t3,a1
    753c:	84b6                	mv	s1,a3
    753e:	8972                	mv	s2,t3
    7540:	bc1d                	j	6f76 <__subdf3+0x12a>
    7542:	01c76633          	or	a2,a4,t3
    7546:	c20d                	beqz	a2,7568 <__subdf3+0x71c>
    7548:	00400337          	lui	t1,0x400
    754c:	050e                	slli	a0,a0,0x3
    754e:	00677333          	and	t1,a4,t1
    7552:	01d71613          	slli	a2,a4,0x1d
    7556:	810d                	srli	a0,a0,0x3
    7558:	00133313          	seqz	t1,t1
    755c:	8e49                	or	a2,a2,a0
    755e:	00375793          	srli	a5,a4,0x3
    7562:	0312                	slli	t1,t1,0x4
    7564:	b715                	j	7488 <__subdf3+0x63c>
    7566:	84b6                	mv	s1,a3
    7568:	4301                	li	t1,0
    756a:	bb91                	j	72be <__subdf3+0x472>
    756c:	40be0933          	sub	s2,t3,a1
    7570:	410707b3          	sub	a5,a4,a6
    7574:	012e3633          	sltu	a2,t3,s2
    7578:	40c78733          	sub	a4,a5,a2
    757c:	00871793          	slli	a5,a4,0x8
    7580:	4405                	li	s0,1
    7582:	9807c7e3          	bltz	a5,6f10 <__subdf3+0xc4>
    7586:	b189                	j	71c8 <__subdf3+0x37c>
    7588:	01c76633          	or	a2,a4,t3
    758c:	de71                	beqz	a2,7568 <__subdf3+0x71c>
    758e:	00400337          	lui	t1,0x400
    7592:	00351613          	slli	a2,a0,0x3
    7596:	00677333          	and	t1,a4,t1
    759a:	01d71793          	slli	a5,a4,0x1d
    759e:	820d                	srli	a2,a2,0x3
    75a0:	00133313          	seqz	t1,t1
    75a4:	8e5d                	or	a2,a2,a5
    75a6:	0312                	slli	t1,t1,0x4
    75a8:	00375793          	srli	a5,a4,0x3
    75ac:	bdf1                	j	7488 <__subdf3+0x63c>
    75ae:	01c767b3          	or	a5,a4,t3
    75b2:	ebcd                	bnez	a5,7664 <__subdf3+0x818>
    75b4:	4701                	li	a4,0
    75b6:	4e01                	li	t3,0
    75b8:	4301                	li	t1,0
    75ba:	01d71793          	slli	a5,a4,0x1d
    75be:	003e5613          	srli	a2,t3,0x3
    75c2:	8e5d                	or	a2,a2,a5
    75c4:	00375793          	srli	a5,a4,0x3
    75c8:	b5c1                	j	7488 <__subdf3+0x63c>
    75ca:	00f5f613          	andi	a2,a1,15
    75ce:	4511                	li	a0,4
    75d0:	9ca607e3          	beq	a2,a0,6f9e <__subdf3+0x152>
    75d4:	ffc5b593          	sltiu	a1,a1,-4
    75d8:	0015c593          	xori	a1,a1,1
    75dc:	96ae                	add	a3,a3,a1
    75de:	b2c1                	j	6f9e <__subdf3+0x152>
    75e0:	9a049fe3          	bnez	s1,6f9e <__subdf3+0x152>
    75e4:	ff85b613          	sltiu	a2,a1,-8
    75e8:	00164613          	xori	a2,a2,1
    75ec:	96b2                	add	a3,a3,a2
    75ee:	ba45                	j	6f9e <__subdf3+0x152>
    75f0:	4305                	li	t1,1
    75f2:	9a0486e3          	beqz	s1,6f9e <__subdf3+0x152>
    75f6:	b7fd                	j	75e4 <__subdf3+0x798>
    75f8:	7ff00793          	li	a5,2047
    75fc:	0ef68163          	beq	a3,a5,76de <__subdf3+0x892>
    7600:	95f2                	add	a1,a1,t3
    7602:	010707b3          	add	a5,a4,a6
    7606:	01c5b733          	sltu	a4,a1,t3
    760a:	97ba                	add	a5,a5,a4
    760c:	01f79613          	slli	a2,a5,0x1f
    7610:	8185                	srli	a1,a1,0x1
    7612:	00b66933          	or	s2,a2,a1
    7616:	0017d713          	srli	a4,a5,0x1
    761a:	8436                	mv	s0,a3
    761c:	00797793          	andi	a5,s2,7
    7620:	b675                	j	71cc <__subdf3+0x380>
    7622:	41c58933          	sub	s2,a1,t3
    7626:	40e80833          	sub	a6,a6,a4
    762a:	0125b5b3          	sltu	a1,a1,s2
    762e:	40b80a33          	sub	s4,a6,a1
    7632:	84b6                	mv	s1,a3
    7634:	b0d5                	j	6f18 <__subdf3+0xcc>
    7636:	7ff00593          	li	a1,2047
    763a:	0eb40163          	beq	s0,a1,771c <__subdf3+0x8d0>
    763e:	0eb88a63          	beq	a7,a1,7732 <__subdf3+0x8e6>
    7642:	c60e82e3          	beqz	t4,72a6 <__subdf3+0x45a>
    7646:	e40794e3          	bnez	a5,748e <__subdf3+0x642>
    764a:	050e                	slli	a0,a0,0x3
    764c:	01d71613          	slli	a2,a4,0x1d
    7650:	810d                	srli	a0,a0,0x3
    7652:	8e49                	or	a2,a2,a0
    7654:	00375793          	srli	a5,a4,0x3
    7658:	bd05                	j	7488 <__subdf3+0x63c>
    765a:	4315                	li	t1,5
    765c:	b18d                	j	72be <__subdf3+0x472>
    765e:	01c767b3          	or	a5,a4,t3
    7662:	d399                	beqz	a5,7568 <__subdf3+0x71c>
    7664:	00400337          	lui	t1,0x400
    7668:	00677333          	and	t1,a4,t1
    766c:	00133313          	seqz	t1,t1
    7670:	0312                	slli	t1,t1,0x4
    7672:	b7a1                	j	75ba <__subdf3+0x76e>
    7674:	01c76633          	or	a2,a4,t3
    7678:	00c03633          	snez	a2,a2
    767c:	b1c9                	j	733e <__subdf3+0x4f2>
    767e:	fe078613          	addi	a2,a5,-32 # ff7fffe0 <_eusrstack+0xdf7effe0>
    7682:	02000513          	li	a0,32
    7686:	00c75933          	srl	s2,a4,a2
    768a:	00a78a63          	beq	a5,a0,769e <__subdf3+0x852>
    768e:	04000613          	li	a2,64
    7692:	40f607b3          	sub	a5,a2,a5
    7696:	00f717b3          	sll	a5,a4,a5
    769a:	00fe6e33          	or	t3,t3,a5
    769e:	01c03633          	snez	a2,t3
    76a2:	01266633          	or	a2,a2,s2
    76a6:	b341                	j	7426 <__subdf3+0x5da>
    76a8:	ffe98493          	addi	s1,s3,-2
    76ac:	0014b493          	seqz	s1,s1
    76b0:	4601                	li	a2,0
    76b2:	b40d                	j	70d4 <__subdf3+0x288>
    76b4:	41c58933          	sub	s2,a1,t3
    76b8:	40e807b3          	sub	a5,a6,a4
    76bc:	0125b5b3          	sltu	a1,a1,s2
    76c0:	40b78733          	sub	a4,a5,a1
    76c4:	84b6                	mv	s1,a3
    76c6:	bd5d                	j	757c <__subdf3+0x730>
    76c8:	8742                	mv	a4,a6
    76ca:	892e                	mv	s2,a1
    76cc:	b04d                	j	6f6e <__subdf3+0x122>
    76ce:	7ff00713          	li	a4,2047
    76d2:	0ee78863          	beq	a5,a4,77c2 <__subdf3+0x976>
    76d6:	8742                	mv	a4,a6
    76d8:	892e                	mv	s2,a1
    76da:	843e                	mv	s0,a5
    76dc:	b4d5                	j	71c0 <__subdf3+0x374>
    76de:	f6098ee3          	beqz	s3,765a <__subdf3+0x80e>
    76e2:	478d                	li	a5,3
    76e4:	1cf98563          	beq	s3,a5,78ae <__subdf3+0xa62>
    76e8:	4789                	li	a5,2
    76ea:	14f98a63          	beq	s3,a5,783e <__subdf3+0x9f2>
    76ee:	1a099b63          	bnez	s3,78a4 <__subdf3+0xa58>
    76f2:	4501                	li	a0,0
    76f4:	4315                	li	t1,5
    76f6:	7fe00413          	li	s0,2046
    76fa:	577d                	li	a4,-1
    76fc:	597d                	li	s2,-1
    76fe:	be09                	j	7210 <__subdf3+0x3c4>
    7700:	00b865b3          	or	a1,a6,a1
    7704:	10059263          	bnez	a1,7808 <__subdf3+0x9bc>
    7708:	e0069ce3          	bnez	a3,7520 <__subdf3+0x6d4>
    770c:	060e                	slli	a2,a2,0x3
    770e:	01d81793          	slli	a5,a6,0x1d
    7712:	820d                	srli	a2,a2,0x3
    7714:	8e5d                	or	a2,a2,a5
    7716:	00385793          	srli	a5,a6,0x3
    771a:	b3bd                	j	7488 <__subdf3+0x63c>
    771c:	b80e83e3          	beqz	t4,72a2 <__subdf3+0x456>
    7720:	00971593          	slli	a1,a4,0x9
    7724:	0005c363          	bltz	a1,772a <__subdf3+0x8de>
    7728:	4341                	li	t1,16
    772a:	7ff00593          	li	a1,2047
    772e:	f0b89ce3          	bne	a7,a1,7646 <__subdf3+0x7fa>
    7732:	12078863          	beqz	a5,7862 <__subdf3+0xa16>
    7736:	00981793          	slli	a5,a6,0x9
    773a:	0007c363          	bltz	a5,7740 <__subdf3+0x8f4>
    773e:	4341                	li	t1,16
    7740:	d40e97e3          	bnez	t4,748e <__subdf3+0x642>
    7744:	00361793          	slli	a5,a2,0x3
    7748:	838d                	srli	a5,a5,0x3
    774a:	01d81613          	slli	a2,a6,0x1d
    774e:	8e5d                	or	a2,a2,a5
    7750:	84b6                	mv	s1,a3
    7752:	00385793          	srli	a5,a6,0x3
    7756:	bb0d                	j	7488 <__subdf3+0x63c>
    7758:	00c567b3          	or	a5,a0,a2
    775c:	d7b1                	beqz	a5,76a8 <__subdf3+0x85c>
    775e:	8e2a                	mv	t3,a0
    7760:	00757793          	andi	a5,a0,7
    7764:	8732                	mv	a4,a2
    7766:	8972                	mv	s2,t3
    7768:	b039                	j	6f76 <__subdf3+0x12a>
    776a:	00b865b3          	or	a1,a6,a1
    776e:	de058ce3          	beqz	a1,7566 <__subdf3+0x71a>
    7772:	00361793          	slli	a5,a2,0x3
    7776:	838d                	srli	a5,a5,0x3
    7778:	01d81613          	slli	a2,a6,0x1d
    777c:	becd                	j	736e <__subdf3+0x522>
    777e:	fe078613          	addi	a2,a5,-32
    7782:	02000693          	li	a3,32
    7786:	00c75933          	srl	s2,a4,a2
    778a:	00d78a63          	beq	a5,a3,779e <__subdf3+0x952>
    778e:	04000693          	li	a3,64
    7792:	40f687b3          	sub	a5,a3,a5
    7796:	00f717b3          	sll	a5,a4,a5
    779a:	00fe6e33          	or	t3,t3,a5
    779e:	01c03633          	snez	a2,t3
    77a2:	01266633          	or	a2,a2,s2
    77a6:	be61                	j	733e <__subdf3+0x4f2>
    77a8:	00b86e33          	or	t3,a6,a1
    77ac:	0e0e0263          	beqz	t3,7890 <__subdf3+0xa44>
    77b0:	00981793          	slli	a5,a6,0x9
    77b4:	8742                	mv	a4,a6
    77b6:	8e2e                	mv	t3,a1
    77b8:	84b6                	mv	s1,a3
    77ba:	0007ce63          	bltz	a5,77d6 <__subdf3+0x98a>
    77be:	4341                	li	t1,16
    77c0:	bbed                	j	75ba <__subdf3+0x76e>
    77c2:	00b86e33          	or	t3,a6,a1
    77c6:	0e0e0163          	beqz	t3,78a8 <__subdf3+0xa5c>
    77ca:	00981793          	slli	a5,a6,0x9
    77ce:	8742                	mv	a4,a6
    77d0:	8e2e                	mv	t3,a1
    77d2:	fe07d6e3          	bgez	a5,77be <__subdf3+0x972>
    77d6:	4301                	li	t1,0
    77d8:	b3cd                	j	75ba <__subdf3+0x76e>
    77da:	00be0933          	add	s2,t3,a1
    77de:	010707b3          	add	a5,a4,a6
    77e2:	00b935b3          	sltu	a1,s2,a1
    77e6:	00b78733          	add	a4,a5,a1
    77ea:	b1ed                	j	74d4 <__subdf3+0x688>
    77ec:	c6d5                	beqz	a3,7898 <__subdf3+0xa4c>
    77ee:	00971793          	slli	a5,a4,0x9
    77f2:	0007c363          	bltz	a5,77f8 <__subdf3+0x9ac>
    77f6:	4341                	li	t1,16
    77f8:	7ff00793          	li	a5,2047
    77fc:	d0f89ee3          	bne	a7,a5,7518 <__subdf3+0x6cc>
    7800:	00b865b3          	or	a1,a6,a1
    7804:	d0058ee3          	beqz	a1,7520 <__subdf3+0x6d4>
    7808:	00981793          	slli	a5,a6,0x9
    780c:	0007c363          	bltz	a5,7812 <__subdf3+0x9c6>
    7810:	4341                	li	t1,16
    7812:	ee068de3          	beqz	a3,770c <__subdf3+0x8c0>
    7816:	b9a5                	j	748e <__subdf3+0x642>
    7818:	00b865b3          	or	a1,a6,a1
    781c:	d40586e3          	beqz	a1,7568 <__subdf3+0x71c>
    7820:	00400337          	lui	t1,0x400
    7824:	060e                	slli	a2,a2,0x3
    7826:	00687333          	and	t1,a6,t1
    782a:	01d81793          	slli	a5,a6,0x1d
    782e:	820d                	srli	a2,a2,0x3
    7830:	00133313          	seqz	t1,t1
    7834:	8e5d                	or	a2,a2,a5
    7836:	0312                	slli	t1,t1,0x4
    7838:	00385793          	srli	a5,a6,0x3
    783c:	b1b1                	j	7488 <__subdf3+0x63c>
    783e:	e0049ee3          	bnez	s1,765a <__subdf3+0x80e>
    7842:	7fe00413          	li	s0,2046
    7846:	577d                	li	a4,-1
    7848:	597d                	li	s2,-1
    784a:	4315                	li	t1,5
    784c:	f84ff06f          	j	6fd0 <__subdf3+0x184>
    7850:	e00485e3          	beqz	s1,765a <__subdf3+0x80e>
    7854:	7fe00413          	li	s0,2046
    7858:	4501                	li	a0,0
    785a:	597d                	li	s2,-1
    785c:	577d                	li	a4,-1
    785e:	4315                	li	t1,5
    7860:	b2ed                	j	724a <__subdf3+0x3fe>
    7862:	a40e84e3          	beqz	t4,72aa <__subdf3+0x45e>
    7866:	b3d5                	j	764a <__subdf3+0x7fe>
    7868:	00b865b3          	or	a1,a6,a1
    786c:	ce058ee3          	beqz	a1,7568 <__subdf3+0x71c>
    7870:	00400337          	lui	t1,0x400
    7874:	00361793          	slli	a5,a2,0x3
    7878:	00687333          	and	t1,a6,t1
    787c:	838d                	srli	a5,a5,0x3
    787e:	01d81613          	slli	a2,a6,0x1d
    7882:	00133313          	seqz	t1,t1
    7886:	8e5d                	or	a2,a2,a5
    7888:	0312                	slli	t1,t1,0x4
    788a:	00385793          	srli	a5,a6,0x3
    788e:	beed                	j	7488 <__subdf3+0x63c>
    7890:	4701                	li	a4,0
    7892:	84b6                	mv	s1,a3
    7894:	4301                	li	t1,0
    7896:	b315                	j	75ba <__subdf3+0x76e>
    7898:	e6889ae3          	bne	a7,s0,770c <__subdf3+0x8c0>
    789c:	00b865b3          	or	a1,a6,a1
    78a0:	f5a5                	bnez	a1,7808 <__subdf3+0x9bc>
    78a2:	b5ad                	j	770c <__subdf3+0x8c0>
    78a4:	4315                	li	t1,5
    78a6:	ba2d                	j	71e0 <__subdf3+0x394>
    78a8:	4701                	li	a4,0
    78aa:	4301                	li	t1,0
    78ac:	b339                	j	75ba <__subdf3+0x76e>
    78ae:	da0486e3          	beqz	s1,765a <__subdf3+0x80e>
    78b2:	4501                	li	a0,0
    78b4:	7fe00413          	li	s0,2046
    78b8:	597d                	li	s2,-1
    78ba:	577d                	li	a4,-1
    78bc:	4315                	li	t1,5
    78be:	b271                	j	724a <__subdf3+0x3fe>
    78c0:	008005b7          	lui	a1,0x800
    78c4:	8df9                	and	a1,a1,a4
    78c6:	4401                	li	s0,0
    78c8:	f0069263          	bnez	a3,6fcc <__subdf3+0x180>
    78cc:	f0030063          	beqz	t1,6fcc <__subdf3+0x180>
    78d0:	00236313          	ori	t1,t1,2
    78d4:	ef8ff06f          	j	6fcc <__subdf3+0x180>

000078d8 <__extendsfdf2>:
    78d8:	1141                	addi	sp,sp,-16
    78da:	c606                	sw	ra,12(sp)
    78dc:	c422                	sw	s0,8(sp)
    78de:	c226                	sw	s1,4(sp)
    78e0:	e00507d3          	fmv.x.w	a5,fa0
    78e4:	00202773          	frrm	a4
    78e8:	0177d513          	srli	a0,a5,0x17
    78ec:	0ff57513          	andi	a0,a0,255
    78f0:	00150713          	addi	a4,a0,1 # 800001 <__rt_init_end+0x7f64a5>
    78f4:	00979413          	slli	s0,a5,0x9
    78f8:	0fe77713          	andi	a4,a4,254
    78fc:	8025                	srli	s0,s0,0x9
    78fe:	01f7d493          	srli	s1,a5,0x1f
    7902:	c31d                	beqz	a4,7928 <__extendsfdf2+0x50>
    7904:	00345793          	srli	a5,s0,0x3
    7908:	38050513          	addi	a0,a0,896
    790c:	0476                	slli	s0,s0,0x1d
    790e:	07b2                	slli	a5,a5,0xc
    7910:	0552                	slli	a0,a0,0x14
    7912:	83b1                	srli	a5,a5,0xc
    7914:	8fc9                	or	a5,a5,a0
    7916:	04fe                	slli	s1,s1,0x1f
    7918:	8fc5                	or	a5,a5,s1
    791a:	8522                	mv	a0,s0
    791c:	85be                	mv	a1,a5
    791e:	40b2                	lw	ra,12(sp)
    7920:	4422                	lw	s0,8(sp)
    7922:	4492                	lw	s1,4(sp)
    7924:	0141                	addi	sp,sp,16
    7926:	8082                	ret
    7928:	e90d                	bnez	a0,795a <__extendsfdf2+0x82>
    792a:	c435                	beqz	s0,7996 <__extendsfdf2+0xbe>
    792c:	8522                	mv	a0,s0
    792e:	2e45                	jal	7cde <__clzsi2>
    7930:	47a9                	li	a5,10
    7932:	08a7c163          	blt	a5,a0,79b4 <__extendsfdf2+0xdc>
    7936:	472d                	li	a4,11
    7938:	8f09                	sub	a4,a4,a0
    793a:	01550793          	addi	a5,a0,21
    793e:	00e45733          	srl	a4,s0,a4
    7942:	00f41433          	sll	s0,s0,a5
    7946:	00c71793          	slli	a5,a4,0xc
    794a:	38900713          	li	a4,905
    794e:	40a70533          	sub	a0,a4,a0
    7952:	83b1                	srli	a5,a5,0xc
    7954:	7ff57513          	andi	a0,a0,2047
    7958:	bf5d                	j	790e <__extendsfdf2+0x36>
    795a:	c815                	beqz	s0,798e <__extendsfdf2+0xb6>
    795c:	00080737          	lui	a4,0x80
    7960:	00345793          	srli	a5,s0,0x3
    7964:	8fd9                	or	a5,a5,a4
    7966:	00100737          	lui	a4,0x100
    796a:	177d                	addi	a4,a4,-1
    796c:	00941613          	slli	a2,s0,0x9
    7970:	01d41693          	slli	a3,s0,0x1d
    7974:	8ff9                	and	a5,a5,a4
    7976:	02065363          	bgez	a2,799c <__extendsfdf2+0xc4>
    797a:	8f7d                	and	a4,a4,a5
    797c:	01f49793          	slli	a5,s1,0x1f
    7980:	7ff004b7          	lui	s1,0x7ff00
    7984:	8cd9                	or	s1,s1,a4
    7986:	8fc5                	or	a5,a5,s1
    7988:	8536                	mv	a0,a3
    798a:	85be                	mv	a1,a5
    798c:	bf49                	j	791e <__extendsfdf2+0x46>
    798e:	7ff00513          	li	a0,2047
    7992:	4781                	li	a5,0
    7994:	bfad                	j	790e <__extendsfdf2+0x36>
    7996:	4501                	li	a0,0
    7998:	4781                	li	a5,0
    799a:	bf95                	j	790e <__extendsfdf2+0x36>
    799c:	8f7d                	and	a4,a4,a5
    799e:	01f49793          	slli	a5,s1,0x1f
    79a2:	7ff004b7          	lui	s1,0x7ff00
    79a6:	8f45                	or	a4,a4,s1
    79a8:	8fd9                	or	a5,a5,a4
    79aa:	8536                	mv	a0,a3
    79ac:	85be                	mv	a1,a5
    79ae:	00186073          	csrsi	fflags,16
    79b2:	b7b5                	j	791e <__extendsfdf2+0x46>
    79b4:	ff550713          	addi	a4,a0,-11
    79b8:	00e41733          	sll	a4,s0,a4
    79bc:	4401                	li	s0,0
    79be:	b761                	j	7946 <__extendsfdf2+0x6e>

000079c0 <__truncdfsf2>:
    79c0:	002028f3          	frrm	a7
    79c4:	0145d693          	srli	a3,a1,0x14
    79c8:	00c59713          	slli	a4,a1,0xc
    79cc:	7ff6f693          	andi	a3,a3,2047
    79d0:	8331                	srli	a4,a4,0xc
    79d2:	00168813          	addi	a6,a3,1 # 10001 <__rt_init_end+0x64a5>
    79d6:	070e                	slli	a4,a4,0x3
    79d8:	01d55613          	srli	a2,a0,0x1d
    79dc:	7fe87813          	andi	a6,a6,2046
    79e0:	81fd                	srli	a1,a1,0x1f
    79e2:	8f51                	or	a4,a4,a2
    79e4:	00351793          	slli	a5,a0,0x3
    79e8:	0a080b63          	beqz	a6,7a9e <__truncdfsf2+0xde>
    79ec:	c8068613          	addi	a2,a3,-896
    79f0:	0fe00813          	li	a6,254
    79f4:	02c85f63          	bge	a6,a2,7a32 <__truncdfsf2+0x72>
    79f8:	12088f63          	beqz	a7,7b36 <__truncdfsf2+0x176>
    79fc:	478d                	li	a5,3
    79fe:	26f88063          	beq	a7,a5,7c5e <__truncdfsf2+0x29e>
    7a02:	4789                	li	a5,2
    7a04:	26f88763          	beq	a7,a5,7c72 <__truncdfsf2+0x2b2>
    7a08:	26089663          	bnez	a7,7c74 <__truncdfsf2+0x2b4>
    7a0c:	0fe00613          	li	a2,254
    7a10:	470d                	li	a4,3
    7a12:	4515                	li	a0,5
    7a14:	071a                	slli	a4,a4,0x6
    7a16:	8325                	srli	a4,a4,0x9
    7a18:	0ff67613          	andi	a2,a2,255
    7a1c:	00971793          	slli	a5,a4,0x9
    7a20:	065e                	slli	a2,a2,0x17
    7a22:	83a5                	srli	a5,a5,0x9
    7a24:	05fe                	slli	a1,a1,0x1f
    7a26:	8fd1                	or	a5,a5,a2
    7a28:	8fcd                	or	a5,a5,a1
    7a2a:	e53d                	bnez	a0,7a98 <__truncdfsf2+0xd8>
    7a2c:	f0078553          	fmv.w.x	fa0,a5
    7a30:	8082                	ret
    7a32:	10c05a63          	blez	a2,7b46 <__truncdfsf2+0x186>
    7a36:	051a                	slli	a0,a0,0x6
    7a38:	00a03533          	snez	a0,a0
    7a3c:	070e                	slli	a4,a4,0x3
    7a3e:	83f5                	srli	a5,a5,0x1d
    7a40:	8f49                	or	a4,a4,a0
    7a42:	8f5d                	or	a4,a4,a5
    7a44:	00777793          	andi	a5,a4,7
    7a48:	4501                	li	a0,0
    7a4a:	d7e9                	beqz	a5,7a14 <__truncdfsf2+0x54>
    7a4c:	4789                	li	a5,2
    7a4e:	1ef88e63          	beq	a7,a5,7c4a <__truncdfsf2+0x28a>
    7a52:	478d                	li	a5,3
    7a54:	16f88863          	beq	a7,a5,7bc4 <__truncdfsf2+0x204>
    7a58:	4781                	li	a5,0
    7a5a:	4505                	li	a0,1
    7a5c:	fa089ce3          	bnez	a7,7a14 <__truncdfsf2+0x54>
    7a60:	00f77693          	andi	a3,a4,15
    7a64:	4811                	li	a6,4
    7a66:	4505                	li	a0,1
    7a68:	01068463          	beq	a3,a6,7a70 <__truncdfsf2+0xb0>
    7a6c:	0711                	addi	a4,a4,4
    7a6e:	4505                	li	a0,1
    7a70:	c399                	beqz	a5,7a76 <__truncdfsf2+0xb6>
    7a72:	00256513          	ori	a0,a0,2
    7a76:	00571793          	slli	a5,a4,0x5
    7a7a:	f807dde3          	bgez	a5,7a14 <__truncdfsf2+0x54>
    7a7e:	0605                	addi	a2,a2,1
    7a80:	0ff00793          	li	a5,255
    7a84:	f8f618e3          	bne	a2,a5,7a14 <__truncdfsf2+0x54>
    7a88:	00556513          	ori	a0,a0,5
    7a8c:	10089c63          	bnez	a7,7ba4 <__truncdfsf2+0x1e4>
    7a90:	05fe                	slli	a1,a1,0x1f
    7a92:	7f8007b7          	lui	a5,0x7f800
    7a96:	8fcd                	or	a5,a5,a1
    7a98:	00152073          	csrs	fflags,a0
    7a9c:	bf41                	j	7a2c <__truncdfsf2+0x6c>
    7a9e:	00f76633          	or	a2,a4,a5
    7aa2:	eaa9                	bnez	a3,7af4 <__truncdfsf2+0x134>
    7aa4:	01f59793          	slli	a5,a1,0x1f
    7aa8:	d251                	beqz	a2,7a2c <__truncdfsf2+0x6c>
    7aaa:	4789                	li	a5,2
    7aac:	16f88d63          	beq	a7,a5,7c26 <__truncdfsf2+0x266>
    7ab0:	478d                	li	a5,3
    7ab2:	14f88563          	beq	a7,a5,7bfc <__truncdfsf2+0x23c>
    7ab6:	4705                	li	a4,1
    7ab8:	4789                	li	a5,2
    7aba:	4685                	li	a3,1
    7abc:	1e088963          	beqz	a7,7cae <__truncdfsf2+0x2ee>
    7ac0:	83ed                	srli	a5,a5,0x1b
    7ac2:	0017c793          	xori	a5,a5,1
    7ac6:	8b85                	andi	a5,a5,1
    7ac8:	4505                	li	a0,1
    7aca:	20068163          	beqz	a3,7ccc <__truncdfsf2+0x30c>
    7ace:	4689                	li	a3,2
    7ad0:	18d88563          	beq	a7,a3,7c5a <__truncdfsf2+0x29a>
    7ad4:	468d                	li	a3,3
    7ad6:	16d88863          	beq	a7,a3,7c46 <__truncdfsf2+0x286>
    7ada:	4601                	li	a2,0
    7adc:	f80882e3          	beqz	a7,7a60 <__truncdfsf2+0xa0>
    7ae0:	4505                	li	a0,1
    7ae2:	10079a63          	bnez	a5,7bf6 <__truncdfsf2+0x236>
    7ae6:	00571793          	slli	a5,a4,0x5
    7aea:	4605                	li	a2,1
    7aec:	f207c4e3          	bltz	a5,7a14 <__truncdfsf2+0x54>
    7af0:	4601                	li	a2,0
    7af2:	b70d                	j	7a14 <__truncdfsf2+0x54>
    7af4:	ca15                	beqz	a2,7b28 <__truncdfsf2+0x168>
    7af6:	7ff00793          	li	a5,2047
    7afa:	4501                	li	a0,0
    7afc:	00f69863          	bne	a3,a5,7b0c <__truncdfsf2+0x14c>
    7b00:	00400637          	lui	a2,0x400
    7b04:	8f71                	and	a4,a4,a2
    7b06:	00173513          	seqz	a0,a4
    7b0a:	0512                	slli	a0,a0,0x4
    7b0c:	00400737          	lui	a4,0x400
    7b10:	0ff00613          	li	a2,255
    7b14:	00971793          	slli	a5,a4,0x9
    7b18:	4581                	li	a1,0
    7b1a:	065e                	slli	a2,a2,0x17
    7b1c:	83a5                	srli	a5,a5,0x9
    7b1e:	05fe                	slli	a1,a1,0x1f
    7b20:	8fd1                	or	a5,a5,a2
    7b22:	8fcd                	or	a5,a5,a1
    7b24:	d501                	beqz	a0,7a2c <__truncdfsf2+0x6c>
    7b26:	bf8d                	j	7a98 <__truncdfsf2+0xd8>
    7b28:	05fe                	slli	a1,a1,0x1f
    7b2a:	7f8007b7          	lui	a5,0x7f800
    7b2e:	8fcd                	or	a5,a5,a1
    7b30:	f0078553          	fmv.w.x	fa0,a5
    7b34:	8082                	ret
    7b36:	05fe                	slli	a1,a1,0x1f
    7b38:	7f8007b7          	lui	a5,0x7f800
    7b3c:	8fcd                	or	a5,a5,a1
    7b3e:	4515                	li	a0,5
    7b40:	00152073          	csrs	fflags,a0
    7b44:	b5e5                	j	7a2c <__truncdfsf2+0x6c>
    7b46:	5525                	li	a0,-23
    7b48:	08a64763          	blt	a2,a0,7bd6 <__truncdfsf2+0x216>
    7b4c:	4579                	li	a0,30
    7b4e:	00800337          	lui	t1,0x800
    7b52:	8d11                	sub	a0,a0,a2
    7b54:	487d                	li	a6,31
    7b56:	00676733          	or	a4,a4,t1
    7b5a:	0aa85863          	bge	a6,a0,7c0a <__truncdfsf2+0x24a>
    7b5e:	5879                	li	a6,-2
    7b60:	40c80633          	sub	a2,a6,a2
    7b64:	02000813          	li	a6,32
    7b68:	00c75633          	srl	a2,a4,a2
    7b6c:	01050763          	beq	a0,a6,7b7a <__truncdfsf2+0x1ba>
    7b70:	ca268693          	addi	a3,a3,-862
    7b74:	00d716b3          	sll	a3,a4,a3
    7b78:	8fd5                	or	a5,a5,a3
    7b7a:	00f03733          	snez	a4,a5
    7b7e:	8f51                	or	a4,a4,a2
    7b80:	01f59793          	slli	a5,a1,0x1f
    7b84:	ea0704e3          	beqz	a4,7a2c <__truncdfsf2+0x6c>
    7b88:	00171793          	slli	a5,a4,0x1
    7b8c:	0077f613          	andi	a2,a5,7
    7b90:	00777693          	andi	a3,a4,7
    7b94:	10061063          	bnez	a2,7c94 <__truncdfsf2+0x2d4>
    7b98:	83ed                	srli	a5,a5,0x1b
    7b9a:	0017c793          	xori	a5,a5,1
    7b9e:	8b85                	andi	a5,a5,1
    7ba0:	4501                	li	a0,0
    7ba2:	b725                	j	7aca <__truncdfsf2+0x10a>
    7ba4:	478d                	li	a5,3
    7ba6:	0cf88363          	beq	a7,a5,7c6c <__truncdfsf2+0x2ac>
    7baa:	4789                	li	a5,2
    7bac:	08f88463          	beq	a7,a5,7c34 <__truncdfsf2+0x274>
    7bb0:	ff000737          	lui	a4,0xff000
    7bb4:	1779                	addi	a4,a4,-2
    7bb6:	05fe                	slli	a1,a1,0x1f
    7bb8:	8305                	srli	a4,a4,0x1
    7bba:	00b767b3          	or	a5,a4,a1
    7bbe:	00152073          	csrs	fflags,a0
    7bc2:	b5ad                	j	7a2c <__truncdfsf2+0x6c>
    7bc4:	4781                	li	a5,0
    7bc6:	852e                	mv	a0,a1
    7bc8:	ea0594e3          	bnez	a1,7a70 <__truncdfsf2+0xb0>
    7bcc:	0721                	addi	a4,a4,8
    7bce:	4505                	li	a0,1
    7bd0:	ea0791e3          	bnez	a5,7a72 <__truncdfsf2+0xb2>
    7bd4:	b54d                	j	7a76 <__truncdfsf2+0xb6>
    7bd6:	4709                	li	a4,2
    7bd8:	04e88763          	beq	a7,a4,7c26 <__truncdfsf2+0x266>
    7bdc:	478d                	li	a5,3
    7bde:	00f88f63          	beq	a7,a5,7bfc <__truncdfsf2+0x23c>
    7be2:	04088c63          	beqz	a7,7c3a <__truncdfsf2+0x27a>
    7be6:	0ce88f63          	beq	a7,a4,7cc4 <__truncdfsf2+0x304>
    7bea:	0cf88963          	beq	a7,a5,7cbc <__truncdfsf2+0x2fc>
    7bee:	4785                	li	a5,1
    7bf0:	4705                	li	a4,1
    7bf2:	04088863          	beqz	a7,7c42 <__truncdfsf2+0x282>
    7bf6:	853e                	mv	a0,a5
    7bf8:	4601                	li	a2,0
    7bfa:	bda5                	j	7a72 <__truncdfsf2+0xb2>
    7bfc:	4685                	li	a3,1
    7bfe:	4705                	li	a4,1
    7c00:	4789                	li	a5,2
    7c02:	ea059fe3          	bnez	a1,7ac0 <__truncdfsf2+0x100>
    7c06:	07a1                	addi	a5,a5,8
    7c08:	bd65                	j	7ac0 <__truncdfsf2+0x100>
    7c0a:	c8268693          	addi	a3,a3,-894
    7c0e:	00d79633          	sll	a2,a5,a3
    7c12:	00c03633          	snez	a2,a2
    7c16:	00d716b3          	sll	a3,a4,a3
    7c1a:	00a7d7b3          	srl	a5,a5,a0
    7c1e:	00d66733          	or	a4,a2,a3
    7c22:	8f5d                	or	a4,a4,a5
    7c24:	bfb1                	j	7b80 <__truncdfsf2+0x1c0>
    7c26:	4685                	li	a3,1
    7c28:	4705                	li	a4,1
    7c2a:	4789                	li	a5,2
    7c2c:	e8058ae3          	beqz	a1,7ac0 <__truncdfsf2+0x100>
    7c30:	07a1                	addi	a5,a5,8
    7c32:	b579                	j	7ac0 <__truncdfsf2+0x100>
    7c34:	ddb5                	beqz	a1,7bb0 <__truncdfsf2+0x1f0>
    7c36:	4585                	li	a1,1
    7c38:	bda1                	j	7a90 <__truncdfsf2+0xd0>
    7c3a:	4705                	li	a4,1
    7c3c:	4601                	li	a2,0
    7c3e:	4785                	li	a5,1
    7c40:	b505                	j	7a60 <__truncdfsf2+0xa0>
    7c42:	4601                	li	a2,0
    7c44:	b525                	j	7a6c <__truncdfsf2+0xac>
    7c46:	4601                	li	a2,0
    7c48:	bfbd                	j	7bc6 <__truncdfsf2+0x206>
    7c4a:	4781                	li	a5,0
    7c4c:	4505                	li	a0,1
    7c4e:	e20581e3          	beqz	a1,7a70 <__truncdfsf2+0xb0>
    7c52:	0721                	addi	a4,a4,8
    7c54:	e0079fe3          	bnez	a5,7a72 <__truncdfsf2+0xb2>
    7c58:	bd39                	j	7a76 <__truncdfsf2+0xb6>
    7c5a:	4601                	li	a2,0
    7c5c:	bfc5                	j	7c4c <__truncdfsf2+0x28c>
    7c5e:	e185                	bnez	a1,7c7e <__truncdfsf2+0x2be>
    7c60:	7f8007b7          	lui	a5,0x7f800
    7c64:	4515                	li	a0,5
    7c66:	00152073          	csrs	fflags,a0
    7c6a:	b3c9                	j	7a2c <__truncdfsf2+0x6c>
    7c6c:	e20582e3          	beqz	a1,7a90 <__truncdfsf2+0xd0>
    7c70:	b781                	j	7bb0 <__truncdfsf2+0x1f0>
    7c72:	e999                	bnez	a1,7c88 <__truncdfsf2+0x2c8>
    7c74:	577d                	li	a4,-1
    7c76:	0fe00613          	li	a2,254
    7c7a:	4515                	li	a0,5
    7c7c:	b509                	j	7a7e <__truncdfsf2+0xbe>
    7c7e:	0fe00613          	li	a2,254
    7c82:	577d                	li	a4,-1
    7c84:	4515                	li	a0,5
    7c86:	bbc5                	j	7a76 <__truncdfsf2+0xb6>
    7c88:	ff8007b7          	lui	a5,0xff800
    7c8c:	4515                	li	a0,5
    7c8e:	00152073          	csrs	fflags,a0
    7c92:	bb69                	j	7a2c <__truncdfsf2+0x6c>
    7c94:	4609                	li	a2,2
    7c96:	f8c88be3          	beq	a7,a2,7c2c <__truncdfsf2+0x26c>
    7c9a:	460d                	li	a2,3
    7c9c:	f6c883e3          	beq	a7,a2,7c02 <__truncdfsf2+0x242>
    7ca0:	e20890e3          	bnez	a7,7ac0 <__truncdfsf2+0x100>
    7ca4:	00f7f613          	andi	a2,a5,15
    7ca8:	4511                	li	a0,4
    7caa:	e0a60be3          	beq	a2,a0,7ac0 <__truncdfsf2+0x100>
    7cae:	0791                	addi	a5,a5,4
    7cb0:	83ed                	srli	a5,a5,0x1b
    7cb2:	0017c793          	xori	a5,a5,1
    7cb6:	8b85                	andi	a5,a5,1
    7cb8:	4505                	li	a0,1
    7cba:	bd01                	j	7aca <__truncdfsf2+0x10a>
    7cbc:	4705                	li	a4,1
    7cbe:	4601                	li	a2,0
    7cc0:	4785                	li	a5,1
    7cc2:	b711                	j	7bc6 <__truncdfsf2+0x206>
    7cc4:	4705                	li	a4,1
    7cc6:	4601                	li	a2,0
    7cc8:	4785                	li	a5,1
    7cca:	b749                	j	7c4c <__truncdfsf2+0x28c>
    7ccc:	e0078de3          	beqz	a5,7ae6 <__truncdfsf2+0x126>
    7cd0:	f505                	bnez	a0,7bf8 <__truncdfsf2+0x238>
    7cd2:	00571793          	slli	a5,a4,0x5
    7cd6:	4605                	li	a2,1
    7cd8:	d207cee3          	bltz	a5,7a14 <__truncdfsf2+0x54>
    7cdc:	bd11                	j	7af0 <__truncdfsf2+0x130>

00007cde <__clzsi2>:
    7cde:	67c1                	lui	a5,0x10
    7ce0:	02f57c63          	bgeu	a0,a5,7d18 <__clzsi2+0x3a>
    7ce4:	0ff00793          	li	a5,255
    7ce8:	02000713          	li	a4,32
    7cec:	00a7eb63          	bltu	a5,a0,7d02 <__clzsi2+0x24>
    7cf0:	00002797          	auipc	a5,0x2
    7cf4:	c0078793          	addi	a5,a5,-1024 # 98f0 <__clz_tab>
    7cf8:	97aa                	add	a5,a5,a0
    7cfa:	2388                	lbu	a0,0(a5)
    7cfc:	40a70533          	sub	a0,a4,a0
    7d00:	8082                	ret
    7d02:	8121                	srli	a0,a0,0x8
    7d04:	00002797          	auipc	a5,0x2
    7d08:	bec78793          	addi	a5,a5,-1044 # 98f0 <__clz_tab>
    7d0c:	97aa                	add	a5,a5,a0
    7d0e:	2388                	lbu	a0,0(a5)
    7d10:	4761                	li	a4,24
    7d12:	40a70533          	sub	a0,a4,a0
    7d16:	8082                	ret
    7d18:	010007b7          	lui	a5,0x1000
    7d1c:	00f56d63          	bltu	a0,a5,7d36 <__clzsi2+0x58>
    7d20:	8161                	srli	a0,a0,0x18
    7d22:	00002797          	auipc	a5,0x2
    7d26:	bce78793          	addi	a5,a5,-1074 # 98f0 <__clz_tab>
    7d2a:	97aa                	add	a5,a5,a0
    7d2c:	2388                	lbu	a0,0(a5)
    7d2e:	4721                	li	a4,8
    7d30:	40a70533          	sub	a0,a4,a0
    7d34:	8082                	ret
    7d36:	8141                	srli	a0,a0,0x10
    7d38:	00002797          	auipc	a5,0x2
    7d3c:	bb878793          	addi	a5,a5,-1096 # 98f0 <__clz_tab>
    7d40:	97aa                	add	a5,a5,a0
    7d42:	2388                	lbu	a0,0(a5)
    7d44:	4741                	li	a4,16
    7d46:	40a70533          	sub	a0,a4,a0
    7d4a:	8082                	ret

00007d4c <memcmp>:
    7d4c:	4701                	li	a4,0
    7d4e:	00e61463          	bne	a2,a4,7d56 <memcmp+0xa>
    7d52:	4501                	li	a0,0
    7d54:	8082                	ret
    7d56:	00e507b3          	add	a5,a0,a4
    7d5a:	0705                	addi	a4,a4,1
    7d5c:	00e586b3          	add	a3,a1,a4
    7d60:	239c                	lbu	a5,0(a5)
    7d62:	fff6c683          	lbu	a3,-1(a3)
    7d66:	fed784e3          	beq	a5,a3,7d4e <memcmp+0x2>
    7d6a:	40d78533          	sub	a0,a5,a3
    7d6e:	8082                	ret

00007d70 <memcpy>:
    7d70:	00a5c7b3          	xor	a5,a1,a0
    7d74:	8b8d                	andi	a5,a5,3
    7d76:	00c50733          	add	a4,a0,a2
    7d7a:	e781                	bnez	a5,7d82 <memcpy+0x12>
    7d7c:	478d                	li	a5,3
    7d7e:	00c7ed63          	bltu	a5,a2,7d98 <memcpy+0x28>
    7d82:	87aa                	mv	a5,a0
    7d84:	08e57e63          	bgeu	a0,a4,7e20 <memcpy+0xb0>
    7d88:	2194                	lbu	a3,0(a1)
    7d8a:	0785                	addi	a5,a5,1
    7d8c:	0585                	addi	a1,a1,1
    7d8e:	fed78fa3          	sb	a3,-1(a5)
    7d92:	fee7ebe3          	bltu	a5,a4,7d88 <memcpy+0x18>
    7d96:	8082                	ret
    7d98:	00357693          	andi	a3,a0,3
    7d9c:	87aa                	mv	a5,a0
    7d9e:	ca89                	beqz	a3,7db0 <memcpy+0x40>
    7da0:	2194                	lbu	a3,0(a1)
    7da2:	0785                	addi	a5,a5,1
    7da4:	0585                	addi	a1,a1,1
    7da6:	fed78fa3          	sb	a3,-1(a5)
    7daa:	0037f693          	andi	a3,a5,3
    7dae:	bfc5                	j	7d9e <memcpy+0x2e>
    7db0:	ffc77693          	andi	a3,a4,-4
    7db4:	fe068613          	addi	a2,a3,-32
    7db8:	06c7f063          	bgeu	a5,a2,7e18 <memcpy+0xa8>
    7dbc:	0005a383          	lw	t2,0(a1) # 800000 <__rt_init_end+0x7f64a4>
    7dc0:	0045a283          	lw	t0,4(a1)
    7dc4:	0085af83          	lw	t6,8(a1)
    7dc8:	00c5af03          	lw	t5,12(a1)
    7dcc:	0105ae83          	lw	t4,16(a1)
    7dd0:	0145ae03          	lw	t3,20(a1)
    7dd4:	0185a303          	lw	t1,24(a1)
    7dd8:	01c5a883          	lw	a7,28(a1)
    7ddc:	02458593          	addi	a1,a1,36
    7de0:	0077a023          	sw	t2,0(a5)
    7de4:	ffc5a803          	lw	a6,-4(a1)
    7de8:	0057a223          	sw	t0,4(a5)
    7dec:	01f7a423          	sw	t6,8(a5)
    7df0:	01e7a623          	sw	t5,12(a5)
    7df4:	01d7a823          	sw	t4,16(a5)
    7df8:	01c7aa23          	sw	t3,20(a5)
    7dfc:	0067ac23          	sw	t1,24(a5)
    7e00:	0117ae23          	sw	a7,28(a5)
    7e04:	02478793          	addi	a5,a5,36
    7e08:	ff07ae23          	sw	a6,-4(a5)
    7e0c:	b775                	j	7db8 <memcpy+0x48>
    7e0e:	4190                	lw	a2,0(a1)
    7e10:	0791                	addi	a5,a5,4
    7e12:	0591                	addi	a1,a1,4
    7e14:	fec7ae23          	sw	a2,-4(a5)
    7e18:	fed7ebe3          	bltu	a5,a3,7e0e <memcpy+0x9e>
    7e1c:	f6e7e6e3          	bltu	a5,a4,7d88 <memcpy+0x18>
    7e20:	8082                	ret

00007e22 <strcat>:
    7e22:	87aa                	mv	a5,a0
    7e24:	2398                	lbu	a4,0(a5)
    7e26:	00178693          	addi	a3,a5,1
    7e2a:	eb09                	bnez	a4,7e3c <strcat+0x1a>
    7e2c:	0585                	addi	a1,a1,1
    7e2e:	fff5c703          	lbu	a4,-1(a1)
    7e32:	0785                	addi	a5,a5,1
    7e34:	fee78fa3          	sb	a4,-1(a5)
    7e38:	fb75                	bnez	a4,7e2c <strcat+0xa>
    7e3a:	8082                	ret
    7e3c:	87b6                	mv	a5,a3
    7e3e:	b7dd                	j	7e24 <strcat+0x2>

00007e40 <strcpy>:
    7e40:	87aa                	mv	a5,a0
    7e42:	2198                	lbu	a4,0(a1)
    7e44:	0785                	addi	a5,a5,1
    7e46:	0585                	addi	a1,a1,1
    7e48:	fee78fa3          	sb	a4,-1(a5)
    7e4c:	fb7d                	bnez	a4,7e42 <strcpy+0x2>
    7e4e:	8082                	ret

00007e50 <strlen>:
    7e50:	87aa                	mv	a5,a0
    7e52:	0785                	addi	a5,a5,1
    7e54:	fff7c703          	lbu	a4,-1(a5)
    7e58:	ff6d                	bnez	a4,7e52 <strlen+0x2>
    7e5a:	40a78533          	sub	a0,a5,a0
    7e5e:	157d                	addi	a0,a0,-1
    7e60:	8082                	ret

00007e62 <strncmp>:
    7e62:	c215                	beqz	a2,7e86 <strncmp+0x24>
    7e64:	167d                	addi	a2,a2,-1
    7e66:	4701                	li	a4,0
    7e68:	00e507b3          	add	a5,a0,a4
    7e6c:	00e586b3          	add	a3,a1,a4
    7e70:	239c                	lbu	a5,0(a5)
    7e72:	2294                	lbu	a3,0(a3)
    7e74:	00d79663          	bne	a5,a3,7e80 <strncmp+0x1e>
    7e78:	00c70463          	beq	a4,a2,7e80 <strncmp+0x1e>
    7e7c:	0705                	addi	a4,a4,1
    7e7e:	f7ed                	bnez	a5,7e68 <strncmp+0x6>
    7e80:	40d78533          	sub	a0,a5,a3
    7e84:	8082                	ret
    7e86:	4501                	li	a0,0
    7e88:	8082                	ret
    7e8a:	0000                	unimp
    7e8c:	8954                	0x8954
    7e8e:	0000                	unimp
    7e90:	8968                	0x8968
    7e92:	0000                	unimp
    7e94:	8978                	0x8978
    7e96:	0000                	unimp
    7e98:	898c                	0x898c
    7e9a:	0000                	unimp
    7e9c:	8998                	0x8998
    7e9e:	0000                	unimp
    7ea0:	89a4                	0x89a4
    7ea2:	0000                	unimp
    7ea4:	89a8                	0x89a8
    7ea6:	0000                	unimp
    7ea8:	89b8                	0x89b8
    7eaa:	0000                	unimp
    7eac:	89c8                	0x89c8
    7eae:	0000                	unimp
    7eb0:	89d0                	0x89d0
    7eb2:	0000                	unimp
    7eb4:	89e4                	0x89e4
    7eb6:	0000                	unimp
    7eb8:	89f4                	0x89f4
    7eba:	0000                	unimp
    7ebc:	89fc                	0x89fc
    7ebe:	0000                	unimp
    7ec0:	8a08                	0x8a08
    7ec2:	0000                	unimp
    7ec4:	8a14                	0x8a14
    7ec6:	0000                	unimp
    7ec8:	8a28                	0x8a28
    7eca:	0000                	unimp
    7ecc:	8a30                	0x8a30
    7ece:	0000                	unimp
    7ed0:	8a40                	0x8a40
    7ed2:	0000                	unimp
    7ed4:	8a50                	0x8a50
    7ed6:	0000                	unimp
    7ed8:	8a68                	0x8a68
    7eda:	0000                	unimp
    7edc:	616d                	addi	sp,sp,240
    7ede:	6e69                	lui	t3,0x1a
    7ee0:	0000                	unimp
    7ee2:	0000                	unimp
    7ee4:	6f54                	flw	fa3,28(a4)
    7ee6:	6920                	flw	fs0,80(a0)
    7ee8:	696e                	flw	fs2,216(sp)
    7eea:	6974                	flw	fa3,84(a0)
    7eec:	6c61                	lui	s8,0x18
    7eee:	7a69                	lui	s4,0xffffa
    7ef0:	2065                	jal	7f98 <__lowest_bit_bitmap+0x74>
    7ef2:	6564                	flw	fs1,76(a0)
    7ef4:	6976                	flw	fs2,92(sp)
    7ef6:	253a6563          	bltu	s4,s3,8140 <__fsym_list_mem_desc+0x1c>
    7efa:	61662073          	csrs	0x616,a2
    7efe:	6c69                	lui	s8,0x1a
    7f00:	6465                	lui	s0,0x19
    7f02:	202e                	lhu	a1,2(s0)
    7f04:	6854                	flw	fa3,20(s0)
    7f06:	2065                	jal	7fae <__lowest_bit_bitmap+0x8a>
    7f08:	7265                	lui	tp,0xffff9
    7f0a:	6f72                	flw	ft10,28(sp)
    7f0c:	2072                	lhu	a2,6(s0)
    7f0e:	65646f63          	bltu	s0,s6,856c <__fsym_list_mem_name+0x428>
    7f12:	6920                	flw	fs0,80(a0)
    7f14:	64252073          	csrs	0x642,a0
    7f18:	000a                	c.slli	zero,0x2
    7f1a:	0000                	unimp
    7f1c:	6974                	flw	fa3,84(a0)
    7f1e:	6c64                	flw	fs1,92(s0)
    7f20:	0065                	c.nop	25
	...

00007f24 <__lowest_bit_bitmap>:
    7f24:	0000 0001 0002 0001 0003 0001 0002 0001     ................
    7f34:	0004 0001 0002 0001 0003 0001 0002 0001     ................
    7f44:	0005 0001 0002 0001 0003 0001 0002 0001     ................
    7f54:	0004 0001 0002 0001 0003 0001 0002 0001     ................
    7f64:	0006 0001 0002 0001 0003 0001 0002 0001     ................
    7f74:	0004 0001 0002 0001 0003 0001 0002 0001     ................
    7f84:	0005 0001 0002 0001 0003 0001 0002 0001     ................
    7f94:	0004 0001 0002 0001 0003 0001 0002 0001     ................
    7fa4:	0007 0001 0002 0001 0003 0001 0002 0001     ................
    7fb4:	0004 0001 0002 0001 0003 0001 0002 0001     ................
    7fc4:	0005 0001 0002 0001 0003 0001 0002 0001     ................
    7fd4:	0004 0001 0002 0001 0003 0001 0002 0001     ................
    7fe4:	0006 0001 0002 0001 0003 0001 0002 0001     ................
    7ff4:	0004 0001 0002 0001 0003 0001 0002 0001     ................
    8004:	0005 0001 0002 0001 0003 0001 0002 0001     ................
    8014:	0004 0001 0002 0001 0003 0001 0002 0001     ................

00008024 <large_digits.2585>:
    8024:	3130 3332 3534 3736 3938 4241 4443 4645     0123456789ABCDEF
    8034:	0000 0000 200a 205c 207c 0a2f 0000 0000     ..... \ | /.....
    8044:	202d 5452 2d20 2020 2020 5420 7268 6165     - RT -     Threa
    8054:	2064 704f 7265 7461 6e69 2067 7953 7473     d Operating Syst
    8064:	6d65 000a 614a 206e 3133 3220 3230 0033     em..Jan 31 2023.
    8074:	2f20 7c20 5c20 2020 2020 2520 2e64 6425      / | \     %d.%d
    8084:	252e 2064 7562 6c69 2064 7325 000a 0000     .%d build %s....
    8094:	3220 3030 2036 202d 3032 3931 4320 706f      2006 - 2019 Cop
    80a4:	7279 6769 7468 6220 2079 7472 742d 7268     yright by rt-thr
    80b4:	6165 2064 6574 6d61 000a 0000 4e28 4c55     ead team....(NUL
    80c4:	294c 0000                                   L)..

000080c8 <small_digits.2584>:
    80c8:	3130 3332 3534 3736 3938 6261 6463 6665     0123456789abcdef
    80d8:	0000 0000 6f74 6174 206c 656d 6f6d 7972     ....total memory
    80e8:	203a 6425 000a 0000 7375 6465 6d20 6d65     : %d....used mem
    80f8:	726f 2079 203a 6425 000a 0000 616d 6978     ory : %d....maxi
    8108:	756d 206d 6c61 6f6c 6163 6574 2064 656d     mum allocated me
    8118:	6f6d 7972 203a 6425 000a 0000               mory: %d....

00008124 <__fsym_list_mem_desc>:
    8124:	696c 7473 6d20 6d65 726f 2079 7375 6761     list memory usag
    8134:	2065 6e69 6f66 6d72 7461 6f69 006e 0000     e information...

00008144 <__fsym_list_mem_name>:
    8144:	696c 7473 6d5f 6d65 0000 0000 6f74 6620     list_mem....to f
    8154:	6572 2065 2061 6162 2064 6164 6174 6220     ree a bad data b
    8164:	6f6c 6b63 0a3a 0000 656d 3a6d 3020 2578     lock:...mem: 0x%
    8174:	3830 2c78 7520 6573 2064 6c66 6761 203a     08x, used flag: 
    8184:	6425 202c 616d 6967 2063 6f63 6564 203a     %d, magic code: 
    8194:	7830 3025 7834 000a 6568 7061 0000 0000     0x%04x..heap....
    81a4:	656d 206d 6e69 7469 202c 7265 6f72 2072     mem init, error 
    81b4:	6562 6967 206e 6461 7264 7365 2073 7830     begin address 0x
    81c4:	7825 202c 6e61 2064 6e65 2064 6461 7264     %x, and end addr
    81d4:	7365 2073 7830 7825 000a 0000 5b1b 4a32     ess 0x%x.....[2J
    81e4:	5b1b 0048 2d2d 7546 636e 6974 6e6f 4c20     .[H.--Function L
    81f4:	7369 3a74 000a 0000 5f5f 0000 2d25 3631     ist:....__..%-16
    8204:	2073 2d2d 2520 0a73 0000 0000 6564 6976     s -- %s.....devi
    8214:	6563 0000 2d25 2e2a 2073 2020 2020 2020     ce..%-*.s       
    8224:	2020 7974 6570 2020 2020 2020 2020 7220       type         r
    8234:	6665 6320 756f 746e 000a 0000 2d20 2d2d     ef count.... ---
    8244:	2d2d 2d2d 2d2d 2d2d 2d2d 2d2d 2d2d 2d2d     ----------------
    8254:	202d 2d2d 2d2d 2d2d 2d2d 2d2d 000a 0000     - ----------....
    8264:	2d25 2e2a 732a 2520 322d 7330 2520 382d     %-*.*s %-20s %-8
    8274:	0a64 0000 7665 6e65 0074 0000 2d25 2e2a     d...event...%-*.
    8284:	2073 2020 2020 7320 7465 2020 2020 7573     s      set    su
    8294:	7073 6e65 2064 6874 6572 6461 000a 0000     spend thread....
    82a4:	2020 2d2d 2d2d 2d2d 2d2d 2d2d 2d20 2d2d       ---------- ---
    82b4:	2d2d 2d2d 2d2d 2d2d 2d2d 0a2d 0000 0000     -----------.....
    82c4:	2d25 2e2a 732a 2020 7830 3025 7838 2520     %-*.*s  0x%08x %
    82d4:	3330 3a64 0000 0000 2d25 2e2a 732a 2020     03d:....%-*.*s  
    82e4:	7830 3025 7838 3020 000a 0000 616d 6c69     0x%08x 0....mail
    82f4:	6f62 0078 2d25 2e2a 2073 6e65 7274 2079     box.%-*.s entry 
    8304:	6973 657a 7320 7375 6570 646e 7420 7268     size suspend thr
    8314:	6165 0a64 0000 0000 2d20 2d2d 202d 2d20     ead..... ----  -
    8324:	2d2d 202d 2d2d 2d2d 2d2d 2d2d 2d2d 2d2d     --- ------------
    8334:	2d2d 000a 2d25 2e2a 732a 2520 3430 2064     --..%-*.*s %04d 
    8344:	2520 3430 2064 6425 003a 0000 2d25 2e2a      %04d %d:...%-*.
    8354:	732a 2520 3430 2064 2520 3430 2064 6425     *s %04d  %04d %d
    8364:	000a 0000 736d 7167 6575 6575 0000 0000     ....msgqueue....
    8374:	2d25 2e2a 2073 6e65 7274 2079 7573 7073     %-*.s entry susp
    8384:	6e65 2064 6874 6572 6461 000a 2d20 2d2d     end thread.. ---
    8394:	202d 2d20 2d2d 2d2d 2d2d 2d2d 2d2d 2d2d     -  -------------
    83a4:	0a2d 0000 2d25 2e2a 732a 2520 3430 2064     -...%-*.*s %04d 
    83b4:	2520 3a64 0000 0000 2d25 2e2a 732a 2520      %d:....%-*.*s %
    83c4:	3430 2064 2520 0a64 0000 0000 756d 6574     04d  %d.....mute
    83d4:	0078 0000 2d25 2e2a 2073 2020 776f 656e     x...%-*.s   owne
    83e4:	2072 6820 6c6f 2064 7573 7073 6e65 2064     r  hold suspend 
    83f4:	6874 6572 6461 000a 2d20 2d2d 2d2d 2d2d     thread.. -------
    8404:	202d 2d2d 2d2d 2d20 2d2d 2d2d 2d2d 2d2d     - ---- ---------
    8414:	2d2d 2d2d 0a2d 0000 2d25 2e2a 732a 2520     -----...%-*.*s %
    8424:	382d 2a2e 2073 3025 6434 2520 0a64 0000     -8.*s %04d %d...
    8434:	6573 616d 6870 726f 0065 0000 2d25 2e2a     semaphore...%-*.
    8444:	2073 2076 2020 7573 7073 6e65 2064 6874     s v   suspend th
    8454:	6572 6461 000a 0000 2d20 2d2d 2d20 2d2d     read.... --- ---
    8464:	2d2d 2d2d 2d2d 2d2d 2d2d 0a2d 0000 0000     -----------.....
    8474:	2d25 2e2a 732a 2520 3330 2064 6425 003a     %-*.*s %03d %d:.
    8484:	2d25 2e2a 732a 2520 3330 2064 6425 000a     %-*.*s %03d %d..
    8494:	6874 6572 6461 0000 2d25 2e2a 2073 7270     thread..%-*.s pr
    84a4:	2069 7320 6174 7574 2073 2020 2020 7320     i  status      s
    84b4:	2070 2020 2020 7473 6361 206b 6973 657a     p     stack size
    84c4:	6d20 7861 7520 6573 2064 656c 7466 7420      max used left t
    84d4:	6369 206b 6520 7272 726f 000a 2d20 2d2d     ick  error.. ---
    84e4:	2020 2d2d 2d2d 2d2d 202d 2d2d 2d2d 2d2d       ------- ------
    84f4:	2d2d 2d2d 2d20 2d2d 2d2d 2d2d 2d2d 202d     ---- ---------- 
    8504:	2d20 2d2d 2d2d 202d 2d20 2d2d 2d2d 2d2d      ------  -------
    8514:	2d2d 202d 2d2d 0a2d 0000 0000 2d25 2e2a     --- ---.....%-*.
    8524:	732a 2520 6433 0020 7220 6165 7964 2020     *s %3d . ready  
    8534:	0000 0000 7320 7375 6570 646e 0000 0000     .... suspend....
    8544:	6920 696e 2074 2020 0000 0000 6320 6f6c      init   .... clo
    8554:	6573 2020 0000 0000 3020 2578 3830 2078     se  .... 0x%08x 
    8564:	7830 3025 7838 2020 2020 3025 6432 2525     0x%08x    %02d%%
    8574:	2020 3020 2578 3830 2078 3025 6433 000a        0x%08x %03d..
    8584:	6974 656d 0072 0000 2d25 2e2a 2073 7020     timer...%-*.s  p
    8594:	7265 6f69 6964 2063 2020 6974 656d 756f     eriodic   timeou
    85a4:	2074 2020 2020 2020 6c66 6761 000a 0000     t       flag....
    85b4:	2d20 2d2d 2d2d 2d2d 2d2d 202d 2d2d 2d2d      ---------- ----
    85c4:	2d2d 2d2d 2d2d 2d20 2d2d 2d2d 2d2d 2d2d     ------ ---------
    85d4:	2d2d 000a 2d25 2e2a 732a 3020 2578 3830     --..%-*.*s 0x%08
    85e4:	2078 7830 3025 7838 0020 0000 6361 6974     x 0x%08x ...acti
    85f4:	6176 6574 0a64 0000 6564 6361 6974 6176     vated...deactiva
    8604:	6574 0a64 0000 0000 7563 7272 6e65 2074     ted.....current 
    8614:	6974 6b63 303a 2578 3830 0a78 0000 0000     tick:0x%08x.....

00008624 <__fsym_list_desc>:
    8624:	696c 7473 6120 6c6c 7320 6d79 6f62 206c     list all symbol 
    8634:	6e69 7320 7379 6574 006d 0000               in system...

00008640 <__fsym_list_name>:
    8640:	696c 7473 0000 0000                         list....

00008648 <__fsym___cmd_list_device_desc>:
    8648:	696c 7473 6420 7665 6369 2065 6e69 7320     list device in s
    8658:	7379 6574 006d 0000                         ystem...

00008660 <__fsym___cmd_list_device_name>:
    8660:	5f5f 6d63 5f64 696c 7473 645f 7665 6369     __cmd_list_devic
    8670:	0065 0000                                   e...

00008674 <__fsym_list_device_desc>:
    8674:	696c 7473 6420 7665 6369 2065 6e69 7320     list device in s
    8684:	7379 6574 006d 0000                         ystem...

0000868c <__fsym_list_device_name>:
    868c:	696c 7473 645f 7665 6369 0065               list_device.

00008698 <__fsym___cmd_list_timer_desc>:
    8698:	696c 7473 7420 6d69 7265 6920 206e 7973     list timer in sy
    86a8:	7473 6d65 0000 0000                         stem....

000086b0 <__fsym___cmd_list_timer_name>:
    86b0:	5f5f 6d63 5f64 696c 7473 745f 6d69 7265     __cmd_list_timer
    86c0:	0000 0000                                   ....

000086c4 <__fsym_list_timer_desc>:
    86c4:	696c 7473 7420 6d69 7265 6920 206e 7973     list timer in sy
    86d4:	7473 6d65 0000 0000                         stem....

000086dc <__fsym_list_timer_name>:
    86dc:	696c 7473 745f 6d69 7265 0000               list_timer..

000086e8 <__fsym___cmd_list_msgqueue_desc>:
    86e8:	696c 7473 6d20 7365 6173 6567 7120 6575     list message que
    86f8:	6575 6920 206e 7973 7473 6d65 0000 0000     ue in system....

00008708 <__fsym___cmd_list_msgqueue_name>:
    8708:	5f5f 6d63 5f64 696c 7473 6d5f 6773 7571     __cmd_list_msgqu
    8718:	7565 0065                                   eue.

0000871c <__fsym_list_msgqueue_desc>:
    871c:	696c 7473 6d20 7365 6173 6567 7120 6575     list message que
    872c:	6575 6920 206e 7973 7473 6d65 0000 0000     ue in system....

0000873c <__fsym_list_msgqueue_name>:
    873c:	696c 7473 6d5f 6773 7571 7565 0065 0000     list_msgqueue...

0000874c <__fsym___cmd_list_mailbox_desc>:
    874c:	696c 7473 6d20 6961 206c 6f62 2078 6e69     list mail box in
    875c:	7320 7379 6574 006d                          system.

00008764 <__fsym___cmd_list_mailbox_name>:
    8764:	5f5f 6d63 5f64 696c 7473 6d5f 6961 626c     __cmd_list_mailb
    8774:	786f 0000                                   ox..

00008778 <__fsym_list_mailbox_desc>:
    8778:	696c 7473 6d20 6961 206c 6f62 2078 6e69     list mail box in
    8788:	7320 7379 6574 006d                          system.

00008790 <__fsym_list_mailbox_name>:
    8790:	696c 7473 6d5f 6961 626c 786f 0000 0000     list_mailbox....

000087a0 <__fsym___cmd_list_mutex_desc>:
    87a0:	696c 7473 6d20 7475 7865 6920 206e 7973     list mutex in sy
    87b0:	7473 6d65 0000 0000                         stem....

000087b8 <__fsym___cmd_list_mutex_name>:
    87b8:	5f5f 6d63 5f64 696c 7473 6d5f 7475 7865     __cmd_list_mutex
    87c8:	0000 0000                                   ....

000087cc <__fsym_list_mutex_desc>:
    87cc:	696c 7473 6d20 7475 7865 6920 206e 7973     list mutex in sy
    87dc:	7473 6d65 0000 0000                         stem....

000087e4 <__fsym_list_mutex_name>:
    87e4:	696c 7473 6d5f 7475 7865 0000               list_mutex..

000087f0 <__fsym___cmd_list_event_desc>:
    87f0:	696c 7473 6520 6576 746e 6920 206e 7973     list event in sy
    8800:	7473 6d65 0000 0000                         stem....

00008808 <__fsym___cmd_list_event_name>:
    8808:	5f5f 6d63 5f64 696c 7473 655f 6576 746e     __cmd_list_event
    8818:	0000 0000                                   ....

0000881c <__fsym_list_event_desc>:
    881c:	696c 7473 6520 6576 746e 6920 206e 7973     list event in sy
    882c:	7473 6d65 0000 0000                         stem....

00008834 <__fsym_list_event_name>:
    8834:	696c 7473 655f 6576 746e 0000               list_event..

00008840 <__fsym___cmd_list_sem_desc>:
    8840:	696c 7473 7320 6d65 7061 6f68 6572 6920     list semaphore i
    8850:	206e 7973 7473 6d65 0000 0000               n system....

0000885c <__fsym___cmd_list_sem_name>:
    885c:	5f5f 6d63 5f64 696c 7473 735f 6d65 0000     __cmd_list_sem..

0000886c <__fsym_list_sem_desc>:
    886c:	696c 7473 7320 6d65 7061 6f68 656e 6920     list semaphone i
    887c:	206e 7973 7473 6d65 0000 0000               n system....

00008888 <__fsym_list_sem_name>:
    8888:	696c 7473 735f 6d65 0000 0000               list_sem....

00008894 <__fsym___cmd_list_thread_desc>:
    8894:	696c 7473 7420 7268 6165 0064               list thread.

000088a0 <__fsym___cmd_list_thread_name>:
    88a0:	5f5f 6d63 5f64 696c 7473 745f 7268 6165     __cmd_list_threa
    88b0:	0064 0000                                   d...

000088b4 <__fsym_list_thread_desc>:
    88b4:	696c 7473 7420 7268 6165 0064               list thread.

000088c0 <__fsym_list_thread_name>:
    88c0:	696c 7473 745f 7268 6165 0064               list_thread.

000088cc <__fsym___cmd_clear_desc>:
    88cc:	6874 2065 6574 6d72 6e69 6c61 7320 7263     the terminal scr
    88dc:	6565 006e                                   een.

000088e0 <__fsym___cmd_clear_name>:
    88e0:	5f5f 6d63 5f64 6c63 6165 0072               __cmd_clear.

000088ec <__fsym_clear_desc>:
    88ec:	6874 2065 6574 6d72 6e69 6c61 7320 7263     the terminal scr
    88fc:	6565 006e                                   een.

00008900 <__fsym_clear_name>:
    8900:	6c63 6165 0072 0000                         clear...

00008908 <__fsym___cmd_reboot_desc>:
    8908:	6572 6f62 746f 7420 6568 6220 616f 6472     reboot the board
    8918:	0000 0000                                   ....

0000891c <__fsym___cmd_reboot_name>:
    891c:	5f5f 6d63 5f64 6572 6f62 746f 0000 0000     __cmd_reboot....

0000892c <__fsym_reboot_desc>:
    892c:	6572 6f62 746f 7420 6568 6220 616f 6472     reboot the board
    893c:	0000 0000                                   ....

00008940 <__fsym_reboot_name>:
    8940:	6572 6f62 746f 0000 002d 0000 7325 0000     reboot..-...%s..
    8950:	002f 0000 6843 7261 6361 6574 2072 6544     /...Character De
    8960:	6976 6563 0000 0000 6c42 636f 206b 6544     vice....Block De
    8970:	6976 6563 0000 0000 654e 7774 726f 206b     vice....Network 
    8980:	6e49 6574 6672 6361 0065 0000 544d 2044     Interface...MTD 
    8990:	6544 6976 6563 0000 4143 204e 6544 6976     Device..CAN Devi
    89a0:	6563 0000 5452 0043 6f53 6e75 2064 6544     ce..RTC.Sound De
    89b0:	6976 6563 0000 0000 7247 7061 6968 2063     vice....Graphic 
    89c0:	6544 6976 6563 0000 3249 2043 7542 0073     Device..I2C Bus.
    89d0:	5355 2042 6c53 7661 2065 6544 6976 6563     USB Slave Device
    89e0:	0000 0000 5355 2042 6f48 7473 4220 7375     ....USB Host Bus
    89f0:	0000 0000 5053 2049 7542 0073 5053 2049     ....SPI Bus.SPI 
    8a00:	6544 6976 6563 0000 4453 4f49 4220 7375     Device..SDIO Bus
    8a10:	0000 0000 4d50 5020 6573 6475 206f 6544     ....PM Pseudo De
    8a20:	6976 6563 0000 0000 6950 6570 0000 0000     vice....Pipe....
    8a30:	6f50 7472 6c61 4420 7665 6369 0065 0000     Portal Device...
    8a40:	6954 656d 2072 6544 6976 6563 0000 0000     Timer Device....
    8a50:	694d 6373 6c65 616c 656e 756f 2073 6544     Miscellaneous De
    8a60:	6976 6563 0000 0000 6e55 6e6b 776f 006e     vice....Unknown.
    8a70:	6f54 206f 616d 796e 6120 6772 2073 2021     Too many args ! 
    8a80:	6557 6f20 6c6e 2079 7355 3a65 000a 0000     We only Use:....
    8a90:	7325 0020 7325 203a 6f63 6d6d 6e61 2064     %s .%s: command 
    8aa0:	6f6e 2074 6f66 6e75 2e64 000a 5452 542d     not found...RT-T
    8ab0:	7268 6165 2064 6873 6c65 206c 6f63 6d6d     hread shell comm
    8ac0:	6e61 7364 0a3a 0000 5f5f 6d63 5f64 0000     ands:...__cmd_..
    8ad0:	2d25 3631 2073 202d 7325 000a               %-16s - %s..

00008adc <__fsym___cmd_help_desc>:
    8adc:	5452 542d 7268 6165 2064 6873 6c65 206c     RT-Thread shell 
    8aec:	6568 706c 0000 0000                         help....

00008af4 <__fsym___cmd_help_name>:
    8af4:	5f5f 6d63 5f64 6568 706c 0000               __cmd_help..

00008b00 <__fsym___cmd_free_desc>:
    8b00:	6853 776f 7420 6568 6d20 6d65 726f 2079     Show the memory 
    8b10:	7375 6761 2065 6e69 7420 6568 7320 7379     usage in the sys
    8b20:	6574 006d                                   tem.

00008b24 <__fsym___cmd_free_name>:
    8b24:	5f5f 6d63 5f64 7266 6565 0000               __cmd_free..

00008b30 <__fsym___cmd_ps_desc>:
    8b30:	694c 7473 7420 7268 6165 7364 6920 206e     List threads in 
    8b40:	6874 2065 7973 7473 6d65 0000               the system..

00008b4c <__fsym___cmd_ps_name>:
    8b4c:	5f5f 6d63 5f64 7370 0000 0000 736d 2068     __cmd_ps....msh 
    8b5c:	0000 0000 6966 736e 2068 0000 003e 0000     ....finsh ..>...
    8b6c:	6966 736e 3a68 6320 6e61 6e20 746f 6620     finsh: can not f
    8b7c:	6e69 2064 6564 6976 6563 203a 7325 000a     ind device: %s..
    8b8c:	6f6e 6d20 6d65 726f 2079 6f66 2072 6873     no memory for sh
    8b9c:	6c65 0a6c 0000 0000 7374 6568 6c6c 0000     ell.....tshell..
    8bac:	6873 7872 0000 0000 0008 0000 6325 0000     shrx........%c..
    8bbc:	2508 2073 0820 0000 2008 0008 5b1b 4b32     .%s  .... ...[2K
    8bcc:	000d 0000 7325 7325 0000 0000               ....%s%s....

00008bd8 <__fsym_pinRead_desc>:
    8bd8:	6572 6461 7320 6174 7574 2073 7266 6d6f     read status from
    8be8:	6820 7261 7764 7261 2065 6970 006e 0000      hardware pin...

00008bf8 <__fsym_pinRead_name>:
    8bf8:	6970 526e 6165 0064                         pinRead.

00008c00 <__fsym_pinWrite_desc>:
    8c00:	7277 7469 2065 6176 756c 2065 6f74 6820     write value to h
    8c10:	7261 7764 7261 2065 6970 006e               ardware pin.

00008c1c <__fsym_pinWrite_name>:
    8c1c:	6970 576e 6972 6574 0000 0000               pinWrite....

00008c28 <__fsym_pinMode_desc>:
    8c28:	6573 2074 6168 6472 6177 6572 7020 6e69     set hardware pin
    8c38:	6d20 646f 0065 0000                          mode...

00008c40 <__fsym_pinMode_name>:
    8c40:	6970 4d6e 646f 0065 6175 7472 0031 0000     pinMode.uart1...

00008c50 <_ch32_pin_ops>:
    8c50:	3194 0000 3154 0000 3176 0000 3212 0000     .1..T1..v1...2..
    8c60:	32a4 0000 32fe 0000                         .2...2..

00008c68 <pin_irq_map>:
    8c68:	0001 0000 0016 0000 0002 0000 0017 0000     ................
    8c78:	0004 0000 0018 0000 0008 0000 0019 0000     ................
    8c88:	0010 0000 001a 0000 0020 0000 0027 0000     ........ ...'...
    8c98:	0040 0000 0027 0000 0080 0000 0027 0000     @...'.......'...
    8ca8:	0100 0000 0027 0000 0200 0000 0027 0000     ....'.......'...
    8cb8:	0400 0000 0038 0000 0800 0000 0038 0000     ....8.......8...
    8cc8:	1000 0000 0038 0000 2000 0000 0038 0000     ....8.... ..8...
    8cd8:	4000 0000 0038 0000 8000 0000 0038 0000     .@..8.......8...

00008ce8 <pins>:
    8ce8:	ffff ffff 0000 0000 0000 0000 0000 0000     ................
    8cf8:	0001 0000 3106 0000 1800 4001 0004 0000     .....1.....@....
    8d08:	0002 0000 3106 0000 1800 4001 0008 0000     .....1.....@....
    8d18:	0003 0000 3106 0000 1800 4001 0010 0000     .....1.....@....
    8d28:	0004 0000 3106 0000 1800 4001 0020 0000     .....1.....@ ...
    8d38:	0005 0000 3106 0000 1800 4001 0040 0000     .....1.....@@...
    8d48:	ffff ffff 0000 0000 0000 0000 0000 0000     ................
    8d58:	0007 0000 30f6 0000 1000 4001 2000 0000     .....0.....@. ..
    8d68:	0008 0000 30f6 0000 1000 4001 4000 0000     .....0.....@.@..
    8d78:	0009 0000 30f6 0000 1000 4001 8000 0000     .....0.....@....
    8d88:	ffff ffff 0000 0000 0000 0000 0000 0000     ................
    8d98:	ffff ffff 0000 0000 0000 0000 0000 0000     ................
    8da8:	ffff ffff 0000 0000 0000 0000 0000 0000     ................
    8db8:	ffff ffff 0000 0000 0000 0000 0000 0000     ................
    8dc8:	ffff ffff 0000 0000 0000 0000 0000 0000     ................
    8dd8:	000f 0000 30f6 0000 1000 4001 0001 0000     .....0.....@....
    8de8:	0010 0000 30f6 0000 1000 4001 0002 0000     .....0.....@....
    8df8:	0011 0000 30f6 0000 1000 4001 0004 0000     .....0.....@....
    8e08:	0012 0000 30f6 0000 1000 4001 0008 0000     .....0.....@....
    8e18:	ffff ffff 0000 0000 0000 0000 0000 0000     ................
    8e28:	ffff ffff 0000 0000 0000 0000 0000 0000     ................
    8e38:	ffff ffff 0000 0000 0000 0000 0000 0000     ................
    8e48:	ffff ffff 0000 0000 0000 0000 0000 0000     ................
    8e58:	0017 0000 30e6 0000 0800 4001 0001 0000     .....0.....@....
    8e68:	0018 0000 30e6 0000 0800 4001 0002 0000     .....0.....@....
    8e78:	0019 0000 30e6 0000 0800 4001 0004 0000     .....0.....@....
    8e88:	001a 0000 30e6 0000 0800 4001 0008 0000     .....0.....@....
    8e98:	ffff ffff 0000 0000 0000 0000 0000 0000     ................
    8ea8:	ffff ffff 0000 0000 0000 0000 0000 0000     ................
    8eb8:	001d 0000 30e6 0000 0800 4001 0010 0000     .....0.....@....
    8ec8:	001e 0000 30e6 0000 0800 4001 0020 0000     .....0.....@ ...
    8ed8:	001f 0000 30e6 0000 0800 4001 0040 0000     .....0.....@@...
    8ee8:	0020 0000 30e6 0000 0800 4001 0080 0000      ....0.....@....
    8ef8:	0021 0000 30f6 0000 1000 4001 0010 0000     !....0.....@....
    8f08:	0022 0000 30f6 0000 1000 4001 0020 0000     "....0.....@ ...
    8f18:	0023 0000 30d6 0000 0c00 4001 0001 0000     #....0.....@....
    8f28:	0024 0000 30d6 0000 0c00 4001 0002 0000     $....0.....@....
    8f38:	0025 0000 30d6 0000 0c00 4001 0004 0000     %....0.....@....
    8f48:	0026 0000 3106 0000 1800 4001 0080 0000     &....1.....@....
    8f58:	0027 0000 3106 0000 1800 4001 0100 0000     '....1.....@....
    8f68:	0028 0000 3106 0000 1800 4001 0200 0000     (....1.....@....
    8f78:	0029 0000 3106 0000 1800 4001 0400 0000     )....1.....@....
    8f88:	002a 0000 3106 0000 1800 4001 0800 0000     *....1.....@....
    8f98:	002b 0000 3106 0000 1800 4001 1000 0000     +....1.....@....
    8fa8:	002c 0000 3106 0000 1800 4001 2000 0000     ,....1.....@. ..
    8fb8:	002d 0000 3106 0000 1800 4001 4000 0000     -....1.....@.@..
    8fc8:	002e 0000 3106 0000 1800 4001 8000 0000     .....1.....@....
    8fd8:	002f 0000 30d6 0000 0c00 4001 0400 0000     /....0.....@....
    8fe8:	0030 0000 30d6 0000 0c00 4001 0800 0000     0....0.....@....
    8ff8:	ffff ffff 0000 0000 0000 0000 0000 0000     ................
    9008:	ffff ffff 0000 0000 0000 0000 0000 0000     ................
    9018:	0033 0000 30d6 0000 0c00 4001 1000 0000     3....0.....@....
    9028:	0034 0000 30d6 0000 0c00 4001 2000 0000     4....0.....@. ..
    9038:	0035 0000 30d6 0000 0c00 4001 4000 0000     5....0.....@.@..
    9048:	0036 0000 30d6 0000 0c00 4001 8000 0000     6....0.....@....
    9058:	0037 0000 30c4 0000 1400 4001 0100 0000     7....0.....@....
    9068:	0038 0000 30c4 0000 1400 4001 0200 0000     8....0.....@....
    9078:	0039 0000 30c4 0000 1400 4001 0400 0000     9....0.....@....
    9088:	003a 0000 30c4 0000 1400 4001 0800 0000     :....0.....@....
    9098:	003b 0000 30c4 0000 1400 4001 1000 0000     ;....0.....@....
    90a8:	003c 0000 30c4 0000 1400 4001 2000 0000     <....0.....@. ..
    90b8:	003d 0000 30c4 0000 1400 4001 4000 0000     =....0.....@.@..
    90c8:	003e 0000 30c4 0000 1400 4001 8000 0000     >....0.....@....
    90d8:	003f 0000 30f6 0000 1000 4001 0040 0000     ?....0.....@@...
    90e8:	0040 0000 30f6 0000 1000 4001 0080 0000     @....0.....@....
    90f8:	0041 0000 30f6 0000 1000 4001 0100 0000     A....0.....@....
    9108:	0042 0000 30f6 0000 1000 4001 0200 0000     B....0.....@....
    9118:	0043 0000 30e6 0000 0800 4001 0100 0000     C....0.....@....
    9128:	0044 0000 30e6 0000 0800 4001 0200 0000     D....0.....@....
    9138:	0045 0000 30e6 0000 0800 4001 0400 0000     E....0.....@....
    9148:	0046 0000 30e6 0000 0800 4001 0800 0000     F....0.....@....
    9158:	0047 0000 30e6 0000 0800 4001 1000 0000     G....0.....@....
    9168:	0048 0000 30e6 0000 0800 4001 2000 0000     H....0.....@. ..
    9178:	ffff ffff 0000 0000 0000 0000 0000 0000     ................
    9188:	ffff ffff 0000 0000 0000 0000 0000 0000     ................
    9198:	ffff ffff 0000 0000 0000 0000 0000 0000     ................
    91a8:	004c 0000 30e6 0000 0800 4001 4000 0000     L....0.....@.@..
    91b8:	004d 0000 30e6 0000 0800 4001 8000 0000     M....0.....@....
    91c8:	004e 0000 30f6 0000 1000 4001 0400 0000     N....0.....@....
    91d8:	004f 0000 30f6 0000 1000 4001 0800 0000     O....0.....@....
    91e8:	0050 0000 30f6 0000 1000 4001 1000 0000     P....0.....@....
    91f8:	0051 0000 30c4 0000 1400 4001 0001 0000     Q....0.....@....
    9208:	0052 0000 30c4 0000 1400 4001 0002 0000     R....0.....@....
    9218:	0053 0000 30c4 0000 1400 4001 0004 0000     S....0.....@....
    9228:	0054 0000 30c4 0000 1400 4001 0008 0000     T....0.....@....
    9238:	0055 0000 30c4 0000 1400 4001 0010 0000     U....0.....@....
    9248:	0056 0000 30c4 0000 1400 4001 0020 0000     V....0.....@ ...
    9258:	0057 0000 30c4 0000 1400 4001 0040 0000     W....0.....@@...
    9268:	0058 0000 30c4 0000 1400 4001 0080 0000     X....0.....@....
    9278:	0059 0000 30d6 0000 0c00 4001 0008 0000     Y....0.....@....
    9288:	005a 0000 30d6 0000 0c00 4001 0010 0000     Z....0.....@....
    9298:	005b 0000 30d6 0000 0c00 4001 0020 0000     [....0.....@ ...
    92a8:	005c 0000 30d6 0000 0c00 4001 0040 0000     \....0.....@@...
    92b8:	005d 0000 30d6 0000 0c00 4001 0080 0000     ]....0.....@....
    92c8:	ffff ffff 0000 0000 0000 0000 0000 0000     ................
    92d8:	005f 0000 30d6 0000 0c00 4001 0100 0000     _....0.....@....
    92e8:	0060 0000 30d6 0000 0c00 4001 0200 0000     `....0.....@....
    92f8:	0061 0000 3106 0000 1800 4001 0001 0000     a....1.....@....
    9308:	0062 0000 3106 0000 1800 4001 0002 0000     b....1.....@....
    9318:	ffff ffff 0000 0000 0000 0000 0000 0000     ................
    9328:	ffff ffff 0000 0000 0000 0000 0000 0000     ................
    9338:	6970 006e                                   pin.

0000933c <ch32_uart_ops>:
    933c:	388e 0000 3a64 0000 3a42 0000 3a20 0000     .8..d:..B:.. :..
    934c:	388a 0000 6820 7261 6664 6c75 0d74 000a     .8.. hardfult...
    935c:	4e20 494d 4820 6e61 6c64 7265 0a0d 0000      NMI Handler....
    936c:	0000 43fa 0000 41a0 d70a 3c23 d70a bc23     ...C...A..#<..#.
    937c:	0000 c1a0 0a92 3d86 3333 3f73 6666 3ee6     .......=33s?ff.>
    938c:	0000 447a 999a 9999 9999 3fb9 cccd cccc     ..zD.......?....
    939c:	cccc 3fec 7953 7473 6d65 6c43 3a6b 6425     ...?SystemClk:%d
    93ac:	0a0d 0000 7544 6c61 4420 4341 4720 6e65     ....Dual DAC Gen
    93bc:	7265 7461 6f69 206e 6554 7473 0a0d 0000     eration Test....
    93cc:	6954 6b63 2520 756c 203a 7566 6c6c 3d20     Tick %lu: full =
    93dc:	2520 756c 6820 6c61 2066 203d 6c25 2075      %lu half = %lu 
    93ec:	6461 2063 203d 6c25 0a75 0000 2d18 5444     adc = %lu....-DT
    93fc:	21fb 4009 0000 0000 7000 40f7 e000 44ff     .!.@.....p.@...D
    940c:	0000 0000 2d18 5444 21fb 4019 0f80 3fc9     .....-DT.!.@...?
    941c:	4443 3735 4400 3735 a308 2e85 f984 3f22     CD57.D57......"?
    942c:	0000 3f00 a300 2e85 3132 248d 0000 4380     ...?....21.$...C

0000943c <npio2_hw>:
    943c:	0f00 3fc9 0f00 4049 cb00 4096 0f00 40c9     ...?..I@...@...@
    944c:	5300 40fb cb00 4116 ed00 412f 0f00 4149     .S.@...A../A..IA
    945c:	3100 4162 5300 417b 3a00 418a cb00 4196     .1bA.S{A.:.A...A
    946c:	5c00 41a3 ed00 41af 7e00 41bc 0f00 41c9     .\.A...A.~.A...A
    947c:	a000 41d5 3100 41e2 c200 41ee 5300 41fb     ...A.1.A...A.S.A
    948c:	f200 4203 3a00 420a 8300 4210 cb00 4216     ...B.:.B...B...B
    949c:	1400 421d 5c00 4223 a500 4229 ed00 422f     ...B.\#B..)B../B
    94ac:	3600 4236 7e00 423c c700 4242 0f00 4249     .66B.~<B..BB..IB

000094bc <two_over_pi>:
    94bc:	00a2 0000 00f9 0000 0083 0000 006e 0000     ............n...
    94cc:	004e 0000 0044 0000 0015 0000 0029 0000     N...D.......)...
    94dc:	00fc 0000 0027 0000 0057 0000 00d1 0000     ....'...W.......
    94ec:	00f5 0000 0034 0000 00dd 0000 00c0 0000     ....4...........
    94fc:	00db 0000 0062 0000 0095 0000 0099 0000     ....b...........
    950c:	003c 0000 0043 0000 0090 0000 0041 0000     <...C.......A...
    951c:	00fe 0000 0051 0000 0063 0000 00ab 0000     ....Q...c.......
    952c:	00de 0000 00bb 0000 00c5 0000 0061 0000     ............a...
    953c:	00b7 0000 0024 0000 006e 0000 003a 0000     ....$...n...:...
    954c:	0042 0000 004d 0000 00d2 0000 00e0 0000     B...M...........
    955c:	0006 0000 0049 0000 002e 0000 00ea 0000     ....I...........
    956c:	0009 0000 00d1 0000 0092 0000 001c 0000     ................
    957c:	00fe 0000 001d 0000 00eb 0000 001c 0000     ................
    958c:	00b1 0000 0029 0000 00a7 0000 003e 0000     ....).......>...
    959c:	00e8 0000 0082 0000 0035 0000 00f5 0000     ........5.......
    95ac:	002e 0000 00bb 0000 0044 0000 0084 0000     ........D.......
    95bc:	00e9 0000 009c 0000 0070 0000 0026 0000     ........p...&...
    95cc:	00b4 0000 005f 0000 007e 0000 0041 0000     ...._...~...A...
    95dc:	0039 0000 0091 0000 00d6 0000 0039 0000     9...........9...
    95ec:	0083 0000 0053 0000 0039 0000 00f4 0000     ....S...9.......
    95fc:	009c 0000 0084 0000 005f 0000 008b 0000     ........_.......
    960c:	00bd 0000 00f9 0000 0028 0000 003b 0000     ........(...;...
    961c:	001f 0000 00f8 0000 0097 0000 00ff 0000     ................
    962c:	00de 0000 0005 0000 0098 0000 000f 0000     ................
    963c:	00ef 0000 002f 0000 0011 0000 008b 0000     ..../...........
    964c:	005a 0000 000a 0000 006d 0000 001f 0000     Z.......m.......
    965c:	006d 0000 0036 0000 007e 0000 00cf 0000     m...6...~.......
    966c:	0027 0000 00cb 0000 0009 0000 00b7 0000     '...............
    967c:	004f 0000 0046 0000 003f 0000 0066 0000     O...F...?...f...
    968c:	009e 0000 005f 0000 00ea 0000 002d 0000     ...._.......-...
    969c:	0075 0000 0027 0000 00ba 0000 00c7 0000     u...'...........
    96ac:	00eb 0000 00e5 0000 00f1 0000 007b 0000     ............{...
    96bc:	003d 0000 0007 0000 0039 0000 00f7 0000     =.......9.......
    96cc:	008a 0000 0052 0000 0092 0000 00ea 0000     ....R...........
    96dc:	006b 0000 00fb 0000 005f 0000 00b1 0000     k......._.......
    96ec:	001f 0000 008d 0000 005d 0000 0008 0000     ........].......
    96fc:	0056 0000 0003 0000 0030 0000 0046 0000     V.......0...F...
    970c:	00fc 0000 007b 0000 006b 0000 00ab 0000     ....{...k.......
    971c:	00f0 0000 00cf 0000 00bc 0000 0020 0000     ............ ...
    972c:	009a 0000 00f4 0000 0036 0000 001d 0000     ........6.......
    973c:	00a9 0000 00e3 0000 0091 0000 0061 0000     ............a...
    974c:	005e 0000 00e6 0000 001b 0000 0008 0000     ^...............
    975c:	0065 0000 0099 0000 0085 0000 005f 0000     e..........._...
    976c:	0014 0000 00a0 0000 0068 0000 0040 0000     ........h...@...
    977c:	008d 0000 00ff 0000 00d8 0000 0080 0000     ................
    978c:	004d 0000 0073 0000 0027 0000 0031 0000     M...s...'...1...
    979c:	0006 0000 0006 0000 0015 0000 0056 0000     ............V...
    97ac:	00ca 0000 0073 0000 00a8 0000 00c9 0000     ....s...........
    97bc:	0060 0000 00e2 0000 007b 0000 00c0 0000     `.......{.......
    97cc:	008c 0000 006b 0000 0000 3f38 0000 3e90     ....k.....8?...>
    97dc:	0000 3f80 d74e ad47 74f6 310f f27c b493     ...?N.G..t.1|...
    97ec:	0d01 37d0 0b61 bab6 aaab 3d2a               ...7a.....*=

000097f8 <PIo2>:
    97f8:	0000 3fc9 0000 39f0 0000 37da 0000 33a2     ...?...9...7...3
    9808:	0000 2e84 0000 2b50 0000 27c2 0000 22d0     ......P+...'..."
    9818:	0000 1fc4 0000 1bc6 0000 1744 0000 3fc9     ..........D....?
    9828:	0000 3b80 0000 3e00 0000 4100               ...;...>...A

00009834 <init_jk>:
    9834:	0004 0000 0007 0000 0009 0000 c9d3 2f2e     .............../
    9844:	2f34 b2d7 ef1b 3638 0d01 b950 8889 3c08     4/....86..P....<
    9854:	aaab be2a aaab 3e2a 0000 bf80 f2ca 7149     ..*...*>......Iq
    9864:	0000 4c00 4260 0da2 0000 3300 c89a ffff     ...L`B.....3....
    9874:	c882 ffff c80e ffff c87e ffff c80e ffff     ........~.......
    9884:	cb8e ffff c80e ffff c87e ffff c874 ffff     ........~...t...
    9894:	c874 ffff cb8e ffff c87e ffff c816 ffff     t.......~.......
    98a4:	c816 ffff c816 ffff c7d4 ffff d16e ffff     ............n...
    98b4:	d028 ffff d028 ffff d026 ffff d02e ffff     (...(...&.......
    98c4:	d02e ffff d45a ffff d026 ffff d02e ffff     ....Z...&.......
    98d4:	d45a ffff d02e ffff d026 ffff d15a ffff     Z.......&...Z...
    98e4:	d15a ffff d15a ffff d14c ffff               Z...Z...L...

000098f0 <__clz_tab>:
    98f0:	0100 0202 0303 0303 0404 0404 0404 0404     ................
    9900:	0505 0505 0505 0505 0505 0505 0505 0505     ................
    9910:	0606 0606 0606 0606 0606 0606 0606 0606     ................
    9920:	0606 0606 0606 0606 0606 0606 0606 0606     ................
    9930:	0707 0707 0707 0707 0707 0707 0707 0707     ................
    9940:	0707 0707 0707 0707 0707 0707 0707 0707     ................
    9950:	0707 0707 0707 0707 0707 0707 0707 0707     ................
    9960:	0707 0707 0707 0707 0707 0707 0707 0707     ................
    9970:	0808 0808 0808 0808 0808 0808 0808 0808     ................
    9980:	0808 0808 0808 0808 0808 0808 0808 0808     ................
    9990:	0808 0808 0808 0808 0808 0808 0808 0808     ................
    99a0:	0808 0808 0808 0808 0808 0808 0808 0808     ................
    99b0:	0808 0808 0808 0808 0808 0808 0808 0808     ................
    99c0:	0808 0808 0808 0808 0808 0808 0808 0808     ................
    99d0:	0808 0808 0808 0808 0808 0808 0808 0808     ................
    99e0:	0808 0808 0808 0808 0808 0808 0808 0808     ................

000099f0 <__fsym_list_mem>:
    99f0:	8144 0000 8124 0000 121a 0000               D...$.......

000099fc <__fsym_list>:
    99fc:	8640 0000 8624 0000 2308 0000               @...$....#..

00009a08 <__fsym___cmd_list_device>:
    9a08:	8660 0000 8648 0000 21da 0000               `...H....!..

00009a14 <__fsym_list_device>:
    9a14:	868c 0000 8674 0000 21da 0000               ....t....!..

00009a20 <__fsym___cmd_list_timer>:
    9a20:	86b0 0000 8698 0000 226e 0000               ........n"..

00009a2c <__fsym_list_timer>:
    9a2c:	86dc 0000 86c4 0000 226e 0000               ........n"..

00009a38 <__fsym___cmd_list_msgqueue>:
    9a38:	8708 0000 86e8 0000 2124 0000               ........$!..

00009a44 <__fsym_list_msgqueue>:
    9a44:	873c 0000 871c 0000 2124 0000               <.......$!..

00009a50 <__fsym___cmd_list_mailbox>:
    9a50:	8764 0000 874c 0000 2066 0000               d...L...f ..

00009a5c <__fsym_list_mailbox>:
    9a5c:	8790 0000 8778 0000 2066 0000               ....x...f ..

00009a68 <__fsym___cmd_list_mutex>:
    9a68:	87b8 0000 87a0 0000 1fe4 0000               ............

00009a74 <__fsym_list_mutex>:
    9a74:	87e4 0000 87cc 0000 1fe4 0000               ............

00009a80 <__fsym___cmd_list_event>:
    9a80:	8808 0000 87f0 0000 1f38 0000               ........8...

00009a8c <__fsym_list_event>:
    9a8c:	8834 0000 881c 0000 1f38 0000               4.......8...

00009a98 <__fsym___cmd_list_sem>:
    9a98:	885c 0000 8840 0000 1e82 0000               \...@.......

00009aa4 <__fsym_list_sem>:
    9aa4:	8888 0000 886c 0000 1e82 0000               ....l.......

00009ab0 <__fsym___cmd_list_thread>:
    9ab0:	88a0 0000 8894 0000 1da0 0000               ............

00009abc <__fsym_list_thread>:
    9abc:	88c0 0000 88b4 0000 1da0 0000               ............

00009ac8 <__fsym___cmd_clear>:
    9ac8:	88e0 0000 88cc 0000 1cf6 0000               ............

00009ad4 <__fsym_clear>:
    9ad4:	8900 0000 88ec 0000 1cf6 0000               ............

00009ae0 <__fsym___cmd_reboot>:
    9ae0:	891c 0000 8908 0000 1ce4 0000               ............

00009aec <__fsym_reboot>:
    9aec:	8940 0000 892c 0000 1ce4 0000               @...,.......

00009af8 <__fsym___cmd_help>:
    9af8:	8af4 0000 8adc 0000 2352 0000               ........R#..

00009b04 <__fsym___cmd_free>:
    9b04:	8b24 0000 8b00 0000 2608 0000               $........&..

00009b10 <__fsym___cmd_ps>:
    9b10:	8b4c 0000 8b30 0000 25fa 0000               L...0....%..

00009b1c <__fsym_pinRead>:
    9b1c:	8bf8 0000 8bd8 0000 2f58 0000               ........X/..

00009b28 <__fsym_pinWrite>:
    9b28:	8c1c 0000 8c00 0000 2f3e 0000               ........>/..

00009b34 <__fsym_pinMode>:
    9b34:	8c40 0000 8c28 0000 2f24 0000               @...(...$/..

00009b40 <__rt_init_rti_start>:
    9b40:	05f0 0000                                   ....

00009b44 <__rt_init_rti_board_start>:
    9b44:	05f8 0000                                   ....

00009b48 <__rt_init_rt_hw_pin_init>:
    9b48:	3118 0000                                   .1..

00009b4c <__rt_init_rt_hw_usart_init>:
    9b4c:	395c 0000                                   \9..

00009b50 <__rt_init_rti_board_end>:
    9b50:	05fc 0000                                   ....

00009b54 <__rt_init_finsh_system_init>:
    9b54:	2628 0000                                   (&..

00009b58 <__rt_init_rti_end>:
    9b58:	05f4 0000                                   ....
